
========================================================================

** ELF Header Information

    File Name: bin\iom_psram.axf

    Machine class: ELFCLASS32 (32-bit)
    Data encoding: ELFDATA2LSB (Little endian)
    Header version: EV_CURRENT (Current version)
    Operating System ABI: none
    ABI Version: 0
    File Type: ET_EXEC (Executable) (2)
    Machine: EM_ARM (ARM)

    Image Entry point: 0x00018239
    Flags: EF_ARM_HASENTRY + EF_ARM_ABI_FLOAT_HARD (0x05000402)

    ARM ELF revision: 5 (ABI version 2)

    Conforms to Hard float procedure-call standard

    Built with
    Component: ARM Compiler 5.06 update 6 (build 750) Tool: armasm [4d35ec]
    Component: ARM Compiler 5.06 update 6 (build 750) Tool: armlink [4d35ed]

    Header size: 52 bytes (0x34)
    Program header entry size: 32 bytes (0x20)
    Section header entry size: 40 bytes (0x28)

    Program header entries: 1
    Section header entries: 17

    Program header offset: 1971116 (0x001e13ac)
    Section header offset: 1971148 (0x001e13cc)

    Section header string table index: 16

========================================================================

** Program header #0 (PT_LOAD) [PF_X + PF_W + PF_R + PF_ARM_ENTRY]
    Size : 62220 bytes (22476 bytes in file)
    Virtual address: 0x00018000 (Alignment 16)


========================================================================

** Section #1 'MCU_MRAM' (SHT_PROGBITS) [SHF_ALLOC + SHF_EXECINSTR]
    Size   : 22108 bytes (alignment 4)
    Address: 0x00018000

    $d
    RESET
    __Vectors
        0x00018000:    10009c70    p...    DCD    268475504
        0x00018004:    00018201    ....    DCD    98817
        0x00018008:    0001821f    ....    DCD    98847
        0x0001800c:    00018335    5...    DCD    99125
        0x00018010:    00018221    !...    DCD    98849
        0x00018014:    00018223    #...    DCD    98851
        0x00018018:    00018225    %...    DCD    98853
        0x0001801c:    00018227    '...    DCD    98855
        0x00018020:    00000000    ....    DCD    0
        0x00018024:    00000000    ....    DCD    0
        0x00018028:    00000000    ....    DCD    0
        0x0001802c:    00018229    )...    DCD    98857
        0x00018030:    0001822b    +...    DCD    98859
        0x00018034:    00000000    ....    DCD    0
        0x00018038:    0001822d    -...    DCD    98861
        0x0001803c:    0001822f    /...    DCD    98863
        0x00018040:    00018231    1...    DCD    98865
        0x00018044:    00018231    1...    DCD    98865
        0x00018048:    00018231    1...    DCD    98865
        0x0001804c:    00018231    1...    DCD    98865
        0x00018050:    00018231    1...    DCD    98865
        0x00018054:    00018231    1...    DCD    98865
        0x00018058:    0001ba5d    ]...    DCD    113245
        0x0001805c:    00018231    1...    DCD    98865
        0x00018060:    00018231    1...    DCD    98865
        0x00018064:    00018231    1...    DCD    98865
        0x00018068:    00018231    1...    DCD    98865
        0x0001806c:    00018231    1...    DCD    98865
        0x00018070:    00018231    1...    DCD    98865
        0x00018074:    00018231    1...    DCD    98865
        0x00018078:    00018bc1    ....    DCD    101313
        0x0001807c:    00018231    1...    DCD    98865
        0x00018080:    00018231    1...    DCD    98865
        0x00018084:    00018231    1...    DCD    98865
        0x00018088:    00018231    1...    DCD    98865
        0x0001808c:    00018231    1...    DCD    98865
        0x00018090:    00018231    1...    DCD    98865
        0x00018094:    00018231    1...    DCD    98865
        0x00018098:    00018231    1...    DCD    98865
        0x0001809c:    00018231    1...    DCD    98865
        0x000180a0:    00018231    1...    DCD    98865
        0x000180a4:    00018231    1...    DCD    98865
        0x000180a8:    00018231    1...    DCD    98865
        0x000180ac:    00018231    1...    DCD    98865
        0x000180b0:    00018231    1...    DCD    98865
        0x000180b4:    00018231    1...    DCD    98865
        0x000180b8:    00018231    1...    DCD    98865
        0x000180bc:    00018231    1...    DCD    98865
        0x000180c0:    00018231    1...    DCD    98865
        0x000180c4:    00018231    1...    DCD    98865
        0x000180c8:    00018231    1...    DCD    98865
        0x000180cc:    00018231    1...    DCD    98865
        0x000180d0:    00018231    1...    DCD    98865
        0x000180d4:    00018231    1...    DCD    98865
        0x000180d8:    00018231    1...    DCD    98865
        0x000180dc:    00018231    1...    DCD    98865
        0x000180e0:    00018231    1...    DCD    98865
        0x000180e4:    00018231    1...    DCD    98865
        0x000180e8:    00018231    1...    DCD    98865
        0x000180ec:    00018231    1...    DCD    98865
        0x000180f0:    00018231    1...    DCD    98865
        0x000180f4:    00018231    1...    DCD    98865
        0x000180f8:    00018231    1...    DCD    98865
        0x000180fc:    00018231    1...    DCD    98865
        0x00018100:    00018231    1...    DCD    98865
        0x00018104:    00018231    1...    DCD    98865
        0x00018108:    00018231    1...    DCD    98865
        0x0001810c:    00018231    1...    DCD    98865
        0x00018110:    00018231    1...    DCD    98865
        0x00018114:    00018231    1...    DCD    98865
        0x00018118:    00018231    1...    DCD    98865
        0x0001811c:    00018231    1...    DCD    98865
        0x00018120:    00018231    1...    DCD    98865
        0x00018124:    00018231    1...    DCD    98865
        0x00018128:    00018231    1...    DCD    98865
        0x0001812c:    00018231    1...    DCD    98865
        0x00018130:    00018231    1...    DCD    98865
        0x00018134:    00018231    1...    DCD    98865
        0x00018138:    00018231    1...    DCD    98865
        0x0001813c:    00018231    1...    DCD    98865
        0x00018140:    00018231    1...    DCD    98865
        0x00018144:    00018231    1...    DCD    98865
        0x00018148:    00018231    1...    DCD    98865
        0x0001814c:    00018231    1...    DCD    98865
        0x00018150:    00018231    1...    DCD    98865
        0x00018154:    00018231    1...    DCD    98865
        0x00018158:    00018231    1...    DCD    98865
        0x0001815c:    00018231    1...    DCD    98865
        0x00018160:    00018231    1...    DCD    98865
        0x00018164:    00018231    1...    DCD    98865
        0x00018168:    00018231    1...    DCD    98865
        0x0001816c:    00018231    1...    DCD    98865
        0x00018170:    00018231    1...    DCD    98865
        0x00018174:    00018231    1...    DCD    98865
        0x00018178:    00018231    1...    DCD    98865
        0x0001817c:    00018231    1...    DCD    98865
        0x00018180:    00018231    1...    DCD    98865
        0x00018184:    00018231    1...    DCD    98865
        0x00018188:    00018231    1...    DCD    98865
        0x0001818c:    00018231    1...    DCD    98865
    __Patchable
        0x00018190:    00000000    ....    DCD    0
        0x00018194:    00000000    ....    DCD    0
        0x00018198:    00000000    ....    DCD    0
        0x0001819c:    00000000    ....    DCD    0
        0x000181a0:    00000000    ....    DCD    0
        0x000181a4:    00000000    ....    DCD    0
        0x000181a8:    00000000    ....    DCD    0
        0x000181ac:    00000000    ....    DCD    0
        0x000181b0:    00000000    ....    DCD    0
        0x000181b4:    00000000    ....    DCD    0
        0x000181b8:    00000000    ....    DCD    0
        0x000181bc:    00000000    ....    DCD    0
        0x000181c0:    00000000    ....    DCD    0
        0x000181c4:    00000000    ....    DCD    0
        0x000181c8:    00000000    ....    DCD    0
        0x000181cc:    00000000    ....    DCD    0
        0x000181d0:    00000000    ....    DCD    0
        0x000181d4:    00000000    ....    DCD    0
        0x000181d8:    00000000    ....    DCD    0
        0x000181dc:    00000000    ....    DCD    0
        0x000181e0:    00000000    ....    DCD    0
        0x000181e4:    00000000    ....    DCD    0
        0x000181e8:    00000000    ....    DCD    0
        0x000181ec:    00000000    ....    DCD    0
        0x000181f0:    00000000    ....    DCD    0
        0x000181f4:    00000000    ....    DCD    0
        0x000181f8:    00000000    ....    DCD    0
        0x000181fc:    00000000    ....    DCD    0
    $t
    $v0
    Reset_Handler
        0x00018200:    f64e5088    N..P    MOV      r0,#0xed88
        0x00018204:    f2ce0000    ....    MOVT     r0,#0xe000
        0x00018208:    6801        .h      LDR      r1,[r0,#0]
        0x0001820a:    f4410170    A.p.    ORR      r1,r1,#0xf00000
        0x0001820e:    6001        .`      STR      r1,[r0,#0]
        0x00018210:    f3bf8f4f    ..O.    DSB      
        0x00018214:    f3bf8f6f    ..o.    ISB      
        0x00018218:    4806        .H      LDR      r0,[pc,#24] ; [0x18234] = 0x18239
        0x0001821a:    4700        .G      BX       r0
        0x0001821c:    e7fe        ..      B        0x1821c ; Reset_Handler + 28
    NMI_Handler
        0x0001821e:    e7fe        ..      B        NMI_Handler ; 0x1821e
    MemManage_Handler
        0x00018220:    e7fe        ..      B        MemManage_Handler ; 0x18220
    BusFault_Handler
        0x00018222:    e7fe        ..      B        BusFault_Handler ; 0x18222
    UsageFault_Handler
        0x00018224:    e7fe        ..      B        UsageFault_Handler ; 0x18224
    SecureFault_Handler
        0x00018226:    e7fe        ..      B        SecureFault_Handler ; 0x18226
    SVC_Handler
        0x00018228:    e7fe        ..      B        SVC_Handler ; 0x18228
    DebugMon_Handler
        0x0001822a:    e7fe        ..      B        DebugMon_Handler ; 0x1822a
    PendSV_Handler
        0x0001822c:    e7fe        ..      B        PendSV_Handler ; 0x1822c
    SysTick_Handler
        0x0001822e:    e7fe        ..      B        SysTick_Handler ; 0x1822e
    am_cryptosec_isr
    am_default_isr
    am_adc_isr
    am_audadc0_isr
    am_brownout_isr
    am_cachecpu_isr
    am_clkgen_isr
    am_disp_isr
    am_dsi_isr
    am_dspi2s0_isr
    am_dspi2s1_isr
    am_dspi2s2_isr
    am_dspi2s3_isr
    am_gpio0_001f_isr
    am_gpio0_203f_isr
    am_gpio0_405f_isr
    am_gpio0_607f_isr
    am_gpio1_001f_isr
    am_gpio1_203f_isr
    am_gpio1_405f_isr
    am_gpio1_607f_isr
    am_gpu_isr
    am_iomaster1_isr
    am_iomaster2_isr
    am_iomaster3_isr
    am_iomaster4_isr
    am_iomaster5_isr
    am_iomaster6_isr
    am_iomaster7_isr
    am_ioslave_acc_isr
    am_ioslave_ios_isr
    am_mspi0_isr
    am_mspi1_isr
    am_mspi2_isr
    am_pdm0_isr
    am_pdm1_isr
    am_pdm2_isr
    am_pdm3_isr
    am_rtc_isr
    am_sdio_isr
    am_stimer_cmpr0_isr
    am_stimer_cmpr1_isr
    am_stimer_cmpr2_isr
    am_stimer_cmpr3_isr
    am_stimer_cmpr4_isr
    am_stimer_cmpr5_isr
    am_stimer_cmpr6_isr
    am_stimer_cmpr7_isr
    am_stimerof_isr
    am_timer00_isr
    am_timer01_isr
    am_timer02_isr
    am_timer03_isr
    am_timer04_isr
    am_timer05_isr
    am_timer06_isr
    am_timer07_isr
    am_timer08_isr
    am_timer09_isr
    am_timer10_isr
    am_timer11_isr
    am_timer12_isr
    am_timer13_isr
    am_timer14_isr
    am_timer15_isr
    am_uart1_isr
    am_uart2_isr
    am_uart3_isr
    am_uart_isr
    am_usb_isr
    am_vcomp_isr
    am_watchdog_isr
        0x00018230:    e7fe        ..      B        am_cryptosec_isr ; 0x18230
    $d
        0x00018232:    0000        ..      DCW    0
        0x00018234:    00018239    9...    DCD    98873
    $t
    !!!main
    __main
        0x00018238:    f000f802    ....    BL       __scatterload ; 0x18240
        0x0001823c:    f000f86a    ..j.    BL       __rt_entry ; 0x18314
    !!!scatter
    __scatterload
    __scatterload_rt2
    __scatterload_rt2_thumb_only
        0x00018240:    a00a        ..      ADR      r0,{pc}+0x2c ; 0x1826c
        0x00018242:    e8900c00    ....    LDM      r0,{r10,r11}
        0x00018246:    4482        .D      ADD      r10,r10,r0
        0x00018248:    4483        .D      ADD      r11,r11,r0
        0x0001824a:    f1aa0701    ....    SUB      r7,r10,#1
    __scatterload_null
        0x0001824e:    45da        .E      CMP      r10,r11
        0x00018250:    d101        ..      BNE      0x18256 ; __scatterload_null + 8
        0x00018252:    f000f85f    .._.    BL       __rt_entry ; 0x18314
        0x00018256:    f2af0e09    ....    ADR      lr,{pc}-7 ; 0x1824f
        0x0001825a:    e8ba000f    ....    LDM      r10!,{r0-r3}
        0x0001825e:    f0130f01    ....    TST      r3,#1
        0x00018262:    bf18        ..      IT       NE
        0x00018264:    1afb        ..      SUBNE    r3,r7,r3
        0x00018266:    f0430301    C...    ORR      r3,r3,#1
        0x0001826a:    4718        .G      BX       r3
    $d
        0x0001826c:    000053c0    .S..    DCD    21440
        0x00018270:    000053f0    .S..    DCD    21488
    $t
    !!dczerorl2
    __decompress
    __decompress1
        0x00018274:    440a        .D      ADD      r2,r2,r1
        0x00018276:    f04f0c00    O...    MOV      r12,#0
        0x0001827a:    f8103b01    ...;    LDRB     r3,[r0],#1
        0x0001827e:    f0130407    ....    ANDS     r4,r3,#7
        0x00018282:    bf08        ..      IT       EQ
        0x00018284:    f8104b01    ...K    LDRBEQ   r4,[r0],#1
        0x00018288:    111d        ..      ASRS     r5,r3,#4
        0x0001828a:    bf08        ..      IT       EQ
        0x0001828c:    f8105b01    ...[    LDRBEQ   r5,[r0],#1
        0x00018290:    1e64        d.      SUBS     r4,r4,#1
        0x00018292:    d005        ..      BEQ      0x182a0 ; __decompress + 44
        0x00018294:    f8106b01    ...k    LDRB     r6,[r0],#1
        0x00018298:    1e64        d.      SUBS     r4,r4,#1
        0x0001829a:    f8016b01    ...k    STRB     r6,[r1],#1
        0x0001829e:    d1f9        ..      BNE      0x18294 ; __decompress + 32
        0x000182a0:    f0130f08    ....    TST      r3,#8
        0x000182a4:    bf1e        ..      ITTT     NE
        0x000182a6:    f8104b01    ...K    LDRBNE   r4,[r0],#1
        0x000182aa:    1cad        ..      ADDNE    r5,r5,#2
        0x000182ac:    1b0c        ..      SUBNE    r4,r1,r4
        0x000182ae:    d109        ..      BNE      0x182c4 ; __decompress + 80
        0x000182b0:    1e6d        m.      SUBS     r5,r5,#1
        0x000182b2:    bf58        X.      IT       PL
        0x000182b4:    f801cb01    ....    STRBPL   r12,[r1],#1
        0x000182b8:    d5fa        ..      BPL      0x182b0 ; __decompress + 60
        0x000182ba:    e005        ..      B        0x182c8 ; __decompress + 84
        0x000182bc:    f8146b01    ...k    LDRB     r6,[r4],#1
        0x000182c0:    f8016b01    ...k    STRB     r6,[r1],#1
        0x000182c4:    1e6d        m.      SUBS     r5,r5,#1
        0x000182c6:    d5f9        ..      BPL      0x182bc ; __decompress + 72
        0x000182c8:    4291        .B      CMP      r1,r2
        0x000182ca:    d3d6        ..      BCC      0x1827a ; __decompress + 6
        0x000182cc:    4770        pG      BX       lr
        0x000182ce:    0000        ..      MOVS     r0,r0
    !!handler_copy
    __scatterload_copy
        0x000182d0:    3a10        .:      SUBS     r2,r2,#0x10
        0x000182d2:    bf24        $.      ITT      CS
        0x000182d4:    c878        x.      LDMCS    r0!,{r3-r6}
        0x000182d6:    c178        x.      STMCS    r1!,{r3-r6}
        0x000182d8:    d8fa        ..      BHI      __scatterload_copy ; 0x182d0
        0x000182da:    0752        R.      LSLS     r2,r2,#29
        0x000182dc:    bf24        $.      ITT      CS
        0x000182de:    c830        0.      LDMCS    r0!,{r4,r5}
        0x000182e0:    c130        0.      STMCS    r1!,{r4,r5}
        0x000182e2:    bf44        D.      ITT      MI
        0x000182e4:    6804        .h      LDRMI    r4,[r0,#0]
        0x000182e6:    600c        .`      STRMI    r4,[r1,#0]
        0x000182e8:    4770        pG      BX       lr
        0x000182ea:    0000        ..      MOVS     r0,r0
    !!handler_zi
    __scatterload_zeroinit
        0x000182ec:    2300        .#      MOVS     r3,#0
        0x000182ee:    2400        .$      MOVS     r4,#0
        0x000182f0:    2500        .%      MOVS     r5,#0
        0x000182f2:    2600        .&      MOVS     r6,#0
        0x000182f4:    3a10        .:      SUBS     r2,r2,#0x10
        0x000182f6:    bf28        (.      IT       CS
        0x000182f8:    c178        x.      STMCS    r1!,{r3-r6}
        0x000182fa:    d8fb        ..      BHI      0x182f4 ; __scatterload_zeroinit + 8
        0x000182fc:    0752        R.      LSLS     r2,r2,#29
        0x000182fe:    bf28        (.      IT       CS
        0x00018300:    c130        0.      STMCS    r1!,{r4,r5}
        0x00018302:    bf48        H.      IT       MI
        0x00018304:    600b        .`      STRMI    r3,[r1,#0]
        0x00018306:    4770        pG      BX       lr
    .ARM.Collect$$libinit$$00000000
    __rt_lib_init
        0x00018308:    b51f        ..      PUSH     {r0-r4,lr}
    .ARM.Collect$$libinit$$00000001
    __rt_lib_init_fp_1
        0x0001830a:    f004fed0    ....    BL       _fp_init ; 0x1d0ae
    .ARM.Collect$$libinit$$00000004
    .ARM.Collect$$libinit$$0000000A
    .ARM.Collect$$libinit$$0000000C
    .ARM.Collect$$libinit$$0000000E
    .ARM.Collect$$libinit$$00000011
    .ARM.Collect$$libinit$$00000013
    .ARM.Collect$$libinit$$00000015
    .ARM.Collect$$libinit$$00000017
    .ARM.Collect$$libinit$$00000019
    .ARM.Collect$$libinit$$0000001B
    .ARM.Collect$$libinit$$0000001D
    .ARM.Collect$$libinit$$0000001F
    .ARM.Collect$$libinit$$00000021
    .ARM.Collect$$libinit$$00000023
    .ARM.Collect$$libinit$$00000025
    .ARM.Collect$$libinit$$0000002C
    .ARM.Collect$$libinit$$0000002E
    .ARM.Collect$$libinit$$00000030
    .ARM.Collect$$libinit$$00000032
    .ARM.Collect$$libinit$$00000033
    __rt_lib_init_alloca_1
    __rt_lib_init_argv_1
    __rt_lib_init_atexit_1
    __rt_lib_init_clock_1
    __rt_lib_init_cpp_1
    __rt_lib_init_exceptions_1
    __rt_lib_init_fp_trap_1
    __rt_lib_init_getenv_1
    __rt_lib_init_heap_1
    __rt_lib_init_lc_collate_1
    __rt_lib_init_lc_ctype_1
    __rt_lib_init_lc_monetary_1
    __rt_lib_init_lc_numeric_1
    __rt_lib_init_lc_time_1
    __rt_lib_init_preinit_1
    __rt_lib_init_rand_1
    __rt_lib_init_return
    __rt_lib_init_signal_1
    __rt_lib_init_stdio_1
    __rt_lib_init_user_alloc_1
        0x0001830e:    bd1f        ..      POP      {r0-r4,pc}
    .ARM.Collect$$libshutdown$$00000000
    __rt_lib_shutdown
        0x00018310:    b510        ..      PUSH     {r4,lr}
    .ARM.Collect$$libshutdown$$00000002
    .ARM.Collect$$libshutdown$$00000004
    .ARM.Collect$$libshutdown$$00000007
    .ARM.Collect$$libshutdown$$0000000A
    .ARM.Collect$$libshutdown$$0000000C
    .ARM.Collect$$libshutdown$$0000000F
    .ARM.Collect$$libshutdown$$00000010
    __rt_lib_shutdown_cpp_1
    __rt_lib_shutdown_fp_trap_1
    __rt_lib_shutdown_heap_1
    __rt_lib_shutdown_return
    __rt_lib_shutdown_signal_1
    __rt_lib_shutdown_stdio_1
    __rt_lib_shutdown_user_alloc_1
        0x00018312:    bd10        ..      POP      {r4,pc}
    .ARM.Collect$$rtentry$$00000000
    .ARM.Collect$$rtentry$$00000002
    .ARM.Collect$$rtentry$$00000004
    __rt_entry
    __rt_entry_presh_1
    __rt_entry_sh
        0x00018314:    f000f8ba    ....    BL       __user_setup_stackheap ; 0x1848c
        0x00018318:    4611        .F      MOV      r1,r2
    .ARM.Collect$$rtentry$$00000009
    .ARM.Collect$$rtentry$$0000000A
    __rt_entry_li
    __rt_entry_postsh_1
        0x0001831a:    f7fffff5    ....    BL       __rt_lib_init ; 0x18308
    .ARM.Collect$$rtentry$$0000000C
    .ARM.Collect$$rtentry$$0000000D
    __rt_entry_main
    __rt_entry_postli_1
        0x0001831e:    f004f95d    ..].    BL       main ; 0x1c5dc
        0x00018322:    f000f8d8    ....    BL       exit ; 0x184d6
    .ARM.Collect$$rtexit$$00000000
    __rt_exit
        0x00018326:    b403        ..      PUSH     {r0,r1}
    .ARM.Collect$$rtexit$$00000002
    .ARM.Collect$$rtexit$$00000003
    __rt_exit_ls
    __rt_exit_prels_1
        0x00018328:    f7fffff2    ....    BL       __rt_lib_shutdown ; 0x18310
    .ARM.Collect$$rtexit$$00000004
    __rt_exit_exit
        0x0001832c:    bc03        ..      POP      {r0,r1}
        0x0001832e:    f000f8df    ....    BL       _sys_exit ; 0x184f0
        0x00018332:    0000        ..      MOVS     r0,r0
    .emb_text
    $v0
    HardFault_Handler
        0x00018334:    b501        ..      PUSH     {r0,lr}
        0x00018336:    f01e0f04    ....    TST      lr,#4
        0x0001833a:    bf0a        ..      ITET     EQ
        0x0001833c:    f3ef8008    ....    MRSEQ    r0,MSP
        0x00018340:    f3ef8009    ....    MRSNE    r0,PSP
        0x00018344:    f1100008    ....    ADDSEQ   r0,r0,#8
        0x00018348:    f003fba6    ....    BL       am_util_faultisr_collect_data ; 0x1ba98
        0x0001834c:    bd01        ..      POP      {r0,pc}
    getStackedReg
        0x0001834e:    0080        ..      LSLS     r0,r0,#2
        0x00018350:    1840        @.      ADDS     r0,r0,r1
        0x00018352:    6800        .h      LDR      r0,[r0,#0]
        0x00018354:    4770        pG      BX       lr
        0x00018356:    0000        ..      MOVS     r0,r0
    .emb_text
    $v0
    am_hal_interrupt_master_enable
        0x00018358:    f3ef8010    ....    MRS      r0,PRIMASK
        0x0001835c:    b662        b.      CPSIE    i
        0x0001835e:    4770        pG      BX       lr
    am_hal_interrupt_master_disable
        0x00018360:    f3ef8010    ....    MRS      r0,PRIMASK
        0x00018364:    b672        r.      CPSID    i
        0x00018366:    4770        pG      BX       lr
    am_hal_interrupt_master_set
        0x00018368:    f3808810    ....    MSR      PRIMASK,r0
        0x0001836c:    4770        pG      BX       lr
        0x0001836e:    0000        ..      MOVS     r0,r0
    .text
    $v0
    __user_initial_stackheap
        0x00018370:    4802        .H      LDR      r0,[pc,#8] ; [0x1837c] = 0x10008c70
        0x00018372:    4903        .I      LDR      r1,[pc,#12] ; [0x18380] = 0x10009c70
        0x00018374:    4a01        .J      LDR      r2,[pc,#4] ; [0x1837c] = 0x10008c70
        0x00018376:    4b03        .K      LDR      r3,[pc,#12] ; [0x18384] = 0x10008c70
        0x00018378:    4770        pG      BX       lr
    $d
        0x0001837a:    0000        ..      DCW    0
        0x0001837c:    10008c70    p...    DCD    268471408
        0x00018380:    10009c70    p...    DCD    268475504
        0x00018384:    10008c70    p...    DCD    268471408
    $t
    .text
    __aeabi_llsl
    _ll_shift_l
        0x00018388:    f1b20320    .. .    SUBS     r3,r2,#0x20
        0x0001838c:    d50a        ..      BPL      0x183a4 ; __aeabi_llsl + 28
        0x0001838e:    f1c20320    .. .    RSB      r3,r2,#0x20
        0x00018392:    fa01f102    ....    LSL      r1,r1,r2
        0x00018396:    fa20f303     ...    LSR      r3,r0,r3
        0x0001839a:    fa00f002    ....    LSL      r0,r0,r2
        0x0001839e:    ea410103    A...    ORR      r1,r1,r3
        0x000183a2:    4770        pG      BX       lr
        0x000183a4:    fa00f103    ....    LSL      r1,r0,r3
        0x000183a8:    f04f0000    O...    MOV      r0,#0
        0x000183ac:    4770        pG      BX       lr
    .text
    __aeabi_llsr
    _ll_ushift_r
        0x000183ae:    f1b20320    .. .    SUBS     r3,r2,#0x20
        0x000183b2:    d50a        ..      BPL      0x183ca ; __aeabi_llsr + 28
        0x000183b4:    f1c20320    .. .    RSB      r3,r2,#0x20
        0x000183b8:    fa20f002     ...    LSR      r0,r0,r2
        0x000183bc:    fa01f303    ....    LSL      r3,r1,r3
        0x000183c0:    fa21f102    !...    LSR      r1,r1,r2
        0x000183c4:    ea400003    @...    ORR      r0,r0,r3
        0x000183c8:    4770        pG      BX       lr
        0x000183ca:    fa21f003    !...    LSR      r0,r1,r3
        0x000183ce:    f04f0100    O...    MOV      r1,#0
        0x000183d2:    4770        pG      BX       lr
    .text
    __aeabi_memcpy4
    __aeabi_memcpy8
    __rt_memcpy_w
        0x000183d4:    b510        ..      PUSH     {r4,lr}
        0x000183d6:    3a20         :      SUBS     r2,r2,#0x20
        0x000183d8:    f0c0800b    ....    BCC.W    0x183f2 ; __aeabi_memcpy4 + 30
        0x000183dc:    e8b15018    ...P    LDM      r1!,{r3,r4,r12,lr}
        0x000183e0:    3a20         :      SUBS     r2,r2,#0x20
        0x000183e2:    e8a05018    ...P    STM      r0!,{r3,r4,r12,lr}
        0x000183e6:    e8b15018    ...P    LDM      r1!,{r3,r4,r12,lr}
        0x000183ea:    e8a05018    ...P    STM      r0!,{r3,r4,r12,lr}
        0x000183ee:    f4bfaff5    ....    BCS.W    0x183dc ; __aeabi_memcpy4 + 8
        0x000183f2:    ea5f7c02    _..|    LSLS     r12,r2,#28
        0x000183f6:    bf24        $.      ITT      CS
        0x000183f8:    e8b15018    ...P    LDMCS    r1!,{r3,r4,r12,lr}
        0x000183fc:    e8a05018    ...P    STMCS    r0!,{r3,r4,r12,lr}
        0x00018400:    bf44        D.      ITT      MI
        0x00018402:    c918        ..      LDMMI    r1!,{r3,r4}
        0x00018404:    c018        ..      STMMI    r0!,{r3,r4}
        0x00018406:    e8bd4010    ...@    POP      {r4,lr}
        0x0001840a:    ea5f7c82    _..|    LSLS     r12,r2,#30
        0x0001840e:    bf24        $.      ITT      CS
        0x00018410:    f8513b04    Q..;    LDRCS    r3,[r1],#4
        0x00018414:    f8403b04    @..;    STRCS    r3,[r0],#4
        0x00018418:    bf08        ..      IT       EQ
        0x0001841a:    4770        pG      BXEQ     lr
    _memcpy_lastbytes_aligned
        0x0001841c:    07d2        ..      LSLS     r2,r2,#31
        0x0001841e:    bf28        (.      IT       CS
        0x00018420:    f8313b02    1..;    LDRHCS   r3,[r1],#2
        0x00018424:    bf48        H.      IT       MI
        0x00018426:    f8112b01    ...+    LDRBMI   r2,[r1],#1
        0x0001842a:    bf28        (.      IT       CS
        0x0001842c:    f8203b02     ..;    STRHCS   r3,[r0],#2
        0x00018430:    bf48        H.      IT       MI
        0x00018432:    f8002b01    ...+    STRBMI   r2,[r0],#1
        0x00018436:    4770        pG      BX       lr
    .text
    __aeabi_memclr4
    __aeabi_memclr8
    __rt_memclr_w
        0x00018438:    f04f0200    O...    MOV      r2,#0
    _memset_w
        0x0001843c:    b500        ..      PUSH     {lr}
        0x0001843e:    4613        .F      MOV      r3,r2
        0x00018440:    4694        .F      MOV      r12,r2
        0x00018442:    4696        .F      MOV      lr,r2
        0x00018444:    3920         9      SUBS     r1,r1,#0x20
        0x00018446:    bf22        ".      ITTT     CS
        0x00018448:    e8a0500c    ...P    STMCS    r0!,{r2,r3,r12,lr}
        0x0001844c:    e8a0500c    ...P    STMCS    r0!,{r2,r3,r12,lr}
        0x00018450:    f1b10120    .. .    SUBSCS   r1,r1,#0x20
        0x00018454:    f4bfaff7    ....    BCS.W    0x18446 ; _memset_w + 10
        0x00018458:    0709        ..      LSLS     r1,r1,#28
        0x0001845a:    bf28        (.      IT       CS
        0x0001845c:    e8a0500c    ...P    STMCS    r0!,{r2,r3,r12,lr}
        0x00018460:    bf48        H.      IT       MI
        0x00018462:    c00c        ..      STMMI    r0!,{r2,r3}
        0x00018464:    f85deb04    ]...    POP      {lr}
        0x00018468:    0089        ..      LSLS     r1,r1,#2
        0x0001846a:    bf28        (.      IT       CS
        0x0001846c:    f8402b04    @..+    STRCS    r2,[r0],#4
        0x00018470:    bf08        ..      IT       EQ
        0x00018472:    4770        pG      BXEQ     lr
        0x00018474:    bf48        H.      IT       MI
        0x00018476:    f8202b02     ..+    STRHMI   r2,[r0],#2
        0x0001847a:    f0114f80    ...O    TST      r1,#0x40000000
        0x0001847e:    bf18        ..      IT       NE
        0x00018480:    f8002b01    ...+    STRBNE   r2,[r0],#1
        0x00018484:    4770        pG      BX       lr
    .text
    __use_two_region_memory
        0x00018486:    4770        pG      BX       lr
    __rt_heap_escrow$2region
        0x00018488:    4770        pG      BX       lr
    __rt_heap_expand$2region
        0x0001848a:    4770        pG      BX       lr
    .text
    __user_setup_stackheap
        0x0001848c:    4675        uF      MOV      r5,lr
        0x0001848e:    f000f82b    ..+.    BL       __user_libspace ; 0x184e8
        0x00018492:    46ae        .F      MOV      lr,r5
        0x00018494:    0005        ..      MOVS     r5,r0
        0x00018496:    4669        iF      MOV      r1,sp
        0x00018498:    4653        SF      MOV      r3,r10
        0x0001849a:    f0200007     ...    BIC      r0,r0,#7
        0x0001849e:    4685        .F      MOV      sp,r0
        0x000184a0:    b018        ..      ADD      sp,sp,#0x60
        0x000184a2:    b520         .      PUSH     {r5,lr}
        0x000184a4:    f7ffff64    ..d.    BL       __user_initial_stackheap ; 0x18370
        0x000184a8:    e8bd4020    .. @    POP      {r5,lr}
        0x000184ac:    f04f0600    O...    MOV      r6,#0
        0x000184b0:    f04f0700    O...    MOV      r7,#0
        0x000184b4:    f04f0800    O...    MOV      r8,#0
        0x000184b8:    f04f0b00    O...    MOV      r11,#0
        0x000184bc:    f0210107    !...    BIC      r1,r1,#7
        0x000184c0:    46ac        .F      MOV      r12,r5
        0x000184c2:    e8ac09c0    ....    STM      r12!,{r6-r8,r11}
        0x000184c6:    e8ac09c0    ....    STM      r12!,{r6-r8,r11}
        0x000184ca:    e8ac09c0    ....    STM      r12!,{r6-r8,r11}
        0x000184ce:    e8ac09c0    ....    STM      r12!,{r6-r8,r11}
        0x000184d2:    468d        .F      MOV      sp,r1
        0x000184d4:    4770        pG      BX       lr
    .text
    exit
        0x000184d6:    b510        ..      PUSH     {r4,lr}
        0x000184d8:    4604        .F      MOV      r4,r0
        0x000184da:    f3af8000    ....    NOP.W    
        0x000184de:    4620         F      MOV      r0,r4
        0x000184e0:    e8bd4010    ...@    POP      {r4,lr}
        0x000184e4:    f7ffbf1f    ....    B.W      __rt_exit ; 0x18326
    .text
    __user_libspace
    __user_perproc_libspace
    __user_perthread_libspace
        0x000184e8:    4800        .H      LDR      r0,[pc,#0] ; [0x184ec] = 0x10008c10
        0x000184ea:    4770        pG      BX       lr
    $d
        0x000184ec:    10008c10    ....    DCD    268471312
    $t
    .text
    _sys_exit
        0x000184f0:    4901        .I      LDR      r1,[pc,#4] ; [0x184f8] = 0x20026
        0x000184f2:    2018        .       MOVS     r0,#0x18
        0x000184f4:    beab        ..      BKPT     #0xab
        0x000184f6:    e7fe        ..      B        0x184f6 ; _sys_exit + 6
    $d
        0x000184f8:    00020026    &...    DCD    131110
    $t
    .text
    __I$use$semihosting
    __use_no_semihosting_swi
        0x000184fc:    4770        pG      BX       lr
    i.__NVIC_EnableIRQ
    __NVIC_EnableIRQ
    .text
    __semihosting_library_function
        0x000184fe:    2800        .(      CMP      r0,#0
        0x00018500:    db0d        ..      BLT      0x1851e ; __NVIC_EnableIRQ + 32
        0x00018502:    bf00        ..      NOP      
        0x00018504:    bf00        ..      NOP      
        0x00018506:    f000021f    ....    AND      r2,r0,#0x1f
        0x0001850a:    2101        .!      MOVS     r1,#1
        0x0001850c:    4091        .@      LSLS     r1,r1,r2
        0x0001850e:    0942        B.      LSRS     r2,r0,#5
        0x00018510:    0092        ..      LSLS     r2,r2,#2
        0x00018512:    f10222e0    ..."    ADD      r2,r2,#0xe000e000
        0x00018516:    f8c21100    ....    STR      r1,[r2,#0x100]
        0x0001851a:    bf00        ..      NOP      
        0x0001851c:    bf00        ..      NOP      
        0x0001851e:    4770        pG      BX       lr
    i.am_bsp_iom_pins_disable
    am_bsp_iom_pins_disable
        0x00018520:    2808        .(      CMP      r0,#8
        0x00018522:    bf28        (.      IT       CS
        0x00018524:    4770        pG      BXCS     lr
        0x00018526:    b538        8.      PUSH     {r3-r5,lr}
        0x00018528:    ea410080    A...    ORR      r0,r1,r0,LSL #2
        0x0001852c:    281e        .(      CMP      r0,#0x1e
        0x0001852e:    bf28        (.      IT       CS
        0x00018530:    bd38        8.      POPCS    {r3-r5,pc}
        0x00018532:    e8dff000    ....    TBB      [pc,r0]
    $d
        0x00018536:    c70f        ..      DCW    50959
        0x00018538:    d426fcfc    ..&.    DCD    3559324924
        0x0001853c:    e13dfcfc    ..=.    DCD    3778936060
        0x00018540:    ee54fcfc    ..T.    DCD    3998547196
        0x00018544:    fb6bfcfc    ..k.    DCD    4218158332
        0x00018548:    fa82fcfc    ....    DCD    4202888444
        0x0001854c:    f999fcfc    ....    DCD    4187618556
        0x00018550:    f8b0fcfc    ....    DCD    4172348668
    $t
        0x00018554:    4c93        .L      LDR      r4,[pc,#588] ; [0x187a4] = 0x1d340
        0x00018556:    6821        !h      LDR      r1,[r4,#0]
        0x00018558:    9100        ..      STR      r1,[sp,#0]
        0x0001855a:    2005        .       MOVS     r0,#5
        0x0001855c:    f001f96e    ..n.    BL       am_hal_gpio_pinconfig ; 0x1983c
        0x00018560:    6821        !h      LDR      r1,[r4,#0]
        0x00018562:    9100        ..      STR      r1,[sp,#0]
        0x00018564:    2007        .       MOVS     r0,#7
        0x00018566:    f001f969    ..i.    BL       am_hal_gpio_pinconfig ; 0x1983c
        0x0001856a:    6821        !h      LDR      r1,[r4,#0]
        0x0001856c:    9100        ..      STR      r1,[sp,#0]
        0x0001856e:    2006        .       MOVS     r0,#6
        0x00018570:    f001f964    ..d.    BL       am_hal_gpio_pinconfig ; 0x1983c
        0x00018574:    6821        !h      LDR      r1,[r4,#0]
        0x00018576:    9100        ..      STR      r1,[sp,#0]
        0x00018578:    e8bd4038    ..8@    POP      {r3-r5,lr}
        0x0001857c:    2032        2       MOVS     r0,#0x32
        0x0001857e:    f001b95d    ..].    B.W      am_hal_gpio_pinconfig ; 0x1983c
        0x00018582:    4c88        .L      LDR      r4,[pc,#544] ; [0x187a4] = 0x1d340
        0x00018584:    6821        !h      LDR      r1,[r4,#0]
        0x00018586:    9100        ..      STR      r1,[sp,#0]
        0x00018588:    2008        .       MOVS     r0,#8
        0x0001858a:    f001f957    ..W.    BL       am_hal_gpio_pinconfig ; 0x1983c
        0x0001858e:    6821        !h      LDR      r1,[r4,#0]
        0x00018590:    9100        ..      STR      r1,[sp,#0]
        0x00018592:    200a        .       MOVS     r0,#0xa
        0x00018594:    f001f952    ..R.    BL       am_hal_gpio_pinconfig ; 0x1983c
        0x00018598:    6821        !h      LDR      r1,[r4,#0]
        0x0001859a:    9100        ..      STR      r1,[sp,#0]
        0x0001859c:    2009        .       MOVS     r0,#9
        0x0001859e:    f001f94d    ..M.    BL       am_hal_gpio_pinconfig ; 0x1983c
        0x000185a2:    6821        !h      LDR      r1,[r4,#0]
        0x000185a4:    9100        ..      STR      r1,[sp,#0]
        0x000185a6:    e8bd4038    ..8@    POP      {r3-r5,lr}
        0x000185aa:    2033        3       MOVS     r0,#0x33
        0x000185ac:    f001b946    ..F.    B.W      am_hal_gpio_pinconfig ; 0x1983c
        0x000185b0:    4c7c        |L      LDR      r4,[pc,#496] ; [0x187a4] = 0x1d340
        0x000185b2:    6821        !h      LDR      r1,[r4,#0]
        0x000185b4:    9100        ..      STR      r1,[sp,#0]
        0x000185b6:    2019        .       MOVS     r0,#0x19
        0x000185b8:    f001f940    ..@.    BL       am_hal_gpio_pinconfig ; 0x1983c
        0x000185bc:    6821        !h      LDR      r1,[r4,#0]
        0x000185be:    9100        ..      STR      r1,[sp,#0]
        0x000185c0:    201b        .       MOVS     r0,#0x1b
        0x000185c2:    f001f93b    ..;.    BL       am_hal_gpio_pinconfig ; 0x1983c
        0x000185c6:    6821        !h      LDR      r1,[r4,#0]
        0x000185c8:    9100        ..      STR      r1,[sp,#0]
        0x000185ca:    201a        .       MOVS     r0,#0x1a
        0x000185cc:    f001f936    ..6.    BL       am_hal_gpio_pinconfig ; 0x1983c
        0x000185d0:    6821        !h      LDR      r1,[r4,#0]
        0x000185d2:    9100        ..      STR      r1,[sp,#0]
        0x000185d4:    e8bd4038    ..8@    POP      {r3-r5,lr}
        0x000185d8:    2054        T       MOVS     r0,#0x54
        0x000185da:    f001b92f    ../.    B.W      am_hal_gpio_pinconfig ; 0x1983c
        0x000185de:    4c71        qL      LDR      r4,[pc,#452] ; [0x187a4] = 0x1d340
        0x000185e0:    6821        !h      LDR      r1,[r4,#0]
        0x000185e2:    9100        ..      STR      r1,[sp,#0]
        0x000185e4:    201f        .       MOVS     r0,#0x1f
        0x000185e6:    f001f929    ..).    BL       am_hal_gpio_pinconfig ; 0x1983c
        0x000185ea:    6821        !h      LDR      r1,[r4,#0]
        0x000185ec:    9100        ..      STR      r1,[sp,#0]
        0x000185ee:    2021        !       MOVS     r0,#0x21
        0x000185f0:    f001f924    ..$.    BL       am_hal_gpio_pinconfig ; 0x1983c
        0x000185f4:    6821        !h      LDR      r1,[r4,#0]
        0x000185f6:    9100        ..      STR      r1,[sp,#0]
        0x000185f8:    2020                MOVS     r0,#0x20
        0x000185fa:    f001f91f    ....    BL       am_hal_gpio_pinconfig ; 0x1983c
        0x000185fe:    6821        !h      LDR      r1,[r4,#0]
        0x00018600:    9100        ..      STR      r1,[sp,#0]
        0x00018602:    e8bd4038    ..8@    POP      {r3-r5,lr}
        0x00018606:    2055        U       MOVS     r0,#0x55
        0x00018608:    f001b918    ....    B.W      am_hal_gpio_pinconfig ; 0x1983c
        0x0001860c:    4c65        eL      LDR      r4,[pc,#404] ; [0x187a4] = 0x1d340
        0x0001860e:    6821        !h      LDR      r1,[r4,#0]
        0x00018610:    9100        ..      STR      r1,[sp,#0]
        0x00018612:    2022        "       MOVS     r0,#0x22
        0x00018614:    f001f912    ....    BL       am_hal_gpio_pinconfig ; 0x1983c
        0x00018618:    6821        !h      LDR      r1,[r4,#0]
        0x0001861a:    9100        ..      STR      r1,[sp,#0]
        0x0001861c:    2024        $       MOVS     r0,#0x24
        0x0001861e:    f001f90d    ....    BL       am_hal_gpio_pinconfig ; 0x1983c
        0x00018622:    6821        !h      LDR      r1,[r4,#0]
        0x00018624:    9100        ..      STR      r1,[sp,#0]
        0x00018626:    2023        #       MOVS     r0,#0x23
        0x00018628:    f001f908    ....    BL       am_hal_gpio_pinconfig ; 0x1983c
        0x0001862c:    6821        !h      LDR      r1,[r4,#0]
        0x0001862e:    9100        ..      STR      r1,[sp,#0]
        0x00018630:    e8bd4038    ..8@    POP      {r3-r5,lr}
        0x00018634:    202b        +       MOVS     r0,#0x2b
        0x00018636:    f001b901    ....    B.W      am_hal_gpio_pinconfig ; 0x1983c
        0x0001863a:    4c5a        ZL      LDR      r4,[pc,#360] ; [0x187a4] = 0x1d340
        0x0001863c:    6821        !h      LDR      r1,[r4,#0]
        0x0001863e:    9100        ..      STR      r1,[sp,#0]
        0x00018640:    202f        /       MOVS     r0,#0x2f
        0x00018642:    f001f8fb    ....    BL       am_hal_gpio_pinconfig ; 0x1983c
        0x00018646:    6821        !h      LDR      r1,[r4,#0]
        0x00018648:    9100        ..      STR      r1,[sp,#0]
        0x0001864a:    2031        1       MOVS     r0,#0x31
        0x0001864c:    f001f8f6    ....    BL       am_hal_gpio_pinconfig ; 0x1983c
        0x00018650:    6821        !h      LDR      r1,[r4,#0]
        0x00018652:    9100        ..      STR      r1,[sp,#0]
        0x00018654:    2030        0       MOVS     r0,#0x30
        0x00018656:    f001f8f1    ....    BL       am_hal_gpio_pinconfig ; 0x1983c
        0x0001865a:    6821        !h      LDR      r1,[r4,#0]
        0x0001865c:    9100        ..      STR      r1,[sp,#0]
        0x0001865e:    e8bd4038    ..8@    POP      {r3-r5,lr}
        0x00018662:    203c        <       MOVS     r0,#0x3c
        0x00018664:    f001b8ea    ....    B.W      am_hal_gpio_pinconfig ; 0x1983c
        0x00018668:    4c4e        NL      LDR      r4,[pc,#312] ; [0x187a4] = 0x1d340
        0x0001866a:    6821        !h      LDR      r1,[r4,#0]
        0x0001866c:    9100        ..      STR      r1,[sp,#0]
        0x0001866e:    203d        =       MOVS     r0,#0x3d
        0x00018670:    f001f8e4    ....    BL       am_hal_gpio_pinconfig ; 0x1983c
        0x00018674:    6821        !h      LDR      r1,[r4,#0]
        0x00018676:    9100        ..      STR      r1,[sp,#0]
        0x00018678:    203f        ?       MOVS     r0,#0x3f
        0x0001867a:    f001f8df    ....    BL       am_hal_gpio_pinconfig ; 0x1983c
        0x0001867e:    6821        !h      LDR      r1,[r4,#0]
        0x00018680:    9100        ..      STR      r1,[sp,#0]
        0x00018682:    203e        >       MOVS     r0,#0x3e
        0x00018684:    f001f8da    ....    BL       am_hal_gpio_pinconfig ; 0x1983c
        0x00018688:    6821        !h      LDR      r1,[r4,#0]
        0x0001868a:    9100        ..      STR      r1,[sp,#0]
        0x0001868c:    e8bd4038    ..8@    POP      {r3-r5,lr}
        0x00018690:    201e        .       MOVS     r0,#0x1e
        0x00018692:    f001b8d3    ....    B.W      am_hal_gpio_pinconfig ; 0x1983c
        0x00018696:    4c43        CL      LDR      r4,[pc,#268] ; [0x187a4] = 0x1d340
        0x00018698:    6821        !h      LDR      r1,[r4,#0]
        0x0001869a:    9100        ..      STR      r1,[sp,#0]
        0x0001869c:    2016        .       MOVS     r0,#0x16
        0x0001869e:    f001f8cd    ....    BL       am_hal_gpio_pinconfig ; 0x1983c
        0x000186a2:    6821        !h      LDR      r1,[r4,#0]
        0x000186a4:    9100        ..      STR      r1,[sp,#0]
        0x000186a6:    2018        .       MOVS     r0,#0x18
        0x000186a8:    f001f8c8    ....    BL       am_hal_gpio_pinconfig ; 0x1983c
        0x000186ac:    6821        !h      LDR      r1,[r4,#0]
        0x000186ae:    9100        ..      STR      r1,[sp,#0]
        0x000186b0:    2017        .       MOVS     r0,#0x17
        0x000186b2:    f001f8c3    ....    BL       am_hal_gpio_pinconfig ; 0x1983c
        0x000186b6:    6821        !h      LDR      r1,[r4,#0]
        0x000186b8:    9100        ..      STR      r1,[sp,#0]
        0x000186ba:    e8bd4038    ..8@    POP      {r3-r5,lr}
        0x000186be:    2058        X       MOVS     r0,#0x58
        0x000186c0:    f001b8bc    ....    B.W      am_hal_gpio_pinconfig ; 0x1983c
        0x000186c4:    4c37        7L      LDR      r4,[pc,#220] ; [0x187a4] = 0x1d340
        0x000186c6:    6821        !h      LDR      r1,[r4,#0]
        0x000186c8:    9100        ..      STR      r1,[sp,#0]
        0x000186ca:    2005        .       MOVS     r0,#5
        0x000186cc:    f001f8b6    ....    BL       am_hal_gpio_pinconfig ; 0x1983c
        0x000186d0:    6821        !h      LDR      r1,[r4,#0]
        0x000186d2:    9100        ..      STR      r1,[sp,#0]
        0x000186d4:    e8bd4038    ..8@    POP      {r3-r5,lr}
        0x000186d8:    2006        .       MOVS     r0,#6
        0x000186da:    f001b8af    ....    B.W      am_hal_gpio_pinconfig ; 0x1983c
        0x000186de:    4c31        1L      LDR      r4,[pc,#196] ; [0x187a4] = 0x1d340
        0x000186e0:    6821        !h      LDR      r1,[r4,#0]
        0x000186e2:    9100        ..      STR      r1,[sp,#0]
        0x000186e4:    2008        .       MOVS     r0,#8
        0x000186e6:    f001f8a9    ....    BL       am_hal_gpio_pinconfig ; 0x1983c
        0x000186ea:    6821        !h      LDR      r1,[r4,#0]
        0x000186ec:    9100        ..      STR      r1,[sp,#0]
        0x000186ee:    e8bd4038    ..8@    POP      {r3-r5,lr}
        0x000186f2:    2009        .       MOVS     r0,#9
        0x000186f4:    f001b8a2    ....    B.W      am_hal_gpio_pinconfig ; 0x1983c
        0x000186f8:    4c2a        *L      LDR      r4,[pc,#168] ; [0x187a4] = 0x1d340
        0x000186fa:    6821        !h      LDR      r1,[r4,#0]
        0x000186fc:    9100        ..      STR      r1,[sp,#0]
        0x000186fe:    2019        .       MOVS     r0,#0x19
        0x00018700:    f001f89c    ....    BL       am_hal_gpio_pinconfig ; 0x1983c
        0x00018704:    6821        !h      LDR      r1,[r4,#0]
        0x00018706:    9100        ..      STR      r1,[sp,#0]
        0x00018708:    e8bd4038    ..8@    POP      {r3-r5,lr}
        0x0001870c:    201a        .       MOVS     r0,#0x1a
        0x0001870e:    f001b895    ....    B.W      am_hal_gpio_pinconfig ; 0x1983c
        0x00018712:    4c24        $L      LDR      r4,[pc,#144] ; [0x187a4] = 0x1d340
        0x00018714:    6821        !h      LDR      r1,[r4,#0]
        0x00018716:    9100        ..      STR      r1,[sp,#0]
        0x00018718:    201f        .       MOVS     r0,#0x1f
        0x0001871a:    f001f88f    ....    BL       am_hal_gpio_pinconfig ; 0x1983c
        0x0001871e:    6821        !h      LDR      r1,[r4,#0]
        0x00018720:    9100        ..      STR      r1,[sp,#0]
        0x00018722:    2020                MOVS     r0,#0x20
        0x00018724:    e004        ..      B        0x18730 ; am_bsp_iom_pins_disable + 528
        0x00018726:    e02e        ..      B        0x18786 ; am_bsp_iom_pins_disable + 614
        0x00018728:    e020         .      B        0x1876c ; am_bsp_iom_pins_disable + 588
        0x0001872a:    e012        ..      B        0x18752 ; am_bsp_iom_pins_disable + 562
        0x0001872c:    e004        ..      B        0x18738 ; am_bsp_iom_pins_disable + 536
        0x0001872e:    e037        7.      B        0x187a0 ; am_bsp_iom_pins_disable + 640
        0x00018730:    e8bd4038    ..8@    POP      {r3-r5,lr}
        0x00018734:    f001b882    ....    B.W      am_hal_gpio_pinconfig ; 0x1983c
        0x00018738:    4c1a        .L      LDR      r4,[pc,#104] ; [0x187a4] = 0x1d340
        0x0001873a:    6821        !h      LDR      r1,[r4,#0]
        0x0001873c:    9100        ..      STR      r1,[sp,#0]
        0x0001873e:    2022        "       MOVS     r0,#0x22
        0x00018740:    f001f87c    ..|.    BL       am_hal_gpio_pinconfig ; 0x1983c
        0x00018744:    6821        !h      LDR      r1,[r4,#0]
        0x00018746:    9100        ..      STR      r1,[sp,#0]
        0x00018748:    e8bd4038    ..8@    POP      {r3-r5,lr}
        0x0001874c:    2023        #       MOVS     r0,#0x23
        0x0001874e:    f001b875    ..u.    B.W      am_hal_gpio_pinconfig ; 0x1983c
        0x00018752:    4c14        .L      LDR      r4,[pc,#80] ; [0x187a4] = 0x1d340
        0x00018754:    6821        !h      LDR      r1,[r4,#0]
        0x00018756:    9100        ..      STR      r1,[sp,#0]
        0x00018758:    202f        /       MOVS     r0,#0x2f
        0x0001875a:    f001f86f    ..o.    BL       am_hal_gpio_pinconfig ; 0x1983c
        0x0001875e:    6821        !h      LDR      r1,[r4,#0]
        0x00018760:    9100        ..      STR      r1,[sp,#0]
        0x00018762:    e8bd4038    ..8@    POP      {r3-r5,lr}
        0x00018766:    2030        0       MOVS     r0,#0x30
        0x00018768:    f001b868    ..h.    B.W      am_hal_gpio_pinconfig ; 0x1983c
        0x0001876c:    4c0d        .L      LDR      r4,[pc,#52] ; [0x187a4] = 0x1d340
        0x0001876e:    6821        !h      LDR      r1,[r4,#0]
        0x00018770:    9100        ..      STR      r1,[sp,#0]
        0x00018772:    203d        =       MOVS     r0,#0x3d
        0x00018774:    f001f862    ..b.    BL       am_hal_gpio_pinconfig ; 0x1983c
        0x00018778:    6821        !h      LDR      r1,[r4,#0]
        0x0001877a:    9100        ..      STR      r1,[sp,#0]
        0x0001877c:    e8bd4038    ..8@    POP      {r3-r5,lr}
        0x00018780:    203e        >       MOVS     r0,#0x3e
        0x00018782:    f001b85b    ..[.    B.W      am_hal_gpio_pinconfig ; 0x1983c
        0x00018786:    4c07        .L      LDR      r4,[pc,#28] ; [0x187a4] = 0x1d340
        0x00018788:    6821        !h      LDR      r1,[r4,#0]
        0x0001878a:    9100        ..      STR      r1,[sp,#0]
        0x0001878c:    2016        .       MOVS     r0,#0x16
        0x0001878e:    f001f855    ..U.    BL       am_hal_gpio_pinconfig ; 0x1983c
        0x00018792:    6821        !h      LDR      r1,[r4,#0]
        0x00018794:    9100        ..      STR      r1,[sp,#0]
        0x00018796:    e8bd4038    ..8@    POP      {r3-r5,lr}
        0x0001879a:    2017        .       MOVS     r0,#0x17
        0x0001879c:    f001b84e    ..N.    B.W      am_hal_gpio_pinconfig ; 0x1983c
        0x000187a0:    bd38        8.      POP      {r3-r5,pc}
    $d
        0x000187a2:    0000        ..      DCW    0
        0x000187a4:    0001d340    @...    DCD    119616
    $t
    i.am_bsp_iom_pins_enable
    am_bsp_iom_pins_enable
        0x000187a8:    2808        .(      CMP      r0,#8
        0x000187aa:    bf28        (.      IT       CS
        0x000187ac:    4770        pG      BXCS     lr
        0x000187ae:    b508        ..      PUSH     {r3,lr}
        0x000187b0:    ea410080    A...    ORR      r0,r1,r0,LSL #2
        0x000187b4:    281e        .(      CMP      r0,#0x1e
        0x000187b6:    bf28        (.      IT       CS
        0x000187b8:    bd08        ..      POPCS    {r3,pc}
        0x000187ba:    e8dff000    ....    TBB      [pc,r0]
    $d
        0x000187be:    df0f        ..      DCW    57103
        0x000187c0:    ed29fdfd    ..).    DCD    3978952189
        0x000187c4:    fc43fdfd    ..C.    DCD    4232314365
        0x000187c8:    fb5dfdfd    ..].    DCD    4217241085
        0x000187cc:    fa77fdfd    ..w.    DCD    4202167805
        0x000187d0:    f991fdfd    ....    DCD    4187094525
        0x000187d4:    f8abfdfd    ....    DCD    4172021245
        0x000187d8:    f7c5fdfd    ....    DCD    4156947965
    $t
        0x000187dc:    48a4        .H      LDR      r0,[pc,#656] ; [0x18a70] = 0x10000070
        0x000187de:    6801        .h      LDR      r1,[r0,#0]
        0x000187e0:    9100        ..      STR      r1,[sp,#0]
        0x000187e2:    2005        .       MOVS     r0,#5
        0x000187e4:    f001f82a    ..*.    BL       am_hal_gpio_pinconfig ; 0x1983c
        0x000187e8:    48a2        .H      LDR      r0,[pc,#648] ; [0x18a74] = 0x10000068
        0x000187ea:    6801        .h      LDR      r1,[r0,#0]
        0x000187ec:    9100        ..      STR      r1,[sp,#0]
        0x000187ee:    2007        .       MOVS     r0,#7
        0x000187f0:    f001f824    ..$.    BL       am_hal_gpio_pinconfig ; 0x1983c
        0x000187f4:    48a0        .H      LDR      r0,[pc,#640] ; [0x18a78] = 0x1000006c
        0x000187f6:    6801        .h      LDR      r1,[r0,#0]
        0x000187f8:    9100        ..      STR      r1,[sp,#0]
        0x000187fa:    2006        .       MOVS     r0,#6
        0x000187fc:    f001f81e    ....    BL       am_hal_gpio_pinconfig ; 0x1983c
        0x00018800:    489e        .H      LDR      r0,[pc,#632] ; [0x18a7c] = 0x10000064
        0x00018802:    6801        .h      LDR      r1,[r0,#0]
        0x00018804:    9100        ..      STR      r1,[sp,#0]
        0x00018806:    e8bd4008    ...@    POP      {r3,lr}
        0x0001880a:    2032        2       MOVS     r0,#0x32
        0x0001880c:    f001b816    ....    B.W      am_hal_gpio_pinconfig ; 0x1983c
        0x00018810:    489b        .H      LDR      r0,[pc,#620] ; [0x18a80] = 0x10000088
        0x00018812:    6801        .h      LDR      r1,[r0,#0]
        0x00018814:    9100        ..      STR      r1,[sp,#0]
        0x00018816:    2008        .       MOVS     r0,#8
        0x00018818:    f001f810    ....    BL       am_hal_gpio_pinconfig ; 0x1983c
        0x0001881c:    4899        .H      LDR      r0,[pc,#612] ; [0x18a84] = 0x10000080
        0x0001881e:    6801        .h      LDR      r1,[r0,#0]
        0x00018820:    9100        ..      STR      r1,[sp,#0]
        0x00018822:    200a        .       MOVS     r0,#0xa
        0x00018824:    f001f80a    ....    BL       am_hal_gpio_pinconfig ; 0x1983c
        0x00018828:    4897        .H      LDR      r0,[pc,#604] ; [0x18a88] = 0x10000084
        0x0001882a:    6801        .h      LDR      r1,[r0,#0]
        0x0001882c:    9100        ..      STR      r1,[sp,#0]
        0x0001882e:    2009        .       MOVS     r0,#9
        0x00018830:    f001f804    ....    BL       am_hal_gpio_pinconfig ; 0x1983c
        0x00018834:    4895        .H      LDR      r0,[pc,#596] ; [0x18a8c] = 0x1000007c
        0x00018836:    6801        .h      LDR      r1,[r0,#0]
        0x00018838:    9100        ..      STR      r1,[sp,#0]
        0x0001883a:    e8bd4008    ...@    POP      {r3,lr}
        0x0001883e:    2033        3       MOVS     r0,#0x33
        0x00018840:    f000bffc    ....    B.W      am_hal_gpio_pinconfig ; 0x1983c
        0x00018844:    4892        .H      LDR      r0,[pc,#584] ; [0x18a90] = 0x100000a0
        0x00018846:    6801        .h      LDR      r1,[r0,#0]
        0x00018848:    9100        ..      STR      r1,[sp,#0]
        0x0001884a:    2019        .       MOVS     r0,#0x19
        0x0001884c:    f000fff6    ....    BL       am_hal_gpio_pinconfig ; 0x1983c
        0x00018850:    4890        .H      LDR      r0,[pc,#576] ; [0x18a94] = 0x10000098
        0x00018852:    6801        .h      LDR      r1,[r0,#0]
        0x00018854:    9100        ..      STR      r1,[sp,#0]
        0x00018856:    201b        .       MOVS     r0,#0x1b
        0x00018858:    f000fff0    ....    BL       am_hal_gpio_pinconfig ; 0x1983c
        0x0001885c:    488e        .H      LDR      r0,[pc,#568] ; [0x18a98] = 0x1000009c
        0x0001885e:    6801        .h      LDR      r1,[r0,#0]
        0x00018860:    9100        ..      STR      r1,[sp,#0]
        0x00018862:    201a        .       MOVS     r0,#0x1a
        0x00018864:    f000ffea    ....    BL       am_hal_gpio_pinconfig ; 0x1983c
        0x00018868:    488c        .H      LDR      r0,[pc,#560] ; [0x18a9c] = 0x10000094
        0x0001886a:    6801        .h      LDR      r1,[r0,#0]
        0x0001886c:    9100        ..      STR      r1,[sp,#0]
        0x0001886e:    e8bd4008    ...@    POP      {r3,lr}
        0x00018872:    2054        T       MOVS     r0,#0x54
        0x00018874:    f000bfe2    ....    B.W      am_hal_gpio_pinconfig ; 0x1983c
        0x00018878:    4889        .H      LDR      r0,[pc,#548] ; [0x18aa0] = 0x100000b8
        0x0001887a:    6801        .h      LDR      r1,[r0,#0]
        0x0001887c:    9100        ..      STR      r1,[sp,#0]
        0x0001887e:    201f        .       MOVS     r0,#0x1f
        0x00018880:    f000ffdc    ....    BL       am_hal_gpio_pinconfig ; 0x1983c
        0x00018884:    4887        .H      LDR      r0,[pc,#540] ; [0x18aa4] = 0x100000b0
        0x00018886:    6801        .h      LDR      r1,[r0,#0]
        0x00018888:    9100        ..      STR      r1,[sp,#0]
        0x0001888a:    2021        !       MOVS     r0,#0x21
        0x0001888c:    f000ffd6    ....    BL       am_hal_gpio_pinconfig ; 0x1983c
        0x00018890:    4885        .H      LDR      r0,[pc,#532] ; [0x18aa8] = 0x100000b4
        0x00018892:    6801        .h      LDR      r1,[r0,#0]
        0x00018894:    9100        ..      STR      r1,[sp,#0]
        0x00018896:    2020                MOVS     r0,#0x20
        0x00018898:    f000ffd0    ....    BL       am_hal_gpio_pinconfig ; 0x1983c
        0x0001889c:    4883        .H      LDR      r0,[pc,#524] ; [0x18aac] = 0x100000ac
        0x0001889e:    6801        .h      LDR      r1,[r0,#0]
        0x000188a0:    9100        ..      STR      r1,[sp,#0]
        0x000188a2:    e8bd4008    ...@    POP      {r3,lr}
        0x000188a6:    2055        U       MOVS     r0,#0x55
        0x000188a8:    f000bfc8    ....    B.W      am_hal_gpio_pinconfig ; 0x1983c
        0x000188ac:    4880        .H      LDR      r0,[pc,#512] ; [0x18ab0] = 0x100000d0
        0x000188ae:    6801        .h      LDR      r1,[r0,#0]
        0x000188b0:    9100        ..      STR      r1,[sp,#0]
        0x000188b2:    2022        "       MOVS     r0,#0x22
        0x000188b4:    f000ffc2    ....    BL       am_hal_gpio_pinconfig ; 0x1983c
        0x000188b8:    487e        ~H      LDR      r0,[pc,#504] ; [0x18ab4] = 0x100000c8
        0x000188ba:    6801        .h      LDR      r1,[r0,#0]
        0x000188bc:    9100        ..      STR      r1,[sp,#0]
        0x000188be:    2024        $       MOVS     r0,#0x24
        0x000188c0:    f000ffbc    ....    BL       am_hal_gpio_pinconfig ; 0x1983c
        0x000188c4:    487c        |H      LDR      r0,[pc,#496] ; [0x18ab8] = 0x100000cc
        0x000188c6:    6801        .h      LDR      r1,[r0,#0]
        0x000188c8:    9100        ..      STR      r1,[sp,#0]
        0x000188ca:    2023        #       MOVS     r0,#0x23
        0x000188cc:    f000ffb6    ....    BL       am_hal_gpio_pinconfig ; 0x1983c
        0x000188d0:    487a        zH      LDR      r0,[pc,#488] ; [0x18abc] = 0x100000c4
        0x000188d2:    6801        .h      LDR      r1,[r0,#0]
        0x000188d4:    9100        ..      STR      r1,[sp,#0]
        0x000188d6:    e8bd4008    ...@    POP      {r3,lr}
        0x000188da:    202b        +       MOVS     r0,#0x2b
        0x000188dc:    f000bfae    ....    B.W      am_hal_gpio_pinconfig ; 0x1983c
        0x000188e0:    4877        wH      LDR      r0,[pc,#476] ; [0x18ac0] = 0x100000e8
        0x000188e2:    6801        .h      LDR      r1,[r0,#0]
        0x000188e4:    9100        ..      STR      r1,[sp,#0]
        0x000188e6:    202f        /       MOVS     r0,#0x2f
        0x000188e8:    f000ffa8    ....    BL       am_hal_gpio_pinconfig ; 0x1983c
        0x000188ec:    4875        uH      LDR      r0,[pc,#468] ; [0x18ac4] = 0x100000e0
        0x000188ee:    6801        .h      LDR      r1,[r0,#0]
        0x000188f0:    9100        ..      STR      r1,[sp,#0]
        0x000188f2:    2031        1       MOVS     r0,#0x31
        0x000188f4:    f000ffa2    ....    BL       am_hal_gpio_pinconfig ; 0x1983c
        0x000188f8:    4873        sH      LDR      r0,[pc,#460] ; [0x18ac8] = 0x100000e4
        0x000188fa:    6801        .h      LDR      r1,[r0,#0]
        0x000188fc:    9100        ..      STR      r1,[sp,#0]
        0x000188fe:    2030        0       MOVS     r0,#0x30
        0x00018900:    f000ff9c    ....    BL       am_hal_gpio_pinconfig ; 0x1983c
        0x00018904:    4871        qH      LDR      r0,[pc,#452] ; [0x18acc] = 0x100000dc
        0x00018906:    6801        .h      LDR      r1,[r0,#0]
        0x00018908:    9100        ..      STR      r1,[sp,#0]
        0x0001890a:    e8bd4008    ...@    POP      {r3,lr}
        0x0001890e:    203c        <       MOVS     r0,#0x3c
        0x00018910:    f000bf94    ....    B.W      am_hal_gpio_pinconfig ; 0x1983c
        0x00018914:    486e        nH      LDR      r0,[pc,#440] ; [0x18ad0] = 0x10000100
        0x00018916:    6801        .h      LDR      r1,[r0,#0]
        0x00018918:    9100        ..      STR      r1,[sp,#0]
        0x0001891a:    203d        =       MOVS     r0,#0x3d
        0x0001891c:    f000ff8e    ....    BL       am_hal_gpio_pinconfig ; 0x1983c
        0x00018920:    486c        lH      LDR      r0,[pc,#432] ; [0x18ad4] = 0x100000f8
        0x00018922:    6801        .h      LDR      r1,[r0,#0]
        0x00018924:    9100        ..      STR      r1,[sp,#0]
        0x00018926:    203f        ?       MOVS     r0,#0x3f
        0x00018928:    f000ff88    ....    BL       am_hal_gpio_pinconfig ; 0x1983c
        0x0001892c:    486a        jH      LDR      r0,[pc,#424] ; [0x18ad8] = 0x100000fc
        0x0001892e:    6801        .h      LDR      r1,[r0,#0]
        0x00018930:    9100        ..      STR      r1,[sp,#0]
        0x00018932:    203e        >       MOVS     r0,#0x3e
        0x00018934:    f000ff82    ....    BL       am_hal_gpio_pinconfig ; 0x1983c
        0x00018938:    4868        hH      LDR      r0,[pc,#416] ; [0x18adc] = 0x100000f4
        0x0001893a:    6801        .h      LDR      r1,[r0,#0]
        0x0001893c:    9100        ..      STR      r1,[sp,#0]
        0x0001893e:    e8bd4008    ...@    POP      {r3,lr}
        0x00018942:    201e        .       MOVS     r0,#0x1e
        0x00018944:    f000bf7a    ..z.    B.W      am_hal_gpio_pinconfig ; 0x1983c
        0x00018948:    4865        eH      LDR      r0,[pc,#404] ; [0x18ae0] = 0x10000118
        0x0001894a:    6801        .h      LDR      r1,[r0,#0]
        0x0001894c:    9100        ..      STR      r1,[sp,#0]
        0x0001894e:    2016        .       MOVS     r0,#0x16
        0x00018950:    f000ff74    ..t.    BL       am_hal_gpio_pinconfig ; 0x1983c
        0x00018954:    4863        cH      LDR      r0,[pc,#396] ; [0x18ae4] = 0x10000110
        0x00018956:    6801        .h      LDR      r1,[r0,#0]
        0x00018958:    9100        ..      STR      r1,[sp,#0]
        0x0001895a:    2018        .       MOVS     r0,#0x18
        0x0001895c:    f000ff6e    ..n.    BL       am_hal_gpio_pinconfig ; 0x1983c
        0x00018960:    4861        aH      LDR      r0,[pc,#388] ; [0x18ae8] = 0x10000114
        0x00018962:    6801        .h      LDR      r1,[r0,#0]
        0x00018964:    9100        ..      STR      r1,[sp,#0]
        0x00018966:    2017        .       MOVS     r0,#0x17
        0x00018968:    f000ff68    ..h.    BL       am_hal_gpio_pinconfig ; 0x1983c
        0x0001896c:    485f        _H      LDR      r0,[pc,#380] ; [0x18aec] = 0x1000010c
        0x0001896e:    6801        .h      LDR      r1,[r0,#0]
        0x00018970:    9100        ..      STR      r1,[sp,#0]
        0x00018972:    e8bd4008    ...@    POP      {r3,lr}
        0x00018976:    2058        X       MOVS     r0,#0x58
        0x00018978:    f000bf60    ..`.    B.W      am_hal_gpio_pinconfig ; 0x1983c
        0x0001897c:    485c        \H      LDR      r0,[pc,#368] ; [0x18af0] = 0x10000074
        0x0001897e:    6801        .h      LDR      r1,[r0,#0]
        0x00018980:    9100        ..      STR      r1,[sp,#0]
        0x00018982:    2005        .       MOVS     r0,#5
        0x00018984:    f000ff5a    ..Z.    BL       am_hal_gpio_pinconfig ; 0x1983c
        0x00018988:    485a        ZH      LDR      r0,[pc,#360] ; [0x18af4] = 0x10000078
        0x0001898a:    6801        .h      LDR      r1,[r0,#0]
        0x0001898c:    9100        ..      STR      r1,[sp,#0]
        0x0001898e:    e8bd4008    ...@    POP      {r3,lr}
        0x00018992:    2006        .       MOVS     r0,#6
        0x00018994:    f000bf52    ..R.    B.W      am_hal_gpio_pinconfig ; 0x1983c
        0x00018998:    4857        WH      LDR      r0,[pc,#348] ; [0x18af8] = 0x1000008c
        0x0001899a:    6801        .h      LDR      r1,[r0,#0]
        0x0001899c:    9100        ..      STR      r1,[sp,#0]
        0x0001899e:    2008        .       MOVS     r0,#8
        0x000189a0:    f000ff4c    ..L.    BL       am_hal_gpio_pinconfig ; 0x1983c
        0x000189a4:    4855        UH      LDR      r0,[pc,#340] ; [0x18afc] = 0x10000090
        0x000189a6:    6801        .h      LDR      r1,[r0,#0]
        0x000189a8:    9100        ..      STR      r1,[sp,#0]
        0x000189aa:    e006        ..      B        0x189ba ; am_bsp_iom_pins_enable + 530
        0x000189ac:    e050        P.      B        0x18a50 ; am_bsp_iom_pins_enable + 680
        0x000189ae:    e041        A.      B        0x18a34 ; am_bsp_iom_pins_enable + 652
        0x000189b0:    e032        2.      B        0x18a18 ; am_bsp_iom_pins_enable + 624
        0x000189b2:    e023        #.      B        0x189fc ; am_bsp_iom_pins_enable + 596
        0x000189b4:    e014        ..      B        0x189e0 ; am_bsp_iom_pins_enable + 568
        0x000189b6:    e005        ..      B        0x189c4 ; am_bsp_iom_pins_enable + 540
        0x000189b8:    e058        X.      B        0x18a6c ; am_bsp_iom_pins_enable + 708
        0x000189ba:    e8bd4008    ...@    POP      {r3,lr}
        0x000189be:    2009        .       MOVS     r0,#9
        0x000189c0:    f000bf3c    ..<.    B.W      am_hal_gpio_pinconfig ; 0x1983c
        0x000189c4:    484e        NH      LDR      r0,[pc,#312] ; [0x18b00] = 0x100000a4
        0x000189c6:    6801        .h      LDR      r1,[r0,#0]
        0x000189c8:    9100        ..      STR      r1,[sp,#0]
        0x000189ca:    2019        .       MOVS     r0,#0x19
        0x000189cc:    f000ff36    ..6.    BL       am_hal_gpio_pinconfig ; 0x1983c
        0x000189d0:    484c        LH      LDR      r0,[pc,#304] ; [0x18b04] = 0x100000a8
        0x000189d2:    6801        .h      LDR      r1,[r0,#0]
        0x000189d4:    9100        ..      STR      r1,[sp,#0]
        0x000189d6:    e8bd4008    ...@    POP      {r3,lr}
        0x000189da:    201a        .       MOVS     r0,#0x1a
        0x000189dc:    f000bf2e    ....    B.W      am_hal_gpio_pinconfig ; 0x1983c
        0x000189e0:    4849        IH      LDR      r0,[pc,#292] ; [0x18b08] = 0x100000bc
        0x000189e2:    6801        .h      LDR      r1,[r0,#0]
        0x000189e4:    9100        ..      STR      r1,[sp,#0]
        0x000189e6:    201f        .       MOVS     r0,#0x1f
        0x000189e8:    f000ff28    ..(.    BL       am_hal_gpio_pinconfig ; 0x1983c
        0x000189ec:    4847        GH      LDR      r0,[pc,#284] ; [0x18b0c] = 0x100000c0
        0x000189ee:    6801        .h      LDR      r1,[r0,#0]
        0x000189f0:    9100        ..      STR      r1,[sp,#0]
        0x000189f2:    e8bd4008    ...@    POP      {r3,lr}
        0x000189f6:    2020                MOVS     r0,#0x20
        0x000189f8:    f000bf20    .. .    B.W      am_hal_gpio_pinconfig ; 0x1983c
        0x000189fc:    4844        DH      LDR      r0,[pc,#272] ; [0x18b10] = 0x100000d4
        0x000189fe:    6801        .h      LDR      r1,[r0,#0]
        0x00018a00:    9100        ..      STR      r1,[sp,#0]
        0x00018a02:    2022        "       MOVS     r0,#0x22
        0x00018a04:    f000ff1a    ....    BL       am_hal_gpio_pinconfig ; 0x1983c
        0x00018a08:    4842        BH      LDR      r0,[pc,#264] ; [0x18b14] = 0x100000d8
        0x00018a0a:    6801        .h      LDR      r1,[r0,#0]
        0x00018a0c:    9100        ..      STR      r1,[sp,#0]
        0x00018a0e:    e8bd4008    ...@    POP      {r3,lr}
        0x00018a12:    2023        #       MOVS     r0,#0x23
        0x00018a14:    f000bf12    ....    B.W      am_hal_gpio_pinconfig ; 0x1983c
        0x00018a18:    483f        ?H      LDR      r0,[pc,#252] ; [0x18b18] = 0x100000ec
        0x00018a1a:    6801        .h      LDR      r1,[r0,#0]
        0x00018a1c:    9100        ..      STR      r1,[sp,#0]
        0x00018a1e:    202f        /       MOVS     r0,#0x2f
        0x00018a20:    f000ff0c    ....    BL       am_hal_gpio_pinconfig ; 0x1983c
        0x00018a24:    483d        =H      LDR      r0,[pc,#244] ; [0x18b1c] = 0x100000f0
        0x00018a26:    6801        .h      LDR      r1,[r0,#0]
        0x00018a28:    9100        ..      STR      r1,[sp,#0]
        0x00018a2a:    e8bd4008    ...@    POP      {r3,lr}
        0x00018a2e:    2030        0       MOVS     r0,#0x30
        0x00018a30:    f000bf04    ....    B.W      am_hal_gpio_pinconfig ; 0x1983c
        0x00018a34:    483a        :H      LDR      r0,[pc,#232] ; [0x18b20] = 0x10000104
        0x00018a36:    6801        .h      LDR      r1,[r0,#0]
        0x00018a38:    9100        ..      STR      r1,[sp,#0]
        0x00018a3a:    203d        =       MOVS     r0,#0x3d
        0x00018a3c:    f000fefe    ....    BL       am_hal_gpio_pinconfig ; 0x1983c
        0x00018a40:    4838        8H      LDR      r0,[pc,#224] ; [0x18b24] = 0x10000108
        0x00018a42:    6801        .h      LDR      r1,[r0,#0]
        0x00018a44:    9100        ..      STR      r1,[sp,#0]
        0x00018a46:    e8bd4008    ...@    POP      {r3,lr}
        0x00018a4a:    203e        >       MOVS     r0,#0x3e
        0x00018a4c:    f000bef6    ....    B.W      am_hal_gpio_pinconfig ; 0x1983c
        0x00018a50:    4835        5H      LDR      r0,[pc,#212] ; [0x18b28] = 0x1000011c
        0x00018a52:    6801        .h      LDR      r1,[r0,#0]
        0x00018a54:    9100        ..      STR      r1,[sp,#0]
        0x00018a56:    2016        .       MOVS     r0,#0x16
        0x00018a58:    f000fef0    ....    BL       am_hal_gpio_pinconfig ; 0x1983c
        0x00018a5c:    4833        3H      LDR      r0,[pc,#204] ; [0x18b2c] = 0x10000120
        0x00018a5e:    6801        .h      LDR      r1,[r0,#0]
        0x00018a60:    9100        ..      STR      r1,[sp,#0]
        0x00018a62:    e8bd4008    ...@    POP      {r3,lr}
        0x00018a66:    2017        .       MOVS     r0,#0x17
        0x00018a68:    f000bee8    ....    B.W      am_hal_gpio_pinconfig ; 0x1983c
        0x00018a6c:    bd08        ..      POP      {r3,pc}
    $d
        0x00018a6e:    0000        ..      DCW    0
        0x00018a70:    10000070    p...    DCD    268435568
        0x00018a74:    10000068    h...    DCD    268435560
        0x00018a78:    1000006c    l...    DCD    268435564
        0x00018a7c:    10000064    d...    DCD    268435556
        0x00018a80:    10000088    ....    DCD    268435592
        0x00018a84:    10000080    ....    DCD    268435584
        0x00018a88:    10000084    ....    DCD    268435588
        0x00018a8c:    1000007c    |...    DCD    268435580
        0x00018a90:    100000a0    ....    DCD    268435616
        0x00018a94:    10000098    ....    DCD    268435608
        0x00018a98:    1000009c    ....    DCD    268435612
        0x00018a9c:    10000094    ....    DCD    268435604
        0x00018aa0:    100000b8    ....    DCD    268435640
        0x00018aa4:    100000b0    ....    DCD    268435632
        0x00018aa8:    100000b4    ....    DCD    268435636
        0x00018aac:    100000ac    ....    DCD    268435628
        0x00018ab0:    100000d0    ....    DCD    268435664
        0x00018ab4:    100000c8    ....    DCD    268435656
        0x00018ab8:    100000cc    ....    DCD    268435660
        0x00018abc:    100000c4    ....    DCD    268435652
        0x00018ac0:    100000e8    ....    DCD    268435688
        0x00018ac4:    100000e0    ....    DCD    268435680
        0x00018ac8:    100000e4    ....    DCD    268435684
        0x00018acc:    100000dc    ....    DCD    268435676
        0x00018ad0:    10000100    ....    DCD    268435712
        0x00018ad4:    100000f8    ....    DCD    268435704
        0x00018ad8:    100000fc    ....    DCD    268435708
        0x00018adc:    100000f4    ....    DCD    268435700
        0x00018ae0:    10000118    ....    DCD    268435736
        0x00018ae4:    10000110    ....    DCD    268435728
        0x00018ae8:    10000114    ....    DCD    268435732
        0x00018aec:    1000010c    ....    DCD    268435724
        0x00018af0:    10000074    t...    DCD    268435572
        0x00018af4:    10000078    x...    DCD    268435576
        0x00018af8:    1000008c    ....    DCD    268435596
        0x00018afc:    10000090    ....    DCD    268435600
        0x00018b00:    100000a4    ....    DCD    268435620
        0x00018b04:    100000a8    ....    DCD    268435624
        0x00018b08:    100000bc    ....    DCD    268435644
        0x00018b0c:    100000c0    ....    DCD    268435648
        0x00018b10:    100000d4    ....    DCD    268435668
        0x00018b14:    100000d8    ....    DCD    268435672
        0x00018b18:    100000ec    ....    DCD    268435692
        0x00018b1c:    100000f0    ....    DCD    268435696
        0x00018b20:    10000104    ....    DCD    268435716
        0x00018b24:    10000108    ....    DCD    268435720
        0x00018b28:    1000011c    ....    DCD    268435740
        0x00018b2c:    10000120     ...    DCD    268435744
    $t
    i.am_bsp_itm_printf_enable
    am_bsp_itm_printf_enable
        0x00018b30:    4817        .H      LDR      r0,[pc,#92] ; [0x18b90] = 0x40021000
        0x00018b32:    b500        ..      PUSH     {lr}
        0x00018b34:    6880        .h      LDR      r0,[r0,#8]
        0x00018b36:    b083        ..      SUB      sp,sp,#0xc
        0x00018b38:    f4101f80    ....    TST      r0,#0x100000
        0x00018b3c:    d010        ..      BEQ      0x18b60 ; am_bsp_itm_printf_enable + 48
        0x00018b3e:    4815        .H      LDR      r0,[pc,#84] ; [0x18b94] = 0x400c0a7c
        0x00018b40:    6800        .h      LDR      r0,[r0,#0]
        0x00018b42:    f0100f01    ....    TST      r0,#1
        0x00018b46:    d00b        ..      BEQ      0x18b60 ; am_bsp_itm_printf_enable + 48
        0x00018b48:    4668        hF      MOV      r0,sp
        0x00018b4a:    f000fd21    ..!.    BL       am_hal_dcu_get ; 0x19590
        0x00018b4e:    9800        ..      LDR      r0,[sp,#0]
        0x00018b50:    f0100f10    ....    TST      r0,#0x10
        0x00018b54:    d108        ..      BNE      0x18b68 ; am_bsp_itm_printf_enable + 56
        0x00018b56:    2110        .!      MOVS     r1,#0x10
        0x00018b58:    2001        .       MOVS     r0,#1
        0x00018b5a:    f000fd61    ..a.    BL       am_hal_dcu_update ; 0x19620
        0x00018b5e:    b118        ..      CBZ      r0,0x18b68 ; am_bsp_itm_printf_enable + 56
        0x00018b60:    b003        ..      ADD      sp,sp,#0xc
        0x00018b62:    f04f30ff    O..0    MOV      r0,#0xffffffff
        0x00018b66:    bd00        ..      POP      {pc}
        0x00018b68:    490b        .I      LDR      r1,[pc,#44] ; [0x18b98] = 0x1000005c
        0x00018b6a:    2001        .       MOVS     r0,#1
        0x00018b6c:    7008        .p      STRB     r0,[r1,#0]
        0x00018b6e:    f002fa5d    ..].    BL       am_hal_itm_enable ; 0x1b02c
        0x00018b72:    480a        .H      LDR      r0,[pc,#40] ; [0x18b9c] = 0xf4240
        0x00018b74:    f002feb0    ....    BL       am_hal_tpiu_enable ; 0x1b8d8
        0x00018b78:    4809        .H      LDR      r0,[pc,#36] ; [0x18ba0] = 0x10000124
        0x00018b7a:    6801        .h      LDR      r1,[r0,#0]
        0x00018b7c:    9101        ..      STR      r1,[sp,#4]
        0x00018b7e:    201c        .       MOVS     r0,#0x1c
        0x00018b80:    f000fe5c    ..\.    BL       am_hal_gpio_pinconfig ; 0x1983c
        0x00018b84:    4807        .H      LDR      r0,[pc,#28] ; [0x18ba4] = 0x1b075
        0x00018b86:    f003f801    ....    BL       am_util_stdio_printf_init ; 0x1bb8c
        0x00018b8a:    b003        ..      ADD      sp,sp,#0xc
        0x00018b8c:    2000        .       MOVS     r0,#0
        0x00018b8e:    bd00        ..      POP      {pc}
    $d
        0x00018b90:    40021000    ...@    DCD    1073876992
        0x00018b94:    400c0a7c    |..@    DCD    1074530940
        0x00018b98:    1000005c    \...    DCD    268435548
        0x00018b9c:    000f4240    @B..    DCD    1000000
        0x00018ba0:    10000124    $...    DCD    268435748
        0x00018ba4:    0001b075    u...    DCD    110709
    $t
    i.am_bsp_low_power_init
    am_bsp_low_power_init
        0x00018ba8:    b510        ..      PUSH     {r4,lr}
        0x00018baa:    f002fb89    ....    BL       am_hal_pwrctrl_low_power_init ; 0x1b2c0
        0x00018bae:    2100        .!      MOVS     r1,#0
        0x00018bb0:    4608        .F      MOV      r0,r1
        0x00018bb2:    f002fac7    ....    BL       am_hal_pwrctrl_control ; 0x1b144
        0x00018bb6:    e8bd4010    ...@    POP      {r4,lr}
        0x00018bba:    f002bd41    ..A.    B.W      am_hal_rtc_osc_disable ; 0x1b640
        0x00018bbe:    0000        ..      MOVS     r0,r0
    i.am_ctimer_isr
    am_ctimer_isr
        0x00018bc0:    b510        ..      PUSH     {r4,lr}
        0x00018bc2:    2002        .       MOVS     r0,#2
        0x00018bc4:    f002fdfa    ....    BL       am_hal_timer_interrupt_clear ; 0x1b7bc
        0x00018bc8:    2000        .       MOVS     r0,#0
        0x00018bca:    f002fdb3    ....    BL       am_hal_timer_clear ; 0x1b734
        0x00018bce:    2001        .       MOVS     r0,#1
        0x00018bd0:    4901        .I      LDR      r1,[pc,#4] ; [0x18bd8] = 0x10000000
        0x00018bd2:    7008        .p      STRB     r0,[r1,#0]
        0x00018bd4:    bd10        ..      POP      {r4,pc}
    $d
        0x00018bd6:    0000        ..      DCW    0
        0x00018bd8:    10000000    ....    DCD    268435456
    $t
    i.am_devices_spipsram_command_read
    am_devices_spipsram_command_read
        0x00018bdc:    e92d4ff0    -..O    PUSH     {r4-r11,lr}
        0x00018be0:    b08f        ..      SUB      sp,sp,#0x3c
        0x00018be2:    4604        .F      MOV      r4,r0
        0x00018be4:    460e        .F      MOV      r6,r1
        0x00018be6:    4691        .F      MOV      r9,r2
        0x00018be8:    af18        ..      ADD      r7,sp,#0x60
        0x00018bea:    e8970d80    ....    LDM      r7,{r7,r8,r10,r11}
        0x00018bee:    4625        %F      MOV      r5,r4
        0x00018bf0:    f8cd900c    ....    STR      r9,[sp,#0xc]
        0x00018bf4:    e9cd7804    ...x    STRD     r7,r8,[sp,#0x10]
        0x00018bf8:    2001        .       MOVS     r0,#1
        0x00018bfa:    f88d001c    ....    STRB     r0,[sp,#0x1c]
        0x00018bfe:    f8cdb018    ....    STR      r11,[sp,#0x18]
        0x00018c02:    f8cda024    ..$.    STR      r10,[sp,#0x24]
        0x00018c06:    6868        hh      LDR      r0,[r5,#4]
        0x00018c08:    9002        ..      STR      r0,[sp,#8]
        0x00018c0a:    981c        ..      LDR      r0,[sp,#0x70]
        0x00018c0c:    f88d0028    ..(.    STRB     r0,[sp,#0x28]
        0x00018c10:    2000        .       MOVS     r0,#0
        0x00018c12:    f88d0029    ..).    STRB     r0,[sp,#0x29]
        0x00018c16:    900b        ..      STR      r0,[sp,#0x2c]
        0x00018c18:    900c        ..      STR      r0,[sp,#0x30]
        0x00018c1a:    9806        ..      LDR      r0,[sp,#0x18]
        0x00018c1c:    b910        ..      CBNZ     r0,0x18c24 ; am_devices_spipsram_command_read + 72
        0x00018c1e:    2000        .       MOVS     r0,#0
        0x00018c20:    f88d001c    ....    STRB     r0,[sp,#0x1c]
        0x00018c24:    b196        ..      CBZ      r6,0x18c4c ; am_devices_spipsram_command_read + 112
        0x00018c26:    2000        .       MOVS     r0,#0
        0x00018c28:    9001        ..      STR      r0,[sp,#4]
        0x00018c2a:    ab01        ..      ADD      r3,sp,#4
        0x00018c2c:    4a0c        .J      LDR      r2,[pc,#48] ; [0x18c60] = 0x1c831
        0x00018c2e:    a902        ..      ADD      r1,sp,#8
        0x00018c30:    68e8        .h      LDR      r0,[r5,#0xc]
        0x00018c32:    f001fd91    ....    BL       am_hal_iom_highprio_transfer ; 0x1a758
        0x00018c36:    b118        ..      CBZ      r0,0x18c40 ; am_devices_spipsram_command_read + 100
        0x00018c38:    2001        .       MOVS     r0,#1
        0x00018c3a:    b00f        ..      ADD      sp,sp,#0x3c
        0x00018c3c:    e8bd8ff0    ....    POP      {r4-r11,pc}
        0x00018c40:    bf00        ..      NOP      
        0x00018c42:    f89d0004    ....    LDRB     r0,[sp,#4]
        0x00018c46:    2800        .(      CMP      r0,#0
        0x00018c48:    d0fb        ..      BEQ      0x18c42 ; am_devices_spipsram_command_read + 102
        0x00018c4a:    e006        ..      B        0x18c5a ; am_devices_spipsram_command_read + 126
        0x00018c4c:    a902        ..      ADD      r1,sp,#8
        0x00018c4e:    68e8        .h      LDR      r0,[r5,#0xc]
        0x00018c50:    f000fe1e    ....    BL       am_hal_iom_blocking_transfer ; 0x19890
        0x00018c54:    b108        ..      CBZ      r0,0x18c5a ; am_devices_spipsram_command_read + 126
        0x00018c56:    2001        .       MOVS     r0,#1
        0x00018c58:    e7ef        ..      B        0x18c3a ; am_devices_spipsram_command_read + 94
        0x00018c5a:    2000        .       MOVS     r0,#0
        0x00018c5c:    e7ed        ..      B        0x18c3a ; am_devices_spipsram_command_read + 94
    $d
        0x00018c5e:    0000        ..      DCW    0
        0x00018c60:    0001c831    1...    DCD    116785
    $t
    i.am_devices_spipsram_command_write
    am_devices_spipsram_command_write
        0x00018c64:    e92d4ff0    -..O    PUSH     {r4-r11,lr}
        0x00018c68:    b08f        ..      SUB      sp,sp,#0x3c
        0x00018c6a:    4604        .F      MOV      r4,r0
        0x00018c6c:    460e        .F      MOV      r6,r1
        0x00018c6e:    4691        .F      MOV      r9,r2
        0x00018c70:    af18        ..      ADD      r7,sp,#0x60
        0x00018c72:    e8970d80    ....    LDM      r7,{r7,r8,r10,r11}
        0x00018c76:    4625        %F      MOV      r5,r4
        0x00018c78:    f8cd900c    ....    STR      r9,[sp,#0xc]
        0x00018c7c:    e9cd7804    ...x    STRD     r7,r8,[sp,#0x10]
        0x00018c80:    2000        .       MOVS     r0,#0
        0x00018c82:    f88d001c    ....    STRB     r0,[sp,#0x1c]
        0x00018c86:    f8cdb018    ....    STR      r11,[sp,#0x18]
        0x00018c8a:    f8cda020    .. .    STR      r10,[sp,#0x20]
        0x00018c8e:    6868        hh      LDR      r0,[r5,#4]
        0x00018c90:    9002        ..      STR      r0,[sp,#8]
        0x00018c92:    981c        ..      LDR      r0,[sp,#0x70]
        0x00018c94:    f88d0028    ..(.    STRB     r0,[sp,#0x28]
        0x00018c98:    2000        .       MOVS     r0,#0
        0x00018c9a:    f88d0029    ..).    STRB     r0,[sp,#0x29]
        0x00018c9e:    900b        ..      STR      r0,[sp,#0x2c]
        0x00018ca0:    900c        ..      STR      r0,[sp,#0x30]
        0x00018ca2:    b18e        ..      CBZ      r6,0x18cc8 ; am_devices_spipsram_command_write + 100
        0x00018ca4:    9001        ..      STR      r0,[sp,#4]
        0x00018ca6:    ab01        ..      ADD      r3,sp,#4
        0x00018ca8:    4a0c        .J      LDR      r2,[pc,#48] ; [0x18cdc] = 0x1c831
        0x00018caa:    a902        ..      ADD      r1,sp,#8
        0x00018cac:    68e8        .h      LDR      r0,[r5,#0xc]
        0x00018cae:    f001fd53    ..S.    BL       am_hal_iom_highprio_transfer ; 0x1a758
        0x00018cb2:    b118        ..      CBZ      r0,0x18cbc ; am_devices_spipsram_command_write + 88
        0x00018cb4:    2001        .       MOVS     r0,#1
        0x00018cb6:    b00f        ..      ADD      sp,sp,#0x3c
        0x00018cb8:    e8bd8ff0    ....    POP      {r4-r11,pc}
        0x00018cbc:    bf00        ..      NOP      
        0x00018cbe:    f89d0004    ....    LDRB     r0,[sp,#4]
        0x00018cc2:    2800        .(      CMP      r0,#0
        0x00018cc4:    d0fb        ..      BEQ      0x18cbe ; am_devices_spipsram_command_write + 90
        0x00018cc6:    e006        ..      B        0x18cd6 ; am_devices_spipsram_command_write + 114
        0x00018cc8:    a902        ..      ADD      r1,sp,#8
        0x00018cca:    68e8        .h      LDR      r0,[r5,#0xc]
        0x00018ccc:    f000fde0    ....    BL       am_hal_iom_blocking_transfer ; 0x19890
        0x00018cd0:    b108        ..      CBZ      r0,0x18cd6 ; am_devices_spipsram_command_write + 114
        0x00018cd2:    2001        .       MOVS     r0,#1
        0x00018cd4:    e7ef        ..      B        0x18cb6 ; am_devices_spipsram_command_write + 82
        0x00018cd6:    2000        .       MOVS     r0,#0
        0x00018cd8:    e7ed        ..      B        0x18cb6 ; am_devices_spipsram_command_write + 82
    $d
        0x00018cda:    0000        ..      DCW    0
        0x00018cdc:    0001c831    1...    DCD    116785
    $t
    i.am_devices_spipsram_init
    am_devices_spipsram_init
        0x00018ce0:    e92d47f0    -..G    PUSH     {r4-r10,lr}
        0x00018ce4:    b090        ..      SUB      sp,sp,#0x40
        0x00018ce6:    4605        .F      MOV      r5,r0
        0x00018ce8:    460e        .F      MOV      r6,r1
        0x00018cea:    4617        .F      MOV      r7,r2
        0x00018cec:    4698        .F      MOV      r8,r3
        0x00018cee:    2000        .       MOVS     r0,#0
        0x00018cf0:    900d        ..      STR      r0,[sp,#0x34]
        0x00018cf2:    900e        ..      STR      r0,[sp,#0x38]
        0x00018cf4:    4681        .F      MOV      r9,r0
        0x00018cf6:    4682        .F      MOV      r10,r0
        0x00018cf8:    2120         !      MOVS     r1,#0x20
        0x00018cfa:    4668        hF      MOV      r0,sp
        0x00018cfc:    f7fffb9c    ....    BL       __aeabi_memclr4 ; 0x18438
        0x00018d00:    2400        .$      MOVS     r4,#0
        0x00018d02:    bf00        ..      NOP      
        0x00018d04:    e008        ..      B        0x18d18 ; am_devices_spipsram_init + 56
        0x00018d06:    eb040084    ....    ADD      r0,r4,r4,LSL #2
        0x00018d0a:    495a        ZI      LDR      r1,[pc,#360] ; [0x18e74] = 0x10004348
        0x00018d0c:    eb010080    ....    ADD      r0,r1,r0,LSL #2
        0x00018d10:    7c00        .|      LDRB     r0,[r0,#0x10]
        0x00018d12:    b900        ..      CBNZ     r0,0x18d16 ; am_devices_spipsram_init + 54
        0x00018d14:    e002        ..      B        0x18d1c ; am_devices_spipsram_init + 60
        0x00018d16:    1c64        d.      ADDS     r4,r4,#1
        0x00018d18:    2c00        .,      CMP      r4,#0
        0x00018d1a:    d0f4        ..      BEQ      0x18d06 ; am_devices_spipsram_init + 38
        0x00018d1c:    bf00        ..      NOP      
        0x00018d1e:    2c01        .,      CMP      r4,#1
        0x00018d20:    d103        ..      BNE      0x18d2a ; am_devices_spipsram_init + 74
        0x00018d22:    2001        .       MOVS     r0,#1
        0x00018d24:    b010        ..      ADD      sp,sp,#0x40
        0x00018d26:    e8bd87f0    ....    POP      {r4-r10,pc}
        0x00018d2a:    2d08        .-      CMP      r5,#8
        0x00018d2c:    d800        ..      BHI      0x18d30 ; am_devices_spipsram_init + 80
        0x00018d2e:    b90e        ..      CBNZ     r6,0x18d34 ; am_devices_spipsram_init + 84
        0x00018d30:    2001        .       MOVS     r0,#1
        0x00018d32:    e7f7        ..      B        0x18d24 ; am_devices_spipsram_init + 68
        0x00018d34:    2214        ."      MOVS     r2,#0x14
        0x00018d36:    4950        PI      LDR      r1,[pc,#320] ; [0x18e78] = 0x1000003c
        0x00018d38:    a808        ..      ADD      r0,sp,#0x20
        0x00018d3a:    f7fffb4b    ..K.    BL       __aeabi_memcpy4 ; 0x183d4
        0x00018d3e:    68b0        .h      LDR      r0,[r6,#8]
        0x00018d40:    900c        ..      STR      r0,[sp,#0x30]
        0x00018d42:    6870        ph      LDR      r0,[r6,#4]
        0x00018d44:    900b        ..      STR      r0,[sp,#0x2c]
        0x00018d46:    6830        0h      LDR      r0,[r6,#0]
        0x00018d48:    9009        ..      STR      r0,[sp,#0x24]
        0x00018d4a:    2000        .       MOVS     r0,#0
        0x00018d4c:    eb040184    ....    ADD      r1,r4,r4,LSL #2
        0x00018d50:    4a48        HJ      LDR      r2,[pc,#288] ; [0x18e74] = 0x10004348
        0x00018d52:    eb020181    ....    ADD      r1,r2,r1,LSL #2
        0x00018d56:    6088        .`      STR      r0,[r1,#8]
        0x00018d58:    bf00        ..      NOP      
        0x00018d5a:    e011        ..      B        0x18d80 ; am_devices_spipsram_init + 160
        0x00018d5c:    4947        GI      LDR      r1,[pc,#284] ; [0x18e7c] = 0x1d130
        0x00018d5e:    f8511030    Q.0.    LDR      r1,[r1,r0,LSL #3]
        0x00018d62:    9a09        ..      LDR      r2,[sp,#0x24]
        0x00018d64:    4291        .B      CMP      r1,r2
        0x00018d66:    d10a        ..      BNE      0x18d7e ; am_devices_spipsram_init + 158
        0x00018d68:    4944        DI      LDR      r1,[pc,#272] ; [0x18e7c] = 0x1d130
        0x00018d6a:    eb0101c0    ....    ADD      r1,r1,r0,LSL #3
        0x00018d6e:    6849        Ih      LDR      r1,[r1,#4]
        0x00018d70:    eb040284    ....    ADD      r2,r4,r4,LSL #2
        0x00018d74:    4b3f        ?K      LDR      r3,[pc,#252] ; [0x18e74] = 0x10004348
        0x00018d76:    eb030282    ....    ADD      r2,r3,r2,LSL #2
        0x00018d7a:    6091        .`      STR      r1,[r2,#8]
        0x00018d7c:    e002        ..      B        0x18d84 ; am_devices_spipsram_init + 164
        0x00018d7e:    1c40        @.      ADDS     r0,r0,#1
        0x00018d80:    2805        .(      CMP      r0,#5
        0x00018d82:    d3eb        ..      BCC      0x18d5c ; am_devices_spipsram_init + 124
        0x00018d84:    bf00        ..      NOP      
        0x00018d86:    eb040084    ....    ADD      r0,r4,r4,LSL #2
        0x00018d8a:    493a        :I      LDR      r1,[pc,#232] ; [0x18e74] = 0x10004348
        0x00018d8c:    eb010080    ....    ADD      r0,r1,r0,LSL #2
        0x00018d90:    6880        .h      LDR      r0,[r0,#8]
        0x00018d92:    b908        ..      CBNZ     r0,0x18d98 ; am_devices_spipsram_init + 184
        0x00018d94:    2001        .       MOVS     r0,#1
        0x00018d96:    e7c5        ..      B        0x18d24 ; am_devices_spipsram_init + 68
        0x00018d98:    2100        .!      MOVS     r1,#0
        0x00018d9a:    4628        (F      MOV      r0,r5
        0x00018d9c:    f7fffd04    ....    BL       am_bsp_iom_pins_enable ; 0x187a8
        0x00018da0:    f000fd24    ..$.    BL       am_hal_fault_capture_enable ; 0x197ec
        0x00018da4:    a90f        ..      ADD      r1,sp,#0x3c
        0x00018da6:    4628        (F      MOV      r0,r5
        0x00018da8:    f001fd8a    ....    BL       am_hal_iom_initialize ; 0x1a8c0
        0x00018dac:    b9a0        ..      CBNZ     r0,0x18dd8 ; am_devices_spipsram_init + 248
        0x00018dae:    4834        4H      LDR      r0,[pc,#208] ; [0x18e80] = 0x10000034
        0x00018db0:    5d40        @]      LDRB     r0,[r0,r5]
        0x00018db2:    2801        .(      CMP      r0,#1
        0x00018db4:    d100        ..      BNE      0x18db8 ; am_devices_spipsram_init + 216
        0x00018db6:    e000        ..      B        0x18dba ; am_devices_spipsram_init + 218
        0x00018db8:    2000        .       MOVS     r0,#0
        0x00018dba:    4602        .F      MOV      r2,r0
        0x00018dbc:    2100        .!      MOVS     r1,#0
        0x00018dbe:    980f        ..      LDR      r0,[sp,#0x3c]
        0x00018dc0:    f001ff68    ..h.    BL       am_hal_iom_power_ctrl ; 0x1ac94
        0x00018dc4:    b940        @.      CBNZ     r0,0x18dd8 ; am_devices_spipsram_init + 248
        0x00018dc6:    a908        ..      ADD      r1,sp,#0x20
        0x00018dc8:    980f        ..      LDR      r0,[sp,#0x3c]
        0x00018dca:    f000fef7    ....    BL       am_hal_iom_configure ; 0x19bbc
        0x00018dce:    b918        ..      CBNZ     r0,0x18dd8 ; am_devices_spipsram_init + 248
        0x00018dd0:    980f        ..      LDR      r0,[sp,#0x3c]
        0x00018dd2:    f001fc41    ..A.    BL       am_hal_iom_enable ; 0x1a658
        0x00018dd6:    b108        ..      CBZ      r0,0x18ddc ; am_devices_spipsram_init + 252
        0x00018dd8:    2001        .       MOVS     r0,#1
        0x00018dda:    e7a3        ..      B        0x18d24 ; am_devices_spipsram_init + 68
        0x00018ddc:    2096        .       MOVS     r0,#0x96
        0x00018dde:    f002fe55    ..U.    BL       am_util_delay_us ; 0x1ba8c
        0x00018de2:    eb040084    ....    ADD      r0,r4,r4,LSL #2
        0x00018de6:    4923        #I      LDR      r1,[pc,#140] ; [0x18e74] = 0x10004348
        0x00018de8:    f8415020    A. P    STR      r5,[r1,r0,LSL #2]
        0x00018dec:    f85d0025    ].%.    LDR      r0,[sp,r5,LSL #2]
        0x00018df0:    eb040184    ....    ADD      r1,r4,r4,LSL #2
        0x00018df4:    4a1f        .J      LDR      r2,[pc,#124] ; [0x18e74] = 0x10004348
        0x00018df6:    eb020181    ....    ADD      r1,r2,r1,LSL #2
        0x00018dfa:    6048        H`      STR      r0,[r1,#4]
        0x00018dfc:    eb040184    ....    ADD      r1,r4,r4,LSL #2
        0x00018e00:    eb020181    ....    ADD      r1,r2,r1,LSL #2
        0x00018e04:    980f        ..      LDR      r0,[sp,#0x3c]
        0x00018e06:    60c8        .`      STR      r0,[r1,#0xc]
        0x00018e08:    f8c80000    ....    STR      r0,[r8,#0]
        0x00018e0c:    eb040084    ....    ADD      r0,r4,r4,LSL #2
        0x00018e10:    4611        .F      MOV      r1,r2
        0x00018e12:    eb010080    ....    ADD      r0,r1,r0,LSL #2
        0x00018e16:    6038        8`      STR      r0,[r7,#0]
        0x00018e18:    eb040184    ....    ADD      r1,r4,r4,LSL #2
        0x00018e1c:    eb020081    ....    ADD      r0,r2,r1,LSL #2
        0x00018e20:    f000f885    ....    BL       am_devices_spipsram_reset ; 0x18f2e
        0x00018e24:    b108        ..      CBZ      r0,0x18e2a ; am_devices_spipsram_init + 330
        0x00018e26:    2001        .       MOVS     r0,#1
        0x00018e28:    e77c        |.      B        0x18d24 ; am_devices_spipsram_init + 68
        0x00018e2a:    eb040184    ....    ADD      r1,r4,r4,LSL #2
        0x00018e2e:    4a11        .J      LDR      r2,[pc,#68] ; [0x18e74] = 0x10004348
        0x00018e30:    eb020081    ....    ADD      r0,r2,r1,LSL #2
        0x00018e34:    a90d        ..      ADD      r1,sp,#0x34
        0x00018e36:    f000f863    ..c.    BL       am_devices_spipsram_read_id ; 0x18f00
        0x00018e3a:    4682        .F      MOV      r10,r0
        0x00018e3c:    980d        ..      LDR      r0,[sp,#0x34]
        0x00018e3e:    0e00        ..      LSRS     r0,r0,#24
        0x00018e40:    990e        ..      LDR      r1,[sp,#0x38]
        0x00018e42:    b2c9        ..      UXTB     r1,r1
        0x00018e44:    ea402901    @..)    ORR      r9,r0,r1,LSL #8
        0x00018e48:    f645500d    E..P    MOV      r0,#0x5d0d
        0x00018e4c:    4581        .E      CMP      r9,r0
        0x00018e4e:    d10e        ..      BNE      0x18e6e ; am_devices_spipsram_init + 398
        0x00018e50:    f1ba0f00    ....    CMP      r10,#0
        0x00018e54:    d10b        ..      BNE      0x18e6e ; am_devices_spipsram_init + 398
        0x00018e56:    2001        .       MOVS     r0,#1
        0x00018e58:    eb040184    ....    ADD      r1,r4,r4,LSL #2
        0x00018e5c:    4a05        .J      LDR      r2,[pc,#20] ; [0x18e74] = 0x10004348
        0x00018e5e:    eb020181    ....    ADD      r1,r2,r1,LSL #2
        0x00018e62:    7408        .t      STRB     r0,[r1,#0x10]
        0x00018e64:    4628        (F      MOV      r0,r5
        0x00018e66:    f003fb57    ..W.    BL       iom_init_cq_element ; 0x1c518
        0x00018e6a:    2000        .       MOVS     r0,#0
        0x00018e6c:    e75a        Z.      B        0x18d24 ; am_devices_spipsram_init + 68
        0x00018e6e:    2001        .       MOVS     r0,#1
        0x00018e70:    e758        X.      B        0x18d24 ; am_devices_spipsram_init + 68
    $d
        0x00018e72:    0000        ..      DCW    0
        0x00018e74:    10004348    HC..    DCD    268452680
        0x00018e78:    1000003c    <...    DCD    268435516
        0x00018e7c:    0001d130    0...    DCD    119088
        0x00018e80:    10000034    4...    DCD    268435508
    $t
    i.am_devices_spipsram_nonblocking_read
    am_devices_spipsram_nonblocking_read
        0x00018e84:    e92d47f0    -..G    PUSH     {r4-r10,lr}
        0x00018e88:    b086        ..      SUB      sp,sp,#0x18
        0x00018e8a:    4607        .F      MOV      r7,r0
        0x00018e8c:    460c        .F      MOV      r4,r1
        0x00018e8e:    4615        .F      MOV      r5,r2
        0x00018e90:    461e        .F      MOV      r6,r3
        0x00018e92:    e9dd8a0e    ....    LDRD     r8,r10,[sp,#0x38]
        0x00018e96:    2000        .       MOVS     r0,#0
        0x00018e98:    9001        ..      STR      r0,[sp,#4]
        0x00018e9a:    462b        +F      MOV      r3,r5
        0x00018e9c:    4622        "F      MOV      r2,r4
        0x00018e9e:    4601        .F      MOV      r1,r0
        0x00018ea0:    e9cd8a03    ....    STRD     r8,r10,[sp,#0xc]
        0x00018ea4:    9600        ..      STR      r6,[sp,#0]
        0x00018ea6:    9002        ..      STR      r0,[sp,#8]
        0x00018ea8:    4638        8F      MOV      r0,r7
        0x00018eaa:    f003fe19    ....    BL       spi_psram_nonblocking_transfer ; 0x1cae0
        0x00018eae:    4681        .F      MOV      r9,r0
        0x00018eb0:    f1b90f00    ....    CMP      r9,#0
        0x00018eb4:    d003        ..      BEQ      0x18ebe ; am_devices_spipsram_nonblocking_read + 58
        0x00018eb6:    2001        .       MOVS     r0,#1
        0x00018eb8:    b006        ..      ADD      sp,sp,#0x18
        0x00018eba:    e8bd87f0    ....    POP      {r4-r10,pc}
        0x00018ebe:    2000        .       MOVS     r0,#0
        0x00018ec0:    e7fa        ..      B        0x18eb8 ; am_devices_spipsram_nonblocking_read + 52
    i.am_devices_spipsram_nonblocking_write
    am_devices_spipsram_nonblocking_write
        0x00018ec2:    e92d47f0    -..G    PUSH     {r4-r10,lr}
        0x00018ec6:    b086        ..      SUB      sp,sp,#0x18
        0x00018ec8:    4607        .F      MOV      r7,r0
        0x00018eca:    460c        .F      MOV      r4,r1
        0x00018ecc:    4615        .F      MOV      r5,r2
        0x00018ece:    461e        .F      MOV      r6,r3
        0x00018ed0:    e9dd8a0e    ....    LDRD     r8,r10,[sp,#0x38]
        0x00018ed4:    2000        .       MOVS     r0,#0
        0x00018ed6:    9001        ..      STR      r0,[sp,#4]
        0x00018ed8:    462b        +F      MOV      r3,r5
        0x00018eda:    4622        "F      MOV      r2,r4
        0x00018edc:    2101        .!      MOVS     r1,#1
        0x00018ede:    e9cd8a03    ....    STRD     r8,r10,[sp,#0xc]
        0x00018ee2:    9600        ..      STR      r6,[sp,#0]
        0x00018ee4:    9002        ..      STR      r0,[sp,#8]
        0x00018ee6:    4638        8F      MOV      r0,r7
        0x00018ee8:    f003fdfa    ....    BL       spi_psram_nonblocking_transfer ; 0x1cae0
        0x00018eec:    4681        .F      MOV      r9,r0
        0x00018eee:    f1b90f00    ....    CMP      r9,#0
        0x00018ef2:    d003        ..      BEQ      0x18efc ; am_devices_spipsram_nonblocking_write + 58
        0x00018ef4:    2001        .       MOVS     r0,#1
        0x00018ef6:    b006        ..      ADD      sp,sp,#0x18
        0x00018ef8:    e8bd87f0    ....    POP      {r4-r10,pc}
        0x00018efc:    2000        .       MOVS     r0,#0
        0x00018efe:    e7fa        ..      B        0x18ef6 ; am_devices_spipsram_nonblocking_write + 52
    i.am_devices_spipsram_read_id
    am_devices_spipsram_read_id
        0x00018f00:    b530        0.      PUSH     {r4,r5,lr}
        0x00018f02:    b085        ..      SUB      sp,sp,#0x14
        0x00018f04:    4605        .F      MOV      r5,r0
        0x00018f06:    460c        .F      MOV      r4,r1
        0x00018f08:    2000        .       MOVS     r0,#0
        0x00018f0a:    2105        .!      MOVS     r1,#5
        0x00018f0c:    e9cd4102    ...A    STRD     r4,r1,[sp,#8]
        0x00018f10:    9004        ..      STR      r0,[sp,#0x10]
        0x00018f12:    219f        .!      MOVS     r1,#0x9f
        0x00018f14:    2201        ."      MOVS     r2,#1
        0x00018f16:    e9cd1000    ....    STRD     r1,r0,[sp,#0]
        0x00018f1a:    4601        .F      MOV      r1,r0
        0x00018f1c:    4628        (F      MOV      r0,r5
        0x00018f1e:    f7fffe5d    ..].    BL       am_devices_spipsram_command_read ; 0x18bdc
        0x00018f22:    b110        ..      CBZ      r0,0x18f2a ; am_devices_spipsram_read_id + 42
        0x00018f24:    2001        .       MOVS     r0,#1
        0x00018f26:    b005        ..      ADD      sp,sp,#0x14
        0x00018f28:    bd30        0.      POP      {r4,r5,pc}
        0x00018f2a:    2000        .       MOVS     r0,#0
        0x00018f2c:    e7fb        ..      B        0x18f26 ; am_devices_spipsram_read_id + 38
    i.am_devices_spipsram_reset
    am_devices_spipsram_reset
        0x00018f2e:    b510        ..      PUSH     {r4,lr}
        0x00018f30:    b086        ..      SUB      sp,sp,#0x18
        0x00018f32:    4604        .F      MOV      r4,r0
        0x00018f34:    2000        .       MOVS     r0,#0
        0x00018f36:    aa05        ..      ADD      r2,sp,#0x14
        0x00018f38:    e9cd2002    ...     STRD     r2,r0,[sp,#8]
        0x00018f3c:    2166        f!      MOVS     r1,#0x66
        0x00018f3e:    9004        ..      STR      r0,[sp,#0x10]
        0x00018f40:    2201        ."      MOVS     r2,#1
        0x00018f42:    e9cd1000    ....    STRD     r1,r0,[sp,#0]
        0x00018f46:    4601        .F      MOV      r1,r0
        0x00018f48:    4620         F      MOV      r0,r4
        0x00018f4a:    f7fffe8b    ....    BL       am_devices_spipsram_command_write ; 0x18c64
        0x00018f4e:    b110        ..      CBZ      r0,0x18f56 ; am_devices_spipsram_reset + 40
        0x00018f50:    2001        .       MOVS     r0,#1
        0x00018f52:    b006        ..      ADD      sp,sp,#0x18
        0x00018f54:    bd10        ..      POP      {r4,pc}
        0x00018f56:    2000        .       MOVS     r0,#0
        0x00018f58:    aa05        ..      ADD      r2,sp,#0x14
        0x00018f5a:    e9cd2002    ...     STRD     r2,r0,[sp,#8]
        0x00018f5e:    9004        ..      STR      r0,[sp,#0x10]
        0x00018f60:    2099        .       MOVS     r0,#0x99
        0x00018f62:    2100        .!      MOVS     r1,#0
        0x00018f64:    2201        ."      MOVS     r2,#1
        0x00018f66:    e9cd0100    ....    STRD     r0,r1,[sp,#0]
        0x00018f6a:    4620         F      MOV      r0,r4
        0x00018f6c:    f7fffe7a    ..z.    BL       am_devices_spipsram_command_write ; 0x18c64
        0x00018f70:    b108        ..      CBZ      r0,0x18f76 ; am_devices_spipsram_reset + 72
        0x00018f72:    2001        .       MOVS     r0,#1
        0x00018f74:    e7ed        ..      B        0x18f52 ; am_devices_spipsram_reset + 36
        0x00018f76:    2000        .       MOVS     r0,#0
        0x00018f78:    e7eb        ..      B        0x18f52 ; am_devices_spipsram_reset + 36
        0x00018f7a:    0000        ..      MOVS     r0,r0
    i.am_devices_spipsram_term
    am_devices_spipsram_term
        0x00018f7c:    b570        p.      PUSH     {r4-r6,lr}
        0x00018f7e:    4605        .F      MOV      r5,r0
        0x00018f80:    462c        ,F      MOV      r4,r5
        0x00018f82:    6820         h      LDR      r0,[r4,#0]
        0x00018f84:    2808        .(      CMP      r0,#8
        0x00018f86:    d901        ..      BLS      0x18f8c ; am_devices_spipsram_term + 16
        0x00018f88:    2001        .       MOVS     r0,#1
        0x00018f8a:    bd70        p.      POP      {r4-r6,pc}
        0x00018f8c:    2100        .!      MOVS     r1,#0
        0x00018f8e:    6820         h      LDR      r0,[r4,#0]
        0x00018f90:    f7fffac6    ....    BL       am_bsp_iom_pins_disable ; 0x18520
        0x00018f94:    68e0        .h      LDR      r0,[r4,#0xc]
        0x00018f96:    f001fb1d    ....    BL       am_hal_iom_disable ; 0x1a5d4
        0x00018f9a:    2201        ."      MOVS     r2,#1
        0x00018f9c:    2102        .!      MOVS     r1,#2
        0x00018f9e:    68e0        .h      LDR      r0,[r4,#0xc]
        0x00018fa0:    f001fe78    ..x.    BL       am_hal_iom_power_ctrl ; 0x1ac94
        0x00018fa4:    2001        .       MOVS     r0,#1
        0x00018fa6:    4a05        .J      LDR      r2,[pc,#20] ; [0x18fbc] = 0x10000034
        0x00018fa8:    6821        !h      LDR      r1,[r4,#0]
        0x00018faa:    5450        PT      STRB     r0,[r2,r1]
        0x00018fac:    68e0        .h      LDR      r0,[r4,#0xc]
        0x00018fae:    f001fff7    ....    BL       am_hal_iom_uninitialize ; 0x1afa0
        0x00018fb2:    2000        .       MOVS     r0,#0
        0x00018fb4:    7420         t      STRB     r0,[r4,#0x10]
        0x00018fb6:    bf00        ..      NOP      
        0x00018fb8:    e7e7        ..      B        0x18f8a ; am_devices_spipsram_term + 14
    $d
        0x00018fba:    0000        ..      DCW    0
        0x00018fbc:    10000034    4...    DCD    268435508
    $t
    i.am_hal_cachectrl_config
    am_hal_cachectrl_config
        0x00018fc0:    b538        8.      PUSH     {r3-r5,lr}
        0x00018fc2:    4604        .F      MOV      r4,r0
        0x00018fc4:    f7fff9cc    ....    BL       am_hal_interrupt_master_disable ; 0x18360
        0x00018fc8:    f04f4590    O..E    MOV      r5,#0x48000000
        0x00018fcc:    9000        ..      STR      r0,[sp,#0]
        0x00018fce:    6828        (h      LDR      r0,[r5,#0]
        0x00018fd0:    f4207040     .@p    BIC      r0,r0,#0x300
        0x00018fd4:    6028        (`      STR      r0,[r5,#0]
        0x00018fd6:    9800        ..      LDR      r0,[sp,#0]
        0x00018fd8:    f7fff9c6    ....    BL       am_hal_interrupt_master_set ; 0x18368
        0x00018fdc:    78a0        .x      LDRB     r0,[r4,#2]
        0x00018fde:    2102        .!      MOVS     r1,#2
        0x00018fe0:    ea010040    ..@.    AND      r0,r1,r0,LSL #1
        0x00018fe4:    7821        !x      LDRB     r1,[r4,#0]
        0x00018fe6:    22f0        ."      MOVS     r2,#0xf0
        0x00018fe8:    ea021101    ....    AND      r1,r2,r1,LSL #4
        0x00018fec:    4308        .C      ORRS     r0,r0,r1
        0x00018fee:    7861        ax      LDRB     r1,[r4,#1]
        0x00018ff0:    f44f7240    O.@r    MOV      r2,#0x300
        0x00018ff4:    ea022101    ...!    AND      r1,r2,r1,LSL #8
        0x00018ff8:    4308        .C      ORRS     r0,r0,r1
        0x00018ffa:    f4406080    @..`    ORR      r0,r0,#0x400
        0x00018ffe:    f4401080    @...    ORR      r0,r0,#0x100000
        0x00019002:    6028        (`      STR      r0,[r5,#0]
        0x00019004:    2000        .       MOVS     r0,#0
        0x00019006:    bd38        8.      POP      {r3-r5,pc}
    i.am_hal_cachectrl_enable
    am_hal_cachectrl_enable
        0x00019008:    f04f4090    O..@    MOV      r0,#0x48000000
        0x0001900c:    6801        .h      LDR      r1,[r0,#0]
        0x0001900e:    f0410101    A...    ORR      r1,r1,#1
        0x00019012:    6001        .`      STR      r1,[r0,#0]
        0x00019014:    6881        .h      LDR      r1,[r0,#8]
        0x00019016:    f0410101    A...    ORR      r1,r1,#1
        0x0001901a:    6081        .`      STR      r1,[r0,#8]
        0x0001901c:    2000        .       MOVS     r0,#0
        0x0001901e:    4770        pG      BX       lr
    i.am_hal_cmdq_alloc_block
    am_hal_cmdq_alloc_block
        0x00019020:    b5f8        ..      PUSH     {r3-r7,lr}
        0x00019022:    461e        .F      MOV      r6,r3
        0x00019024:    4617        .F      MOV      r7,r2
        0x00019026:    460d        .F      MOV      r5,r1
        0x00019028:    1e04        ..      SUBS     r4,r0,#0
        0x0001902a:    bf1c        ..      ITT      NE
        0x0001902c:    6820         h      LDRNE    r0,[r4,#0]
        0x0001902e:    f0107f80    ....    TSTNE    r0,#0x1000000
        0x00019032:    d004        ..      BEQ      0x1903e ; am_hal_cmdq_alloc_block + 30
        0x00019034:    492c        ,I      LDR      r1,[pc,#176] ; [0x190e8] = 0xcdcdcd
        0x00019036:    f020407f     ..@    BIC      r0,r0,#0xff000000
        0x0001903a:    4288        .B      CMP      r0,r1
        0x0001903c:    d001        ..      BEQ      0x19042 ; am_hal_cmdq_alloc_block + 34
        0x0001903e:    2002        .       MOVS     r0,#2
        0x00019040:    bdf8        ..      POP      {r3-r7,pc}
        0x00019042:    2f00        ./      CMP      r7,#0
        0x00019044:    bf12        ..      ITEE     NE
        0x00019046:    2e00        ..      CMPNE    r6,#0
        0x00019048:    2006        .       MOVEQ    r0,#6
        0x0001904a:    bdf8        ..      POPEQ    {r3-r7,pc}
        0x0001904c:    e9d40104    ....    LDRD     r0,r1,[r4,#0x10]
        0x00019050:    4288        .B      CMP      r0,r1
        0x00019052:    bf1c        ..      ITT      NE
        0x00019054:    2007        .       MOVNE    r0,#7
        0x00019056:    bdf8        ..      POPNE    {r3-r7,pc}
        0x00019058:    f7fff982    ....    BL       am_hal_interrupt_master_disable ; 0x18360
        0x0001905c:    9000        ..      STR      r0,[sp,#0]
        0x0001905e:    6a60        `j      LDR      r0,[r4,#0x24]
        0x00019060:    6880        .h      LDR      r0,[r0,#8]
        0x00019062:    6800        .h      LDR      r0,[r0,#0]
        0x00019064:    6a21        !j      LDR      r1,[r4,#0x20]
        0x00019066:    b2c0        ..      UXTB     r0,r0
        0x00019068:    f02101ff    !...    BIC      r1,r1,#0xff
        0x0001906c:    4308        .C      ORRS     r0,r0,r1
        0x0001906e:    61e0        .a      STR      r0,[r4,#0x1c]
        0x00019070:    6a21        !j      LDR      r1,[r4,#0x20]
        0x00019072:    1a09        ..      SUBS     r1,r1,r0
        0x00019074:    bf44        D.      ITT      MI
        0x00019076:    f5a07080    ...p    SUBMI    r0,r0,#0x100
        0x0001907a:    61e0        .a      STRMI    r0,[r4,#0x1c]
        0x0001907c:    6a60        `j      LDR      r0,[r4,#0x24]
        0x0001907e:    6840        @h      LDR      r0,[r0,#4]
        0x00019080:    6800        .h      LDR      r0,[r0,#0]
        0x00019082:    60e0        .`      STR      r0,[r4,#0xc]
        0x00019084:    9800        ..      LDR      r0,[sp,#0]
        0x00019086:    f7fff96f    ..o.    BL       am_hal_interrupt_master_set ; 0x18368
        0x0001908a:    e9d40107    ....    LDRD     r0,r1,[r4,#0x1c]
        0x0001908e:    1a40        @.      SUBS     r0,r0,r1
        0x00019090:    f1100ffe    ....    CMN      r0,#0xfe
        0x00019094:    d41c        ..      BMI      0x190d0 ; am_hal_cmdq_alloc_block + 176
        0x00019096:    e9d42003    ...     LDRD     r2,r0,[r4,#0xc]
        0x0001909a:    2108        .!      MOVS     r1,#8
        0x0001909c:    eb0101c5    ....    ADD      r1,r1,r5,LSL #3
        0x000190a0:    4290        .B      CMP      r0,r2
        0x000190a2:    d312        ..      BCC      0x190ca ; am_hal_cmdq_alloc_block + 170
        0x000190a4:    2310        .#      MOVS     r3,#0x10
        0x000190a6:    eb0303c5    ....    ADD      r3,r3,r5,LSL #3
        0x000190aa:    f8d4c008    ....    LDR      r12,[r4,#8]
        0x000190ae:    4403        .D      ADD      r3,r3,r0
        0x000190b0:    4563        cE      CMP      r3,r12
        0x000190b2:    d90f        ..      BLS      0x190d4 ; am_hal_cmdq_alloc_block + 180
        0x000190b4:    6863        ch      LDR      r3,[r4,#4]
        0x000190b6:    4419        .D      ADD      r1,r1,r3
        0x000190b8:    428a        .B      CMP      r2,r1
        0x000190ba:    d909        ..      BLS      0x190d0 ; am_hal_cmdq_alloc_block + 176
        0x000190bc:    6a61        aj      LDR      r1,[r4,#0x24]
        0x000190be:    6849        Ih      LDR      r1,[r1,#4]
        0x000190c0:    6001        .`      STR      r1,[r0,#0]
        0x000190c2:    6861        ah      LDR      r1,[r4,#4]
        0x000190c4:    6041        A`      STR      r1,[r0,#4]
        0x000190c6:    6860        `h      LDR      r0,[r4,#4]
        0x000190c8:    e004        ..      B        0x190d4 ; am_hal_cmdq_alloc_block + 180
        0x000190ca:    4401        .D      ADD      r1,r1,r0
        0x000190cc:    4291        .B      CMP      r1,r2
        0x000190ce:    d301        ..      BCC      0x190d4 ; am_hal_cmdq_alloc_block + 180
        0x000190d0:    2005        .       MOVS     r0,#5
        0x000190d2:    bdf8        ..      POP      {r3-r7,pc}
        0x000190d4:    6038        8`      STR      r0,[r7,#0]
        0x000190d6:    6a21        !j      LDR      r1,[r4,#0x20]
        0x000190d8:    eb0000c5    ....    ADD      r0,r0,r5,LSL #3
        0x000190dc:    1c49        I.      ADDS     r1,r1,#1
        0x000190de:    6221        !b      STR      r1,[r4,#0x20]
        0x000190e0:    6031        1`      STR      r1,[r6,#0]
        0x000190e2:    6160        `a      STR      r0,[r4,#0x14]
        0x000190e4:    2000        .       MOVS     r0,#0
        0x000190e6:    bdf8        ..      POP      {r3-r7,pc}
    $d
        0x000190e8:    00cdcdcd    ....    DCD    13487565
    $t
    i.am_hal_cmdq_disable
    am_hal_cmdq_disable
        0x000190ec:    2800        .(      CMP      r0,#0
        0x000190ee:    bf1c        ..      ITT      NE
        0x000190f0:    6801        .h      LDRNE    r1,[r0,#0]
        0x000190f2:    f0117f80    ....    TSTNE    r1,#0x1000000
        0x000190f6:    d004        ..      BEQ      0x19102 ; am_hal_cmdq_disable + 22
        0x000190f8:    4b0b        .K      LDR      r3,[pc,#44] ; [0x19128] = 0xcdcdcd
        0x000190fa:    f021427f    !..B    BIC      r2,r1,#0xff000000
        0x000190fe:    429a        .B      CMP      r2,r3
        0x00019100:    d001        ..      BEQ      0x19106 ; am_hal_cmdq_disable + 26
        0x00019102:    2002        .       MOVS     r0,#2
        0x00019104:    4770        pG      BX       lr
        0x00019106:    f0117f00    ....    TST      r1,#0x2000000
        0x0001910a:    bf04        ..      ITT      EQ
        0x0001910c:    2000        .       MOVEQ    r0,#0
        0x0001910e:    4770        pG      BXEQ     lr
        0x00019110:    6a41        Aj      LDR      r1,[r0,#0x24]
        0x00019112:    6809        .h      LDR      r1,[r1,#0]
        0x00019114:    680a        .h      LDR      r2,[r1,#0]
        0x00019116:    f0220201    "...    BIC      r2,r2,#1
        0x0001911a:    600a        .`      STR      r2,[r1,#0]
        0x0001911c:    6801        .h      LDR      r1,[r0,#0]
        0x0001911e:    f0217100    !..q    BIC      r1,r1,#0x2000000
        0x00019122:    6001        .`      STR      r1,[r0,#0]
        0x00019124:    2000        .       MOVS     r0,#0
        0x00019126:    4770        pG      BX       lr
    $d
        0x00019128:    00cdcdcd    ....    DCD    13487565
    $t
    i.am_hal_cmdq_enable
    am_hal_cmdq_enable
        0x0001912c:    2800        .(      CMP      r0,#0
        0x0001912e:    bf1c        ..      ITT      NE
        0x00019130:    6801        .h      LDRNE    r1,[r0,#0]
        0x00019132:    f0117f80    ....    TSTNE    r1,#0x1000000
        0x00019136:    d004        ..      BEQ      0x19142 ; am_hal_cmdq_enable + 22
        0x00019138:    4b0b        .K      LDR      r3,[pc,#44] ; [0x19168] = 0xcdcdcd
        0x0001913a:    f021427f    !..B    BIC      r2,r1,#0xff000000
        0x0001913e:    429a        .B      CMP      r2,r3
        0x00019140:    d001        ..      BEQ      0x19146 ; am_hal_cmdq_enable + 26
        0x00019142:    2002        .       MOVS     r0,#2
        0x00019144:    4770        pG      BX       lr
        0x00019146:    f0117f00    ....    TST      r1,#0x2000000
        0x0001914a:    bf1c        ..      ITT      NE
        0x0001914c:    2000        .       MOVNE    r0,#0
        0x0001914e:    4770        pG      BXNE     lr
        0x00019150:    6a41        Aj      LDR      r1,[r0,#0x24]
        0x00019152:    6809        .h      LDR      r1,[r1,#0]
        0x00019154:    680a        .h      LDR      r2,[r1,#0]
        0x00019156:    f0420201    B...    ORR      r2,r2,#1
        0x0001915a:    600a        .`      STR      r2,[r1,#0]
        0x0001915c:    6801        .h      LDR      r1,[r0,#0]
        0x0001915e:    f0417100    A..q    ORR      r1,r1,#0x2000000
        0x00019162:    6001        .`      STR      r1,[r0,#0]
        0x00019164:    2000        .       MOVS     r0,#0
        0x00019166:    4770        pG      BX       lr
    $d
        0x00019168:    00cdcdcd    ....    DCD    13487565
    $t
    i.am_hal_cmdq_error_resume
    am_hal_cmdq_error_resume
        0x0001916c:    2800        .(      CMP      r0,#0
        0x0001916e:    bf1c        ..      ITT      NE
        0x00019170:    6801        .h      LDRNE    r1,[r0,#0]
        0x00019172:    f0117f80    ....    TSTNE    r1,#0x1000000
        0x00019176:    d004        ..      BEQ      0x19182 ; am_hal_cmdq_error_resume + 22
        0x00019178:    4b18        .K      LDR      r3,[pc,#96] ; [0x191dc] = 0xcdcdcd
        0x0001917a:    f021427f    !..B    BIC      r2,r1,#0xff000000
        0x0001917e:    429a        .B      CMP      r2,r3
        0x00019180:    d001        ..      BEQ      0x19186 ; am_hal_cmdq_error_resume + 26
        0x00019182:    2002        .       MOVS     r0,#2
        0x00019184:    4770        pG      BX       lr
        0x00019186:    f0117f00    ....    TST      r1,#0x2000000
        0x0001918a:    bf04        ..      ITT      EQ
        0x0001918c:    2000        .       MOVEQ    r0,#0
        0x0001918e:    4770        pG      BXEQ     lr
        0x00019190:    6a41        Aj      LDR      r1,[r0,#0x24]
        0x00019192:    6809        .h      LDR      r1,[r1,#0]
        0x00019194:    680a        .h      LDR      r2,[r1,#0]
        0x00019196:    f0220201    "...    BIC      r2,r2,#1
        0x0001919a:    600a        .`      STR      r2,[r1,#0]
        0x0001919c:    6a42        Bj      LDR      r2,[r0,#0x24]
        0x0001919e:    6853        Sh      LDR      r3,[r2,#4]
        0x000191a0:    6819        .h      LDR      r1,[r3,#0]
        0x000191a2:    6892        .h      LDR      r2,[r2,#8]
        0x000191a4:    f8d1c000    ....    LDR      r12,[r1,#0]
        0x000191a8:    f02c0c01    ,...    BIC      r12,r12,#1
        0x000191ac:    4594        .E      CMP      r12,r2
        0x000191ae:    d00b        ..      BEQ      0x191c8 ; am_hal_cmdq_error_resume + 92
        0x000191b0:    f8d1c000    ....    LDR      r12,[r1,#0]
        0x000191b4:    459c        .E      CMP      r12,r3
        0x000191b6:    bf0c        ..      ITE      EQ
        0x000191b8:    6849        Ih      LDREQ    r1,[r1,#4]
        0x000191ba:    3108        .1      ADDNE    r1,r1,#8
        0x000191bc:    f8d1c000    ....    LDR      r12,[r1,#0]
        0x000191c0:    f02c0c01    ,...    BIC      r12,r12,#1
        0x000191c4:    4594        .E      CMP      r12,r2
        0x000191c6:    d1f3        ..      BNE      0x191b0 ; am_hal_cmdq_error_resume + 68
        0x000191c8:    600a        .`      STR      r2,[r1,#0]
        0x000191ca:    6a42        Bj      LDR      r2,[r0,#0x24]
        0x000191cc:    6852        Rh      LDR      r2,[r2,#4]
        0x000191ce:    6011        .`      STR      r1,[r2,#0]
        0x000191d0:    6801        .h      LDR      r1,[r0,#0]
        0x000191d2:    f0217100    !..q    BIC      r1,r1,#0x2000000
        0x000191d6:    6001        .`      STR      r1,[r0,#0]
        0x000191d8:    2000        .       MOVS     r0,#0
        0x000191da:    4770        pG      BX       lr
    $d
        0x000191dc:    00cdcdcd    ....    DCD    13487565
    $t
    i.am_hal_cmdq_get_status
    am_hal_cmdq_get_status
        0x000191e0:    b538        8.      PUSH     {r3-r5,lr}
        0x000191e2:    460d        .F      MOV      r5,r1
        0x000191e4:    1e04        ..      SUBS     r4,r0,#0
        0x000191e6:    bf1c        ..      ITT      NE
        0x000191e8:    6820         h      LDRNE    r0,[r4,#0]
        0x000191ea:    f0107f80    ....    TSTNE    r0,#0x1000000
        0x000191ee:    d004        ..      BEQ      0x191fa ; am_hal_cmdq_get_status + 26
        0x000191f0:    4923        #I      LDR      r1,[pc,#140] ; [0x19280] = 0xcdcdcd
        0x000191f2:    f020407f     ..@    BIC      r0,r0,#0xff000000
        0x000191f6:    4288        .B      CMP      r0,r1
        0x000191f8:    d001        ..      BEQ      0x191fe ; am_hal_cmdq_get_status + 30
        0x000191fa:    2002        .       MOVS     r0,#2
        0x000191fc:    bd38        8.      POP      {r3-r5,pc}
        0x000191fe:    2d00        .-      CMP      r5,#0
        0x00019200:    bf04        ..      ITT      EQ
        0x00019202:    2006        .       MOVEQ    r0,#6
        0x00019204:    bd38        8.      POPEQ    {r3-r5,pc}
        0x00019206:    f7fff8ab    ....    BL       am_hal_interrupt_master_disable ; 0x18360
        0x0001920a:    9000        ..      STR      r0,[sp,#0]
        0x0001920c:    6a60        `j      LDR      r0,[r4,#0x24]
        0x0001920e:    6880        .h      LDR      r0,[r0,#8]
        0x00019210:    6800        .h      LDR      r0,[r0,#0]
        0x00019212:    6a21        !j      LDR      r1,[r4,#0x20]
        0x00019214:    b2c0        ..      UXTB     r0,r0
        0x00019216:    f02101ff    !...    BIC      r1,r1,#0xff
        0x0001921a:    4308        .C      ORRS     r0,r0,r1
        0x0001921c:    61e0        .a      STR      r0,[r4,#0x1c]
        0x0001921e:    6a21        !j      LDR      r1,[r4,#0x20]
        0x00019220:    1a09        ..      SUBS     r1,r1,r0
        0x00019222:    bf44        D.      ITT      MI
        0x00019224:    f5a07080    ...p    SUBMI    r0,r0,#0x100
        0x00019228:    61e0        .a      STRMI    r0,[r4,#0x1c]
        0x0001922a:    6a60        `j      LDR      r0,[r4,#0x24]
        0x0001922c:    6840        @h      LDR      r0,[r0,#4]
        0x0001922e:    6800        .h      LDR      r0,[r0,#0]
        0x00019230:    60e0        .`      STR      r0,[r4,#0xc]
        0x00019232:    9800        ..      LDR      r0,[sp,#0]
        0x00019234:    f7fff898    ....    BL       am_hal_interrupt_master_set ; 0x18368
        0x00019238:    69e0        .i      LDR      r0,[r4,#0x1c]
        0x0001923a:    6028        (`      STR      r0,[r5,#0]
        0x0001923c:    6a20         j      LDR      r0,[r4,#0x20]
        0x0001923e:    60a8        .`      STR      r0,[r5,#8]
        0x00019240:    e9d40104    ....    LDRD     r0,r1,[r4,#0x10]
        0x00019244:    4281        .B      CMP      r1,r0
        0x00019246:    bf14        ..      ITE      NE
        0x00019248:    2001        .       MOVNE    r0,#1
        0x0001924a:    2000        .       MOVEQ    r0,#0
        0x0001924c:    6a21        !j      LDR      r1,[r4,#0x20]
        0x0001924e:    1a08        ..      SUBS     r0,r1,r0
        0x00019250:    6068        h`      STR      r0,[r5,#4]
        0x00019252:    6a61        aj      LDR      r1,[r4,#0x24]
        0x00019254:    6988        .i      LDR      r0,[r1,#0x18]
        0x00019256:    6800        .h      LDR      r0,[r0,#0]
        0x00019258:    69c9        .i      LDR      r1,[r1,#0x1c]
        0x0001925a:    4001        .@      ANDS     r1,r1,r0
        0x0001925c:    bf18        ..      IT       NE
        0x0001925e:    2101        .!      MOVNE    r1,#1
        0x00019260:    7329        )s      STRB     r1,[r5,#0xc]
        0x00019262:    6a61        aj      LDR      r1,[r4,#0x24]
        0x00019264:    6a49        Ij      LDR      r1,[r1,#0x24]
        0x00019266:    4001        .@      ANDS     r1,r1,r0
        0x00019268:    bf18        ..      IT       NE
        0x0001926a:    2101        .!      MOVNE    r1,#1
        0x0001926c:    7369        is      STRB     r1,[r5,#0xd]
        0x0001926e:    6a61        aj      LDR      r1,[r4,#0x24]
        0x00019270:    6a09        .j      LDR      r1,[r1,#0x20]
        0x00019272:    4008        .@      ANDS     r0,r0,r1
        0x00019274:    bf18        ..      IT       NE
        0x00019276:    2001        .       MOVNE    r0,#1
        0x00019278:    73a8        .s      STRB     r0,[r5,#0xe]
        0x0001927a:    2000        .       MOVS     r0,#0
        0x0001927c:    bd38        8.      POP      {r3-r5,pc}
    $d
        0x0001927e:    0000        ..      DCW    0
        0x00019280:    00cdcdcd    ....    DCD    13487565
    $t
    i.am_hal_cmdq_init
    am_hal_cmdq_init
        0x00019284:    280b        .(      CMP      r0,#0xb
        0x00019286:    bf24        $.      ITT      CS
        0x00019288:    2005        .       MOVCS    r0,#5
        0x0001928a:    4770        pG      BXCS     lr
        0x0001928c:    2900        .)      CMP      r1,#0
        0x0001928e:    bf1e        ..      ITTT     NE
        0x00019290:    684b        Kh      LDRNE    r3,[r1,#4]
        0x00019292:    2b00        .+      CMPNE    r3,#0
        0x00019294:    2a00        .*      CMPNE    r2,#0
        0x00019296:    d004        ..      BEQ      0x192a2 ; am_hal_cmdq_init + 30
        0x00019298:    f8d1c000    ....    LDR      r12,[r1,#0]
        0x0001929c:    f1bc0f02    ....    CMP      r12,#2
        0x000192a0:    d201        ..      BCS      0x192a6 ; am_hal_cmdq_init + 34
        0x000192a2:    2006        .       MOVS     r0,#6
        0x000192a4:    4770        pG      BX       lr
        0x000192a6:    b430        0.      PUSH     {r4,r5}
        0x000192a8:    eb000340    ..@.    ADD      r3,r0,r0,LSL #1
        0x000192ac:    4c2e        .L      LDR      r4,[pc,#184] ; [0x19368] = 0x10008a2c
        0x000192ae:    eb0303c0    ....    ADD      r3,r3,r0,LSL #3
        0x000192b2:    f8545023    T.#P    LDR      r5,[r4,r3,LSL #2]
        0x000192b6:    f0157f80    ....    TST      r5,#0x1000000
        0x000192ba:    bf1e        ..      ITTT     NE
        0x000192bc:    2007        .       MOVNE    r0,#7
        0x000192be:    bc30        0.      POPNE    {r4,r5}
        0x000192c0:    4770        pG      BXNE     lr
        0x000192c2:    eb040383    ....    ADD      r3,r4,r3,LSL #2
        0x000192c6:    ea4f0ccc    O...    LSL      r12,r12,#3
        0x000192ca:    f8c3c018    ....    STR      r12,[r3,#0x18]
        0x000192ce:    f8d1c004    ....    LDR      r12,[r1,#4]
        0x000192d2:    f8c3c004    ....    STR      r12,[r3,#4]
        0x000192d6:    f8c3c00c    ....    STR      r12,[r3,#0xc]
        0x000192da:    f8c3c014    ....    STR      r12,[r3,#0x14]
        0x000192de:    f8c3c010    ....    STR      r12,[r3,#0x10]
        0x000192e2:    e9d14c00    ...L    LDRD     r4,r12,[r1,#0]
        0x000192e6:    eb0c0cc4    ....    ADD      r12,r12,r4,LSL #3
        0x000192ea:    f8c3c008    ....    STR      r12,[r3,#8]
        0x000192ee:    f8d3c000    ....    LDR      r12,[r3,#0]
        0x000192f2:    4c1e        .L      LDR      r4,[pc,#120] ; [0x1936c] = 0xcdcdcd
        0x000192f4:    f02c7c00    ,..|    BIC      r12,r12,#0x2000000
        0x000192f8:    f04c7c80    L..|    ORR      r12,r12,#0x1000000
        0x000192fc:    f3640c17    d...    BFI      r12,r4,#0,#24
        0x00019300:    f8c3c000    ....    STR      r12,[r3,#0]
        0x00019304:    f8dfc068    ..h.    LDR      r12,[pc,#104] ; [0x19370] = 0x1d188
        0x00019308:    eb000080    ....    ADD      r0,r0,r0,LSL #2
        0x0001930c:    eb0c00c0    ....    ADD      r0,r12,r0,LSL #3
        0x00019310:    6258        Xb      STR      r0,[r3,#0x24]
        0x00019312:    2000        .       MOVS     r0,#0
        0x00019314:    61d8        .a      STR      r0,[r3,#0x1c]
        0x00019316:    6218        .b      STR      r0,[r3,#0x20]
        0x00019318:    f8d3c024    ..$.    LDR      r12,[r3,#0x24]
        0x0001931c:    f8dcc008    ....    LDR      r12,[r12,#8]
        0x00019320:    f8cc0000    ....    STR      r0,[r12,#0]
        0x00019324:    f8d3c024    ..$.    LDR      r12,[r3,#0x24]
        0x00019328:    f8dcc00c    ....    LDR      r12,[r12,#0xc]
        0x0001932c:    f8cc0000    ....    STR      r0,[r12,#0]
        0x00019330:    6a58        Xj      LDR      r0,[r3,#0x24]
        0x00019332:    f8d0c010    ....    LDR      r12,[r0,#0x10]
        0x00019336:    f8dc4000    ...@    LDR      r4,[r12,#0]
        0x0001933a:    6940        @i      LDR      r0,[r0,#0x14]
        0x0001933c:    4320         C      ORRS     r0,r0,r4
        0x0001933e:    f8cc0000    ....    STR      r0,[r12,#0]
        0x00019342:    f8d3c024    ..$.    LDR      r12,[r3,#0x24]
        0x00019346:    6848        Hh      LDR      r0,[r1,#4]
        0x00019348:    f8dcc004    ....    LDR      r12,[r12,#4]
        0x0001934c:    f8cc0000    ....    STR      r0,[r12,#0]
        0x00019350:    7a08        .z      LDRB     r0,[r1,#8]
        0x00019352:    2102        .!      MOVS     r1,#2
        0x00019354:    ea010040    ..@.    AND      r0,r1,r0,LSL #1
        0x00019358:    6a59        Yj      LDR      r1,[r3,#0x24]
        0x0001935a:    6809        .h      LDR      r1,[r1,#0]
        0x0001935c:    6008        .`      STR      r0,[r1,#0]
        0x0001935e:    6013        .`      STR      r3,[r2,#0]
        0x00019360:    bc30        0.      POP      {r4,r5}
        0x00019362:    2000        .       MOVS     r0,#0
        0x00019364:    4770        pG      BX       lr
    $d
        0x00019366:    0000        ..      DCW    0
        0x00019368:    10008a2c    ,...    DCD    268470828
        0x0001936c:    00cdcdcd    ....    DCD    13487565
        0x00019370:    0001d188    ....    DCD    119176
    $t
    i.am_hal_cmdq_post_block
    am_hal_cmdq_post_block
        0x00019374:    2800        .(      CMP      r0,#0
        0x00019376:    bf1c        ..      ITT      NE
        0x00019378:    6802        .h      LDRNE    r2,[r0,#0]
        0x0001937a:    f0127f80    ....    TSTNE    r2,#0x1000000
        0x0001937e:    d004        ..      BEQ      0x1938a ; am_hal_cmdq_post_block + 22
        0x00019380:    4b0e        .K      LDR      r3,[pc,#56] ; [0x193bc] = 0xcdcdcd
        0x00019382:    f022427f    "..B    BIC      r2,r2,#0xff000000
        0x00019386:    429a        .B      CMP      r2,r3
        0x00019388:    d001        ..      BEQ      0x1938e ; am_hal_cmdq_post_block + 26
        0x0001938a:    2002        .       MOVS     r0,#2
        0x0001938c:    4770        pG      BX       lr
        0x0001938e:    e9d03204    ...2    LDRD     r3,r2,[r0,#0x10]
        0x00019392:    4293        .B      CMP      r3,r2
        0x00019394:    bf04        ..      ITT      EQ
        0x00019396:    2007        .       MOVEQ    r0,#7
        0x00019398:    4770        pG      BXEQ     lr
        0x0001939a:    6a43        Cj      LDR      r3,[r0,#0x24]
        0x0001939c:    689b        .h      LDR      r3,[r3,#8]
        0x0001939e:    4319        .C      ORRS     r1,r1,r3
        0x000193a0:    6011        .`      STR      r1,[r2,#0]
        0x000193a2:    6a01        .j      LDR      r1,[r0,#0x20]
        0x000193a4:    6051        Q`      STR      r1,[r2,#4]
        0x000193a6:    f1020108    ....    ADD      r1,r2,#8
        0x000193aa:    6141        Aa      STR      r1,[r0,#0x14]
        0x000193ac:    6101        .a      STR      r1,[r0,#0x10]
        0x000193ae:    f8901020    .. .    LDRB     r1,[r0,#0x20]
        0x000193b2:    6a40        @j      LDR      r0,[r0,#0x24]
        0x000193b4:    68c0        .h      LDR      r0,[r0,#0xc]
        0x000193b6:    6001        .`      STR      r1,[r0,#0]
        0x000193b8:    2000        .       MOVS     r0,#0
        0x000193ba:    4770        pG      BX       lr
    $d
        0x000193bc:    00cdcdcd    ....    DCD    13487565
    $t
    i.am_hal_cmdq_post_loop_block
    am_hal_cmdq_post_loop_block
        0x000193c0:    2800        .(      CMP      r0,#0
        0x000193c2:    bf1c        ..      ITT      NE
        0x000193c4:    6802        .h      LDRNE    r2,[r0,#0]
        0x000193c6:    f0127f80    ....    TSTNE    r2,#0x1000000
        0x000193ca:    d004        ..      BEQ      0x193d6 ; am_hal_cmdq_post_loop_block + 22
        0x000193cc:    4b12        .K      LDR      r3,[pc,#72] ; [0x19418] = 0xcdcdcd
        0x000193ce:    f022427f    "..B    BIC      r2,r2,#0xff000000
        0x000193d2:    429a        .B      CMP      r2,r3
        0x000193d4:    d001        ..      BEQ      0x193da ; am_hal_cmdq_post_loop_block + 26
        0x000193d6:    2002        .       MOVS     r0,#2
        0x000193d8:    4770        pG      BX       lr
        0x000193da:    e9d03204    ...2    LDRD     r3,r2,[r0,#0x10]
        0x000193de:    4293        .B      CMP      r3,r2
        0x000193e0:    bf04        ..      ITT      EQ
        0x000193e2:    2007        .       MOVEQ    r0,#7
        0x000193e4:    4770        pG      BXEQ     lr
        0x000193e6:    6a43        Cj      LDR      r3,[r0,#0x24]
        0x000193e8:    689b        .h      LDR      r3,[r3,#8]
        0x000193ea:    f8423b04    B..;    STR      r3,[r2],#4
        0x000193ee:    2300        .#      MOVS     r3,#0
        0x000193f0:    f8423b04    B..;    STR      r3,[r2],#4
        0x000193f4:    6a43        Cj      LDR      r3,[r0,#0x24]
        0x000193f6:    685b        [h      LDR      r3,[r3,#4]
        0x000193f8:    4319        .C      ORRS     r1,r1,r3
        0x000193fa:    6011        .`      STR      r1,[r2,#0]
        0x000193fc:    6841        Ah      LDR      r1,[r0,#4]
        0x000193fe:    6051        Q`      STR      r1,[r2,#4]
        0x00019400:    f1020108    ....    ADD      r1,r2,#8
        0x00019404:    6141        Aa      STR      r1,[r0,#0x14]
        0x00019406:    6101        .a      STR      r1,[r0,#0x10]
        0x00019408:    f8901020    .. .    LDRB     r1,[r0,#0x20]
        0x0001940c:    6a40        @j      LDR      r0,[r0,#0x24]
        0x0001940e:    68c0        .h      LDR      r0,[r0,#0xc]
        0x00019410:    6001        .`      STR      r1,[r0,#0]
        0x00019412:    2000        .       MOVS     r0,#0
        0x00019414:    4770        pG      BX       lr
    $d
        0x00019416:    0000        ..      DCW    0
        0x00019418:    00cdcdcd    ....    DCD    13487565
    $t
    i.am_hal_cmdq_release_block
    am_hal_cmdq_release_block
        0x0001941c:    2800        .(      CMP      r0,#0
        0x0001941e:    bf1c        ..      ITT      NE
        0x00019420:    6801        .h      LDRNE    r1,[r0,#0]
        0x00019422:    f0117f80    ....    TSTNE    r1,#0x1000000
        0x00019426:    d004        ..      BEQ      0x19432 ; am_hal_cmdq_release_block + 22
        0x00019428:    4a09        .J      LDR      r2,[pc,#36] ; [0x19450] = 0xcdcdcd
        0x0001942a:    f021417f    !..A    BIC      r1,r1,#0xff000000
        0x0001942e:    4291        .B      CMP      r1,r2
        0x00019430:    d001        ..      BEQ      0x19436 ; am_hal_cmdq_release_block + 26
        0x00019432:    2002        .       MOVS     r0,#2
        0x00019434:    4770        pG      BX       lr
        0x00019436:    e9d01204    ....    LDRD     r1,r2,[r0,#0x10]
        0x0001943a:    4291        .B      CMP      r1,r2
        0x0001943c:    bf04        ..      ITT      EQ
        0x0001943e:    2007        .       MOVEQ    r0,#7
        0x00019440:    4770        pG      BXEQ     lr
        0x00019442:    6141        Aa      STR      r1,[r0,#0x14]
        0x00019444:    6a01        .j      LDR      r1,[r0,#0x20]
        0x00019446:    1e49        I.      SUBS     r1,r1,#1
        0x00019448:    6201        .b      STR      r1,[r0,#0x20]
        0x0001944a:    2000        .       MOVS     r0,#0
        0x0001944c:    4770        pG      BX       lr
    $d
        0x0001944e:    0000        ..      DCW    0
        0x00019450:    00cdcdcd    ....    DCD    13487565
    $t
    i.am_hal_cmdq_reset
    am_hal_cmdq_reset
        0x00019454:    2800        .(      CMP      r0,#0
        0x00019456:    bf1c        ..      ITT      NE
        0x00019458:    6801        .h      LDRNE    r1,[r0,#0]
        0x0001945a:    f0117f80    ....    TSTNE    r1,#0x1000000
        0x0001945e:    d004        ..      BEQ      0x1946a ; am_hal_cmdq_reset + 22
        0x00019460:    4b14        .K      LDR      r3,[pc,#80] ; [0x194b4] = 0xcdcdcd
        0x00019462:    f021427f    !..B    BIC      r2,r1,#0xff000000
        0x00019466:    429a        .B      CMP      r2,r3
        0x00019468:    d001        ..      BEQ      0x1946e ; am_hal_cmdq_reset + 26
        0x0001946a:    2002        .       MOVS     r0,#2
        0x0001946c:    4770        pG      BX       lr
        0x0001946e:    f0117f00    ....    TST      r1,#0x2000000
        0x00019472:    bf1c        ..      ITT      NE
        0x00019474:    2007        .       MOVNE    r0,#7
        0x00019476:    4770        pG      BXNE     lr
        0x00019478:    6a41        Aj      LDR      r1,[r0,#0x24]
        0x0001947a:    6809        .h      LDR      r1,[r1,#0]
        0x0001947c:    680a        .h      LDR      r2,[r1,#0]
        0x0001947e:    f0220201    "...    BIC      r2,r2,#1
        0x00019482:    600a        .`      STR      r2,[r1,#0]
        0x00019484:    6841        Ah      LDR      r1,[r0,#4]
        0x00019486:    60c1        .`      STR      r1,[r0,#0xc]
        0x00019488:    6141        Aa      STR      r1,[r0,#0x14]
        0x0001948a:    6101        .a      STR      r1,[r0,#0x10]
        0x0001948c:    2100        .!      MOVS     r1,#0
        0x0001948e:    61c1        .a      STR      r1,[r0,#0x1c]
        0x00019490:    6201        .b      STR      r1,[r0,#0x20]
        0x00019492:    6a42        Bj      LDR      r2,[r0,#0x24]
        0x00019494:    6892        .h      LDR      r2,[r2,#8]
        0x00019496:    6011        .`      STR      r1,[r2,#0]
        0x00019498:    6a42        Bj      LDR      r2,[r0,#0x24]
        0x0001949a:    68d2        .h      LDR      r2,[r2,#0xc]
        0x0001949c:    6011        .`      STR      r1,[r2,#0]
        0x0001949e:    6a42        Bj      LDR      r2,[r0,#0x24]
        0x000194a0:    6841        Ah      LDR      r1,[r0,#4]
        0x000194a2:    6852        Rh      LDR      r2,[r2,#4]
        0x000194a4:    6011        .`      STR      r1,[r2,#0]
        0x000194a6:    6801        .h      LDR      r1,[r0,#0]
        0x000194a8:    f0217100    !..q    BIC      r1,r1,#0x2000000
        0x000194ac:    6001        .`      STR      r1,[r0,#0]
        0x000194ae:    2000        .       MOVS     r0,#0
        0x000194b0:    4770        pG      BX       lr
    $d
        0x000194b2:    0000        ..      DCW    0
        0x000194b4:    00cdcdcd    ....    DCD    13487565
    $t
    i.am_hal_cmdq_term
    am_hal_cmdq_term
        0x000194b8:    b538        8.      PUSH     {r3-r5,lr}
        0x000194ba:    460d        .F      MOV      r5,r1
        0x000194bc:    1e04        ..      SUBS     r4,r0,#0
        0x000194be:    bf1c        ..      ITT      NE
        0x000194c0:    6820         h      LDRNE    r0,[r4,#0]
        0x000194c2:    f0107f80    ....    TSTNE    r0,#0x1000000
        0x000194c6:    d004        ..      BEQ      0x194d2 ; am_hal_cmdq_term + 26
        0x000194c8:    491c        .I      LDR      r1,[pc,#112] ; [0x1953c] = 0xcdcdcd
        0x000194ca:    f020407f     ..@    BIC      r0,r0,#0xff000000
        0x000194ce:    4288        .B      CMP      r0,r1
        0x000194d0:    d001        ..      BEQ      0x194d6 ; am_hal_cmdq_term + 30
        0x000194d2:    2002        .       MOVS     r0,#2
        0x000194d4:    bd38        8.      POP      {r3-r5,pc}
        0x000194d6:    f7feff43    ..C.    BL       am_hal_interrupt_master_disable ; 0x18360
        0x000194da:    9000        ..      STR      r0,[sp,#0]
        0x000194dc:    6a60        `j      LDR      r0,[r4,#0x24]
        0x000194de:    6880        .h      LDR      r0,[r0,#8]
        0x000194e0:    6800        .h      LDR      r0,[r0,#0]
        0x000194e2:    6a21        !j      LDR      r1,[r4,#0x20]
        0x000194e4:    b2c0        ..      UXTB     r0,r0
        0x000194e6:    f02101ff    !...    BIC      r1,r1,#0xff
        0x000194ea:    4308        .C      ORRS     r0,r0,r1
        0x000194ec:    61e0        .a      STR      r0,[r4,#0x1c]
        0x000194ee:    6a21        !j      LDR      r1,[r4,#0x20]
        0x000194f0:    1a09        ..      SUBS     r1,r1,r0
        0x000194f2:    bf44        D.      ITT      MI
        0x000194f4:    f5a07080    ...p    SUBMI    r0,r0,#0x100
        0x000194f8:    61e0        .a      STRMI    r0,[r4,#0x1c]
        0x000194fa:    6a60        `j      LDR      r0,[r4,#0x24]
        0x000194fc:    6840        @h      LDR      r0,[r0,#4]
        0x000194fe:    6800        .h      LDR      r0,[r0,#0]
        0x00019500:    60e0        .`      STR      r0,[r4,#0xc]
        0x00019502:    9800        ..      LDR      r0,[sp,#0]
        0x00019504:    f7feff30    ..0.    BL       am_hal_interrupt_master_set ; 0x18368
        0x00019508:    b92d        -.      CBNZ     r5,0x19516 ; am_hal_cmdq_term + 94
        0x0001950a:    e9d40107    ....    LDRD     r0,r1,[r4,#0x1c]
        0x0001950e:    4288        .B      CMP      r0,r1
        0x00019510:    bf1c        ..      ITT      NE
        0x00019512:    2003        .       MOVNE    r0,#3
        0x00019514:    bd38        8.      POPNE    {r3-r5,pc}
        0x00019516:    6820         h      LDR      r0,[r4,#0]
        0x00019518:    f0207080     ..p    BIC      r0,r0,#0x1000000
        0x0001951c:    6020         `      STR      r0,[r4,#0]
        0x0001951e:    6a60        `j      LDR      r0,[r4,#0x24]
        0x00019520:    6800        .h      LDR      r0,[r0,#0]
        0x00019522:    6801        .h      LDR      r1,[r0,#0]
        0x00019524:    f0210101    !...    BIC      r1,r1,#1
        0x00019528:    6001        .`      STR      r1,[r0,#0]
        0x0001952a:    6a60        `j      LDR      r0,[r4,#0x24]
        0x0001952c:    6901        .i      LDR      r1,[r0,#0x10]
        0x0001952e:    680a        .h      LDR      r2,[r1,#0]
        0x00019530:    6940        @i      LDR      r0,[r0,#0x14]
        0x00019532:    ea220000    "...    BIC      r0,r2,r0
        0x00019536:    6008        .`      STR      r0,[r1,#0]
        0x00019538:    2000        .       MOVS     r0,#0
        0x0001953a:    bd38        8.      POP      {r3-r5,pc}
    $d
        0x0001953c:    00cdcdcd    ....    DCD    13487565
    $t
    i.am_hal_daxi_config
    am_hal_daxi_config
        0x00019540:    2800        .(      CMP      r0,#0
        0x00019542:    bf04        ..      ITT      EQ
        0x00019544:    2006        .       MOVEQ    r0,#6
        0x00019546:    4770        pG      BXEQ     lr
        0x00019548:    7881        .x      LDRB     r1,[r0,#2]
        0x0001954a:    7842        Bx      LDRB     r2,[r0,#1]
        0x0001954c:    f44f7340    O.@s    MOV      r3,#0x300
        0x00019550:    f0010101    ....    AND      r1,r1,#1
        0x00019554:    ea032202    ..."    AND      r2,r3,r2,LSL #8
        0x00019558:    7800        .x      LDRB     r0,[r0,#0]
        0x0001955a:    4311        .C      ORRS     r1,r1,r2
        0x0001955c:    ea414000    A..@    ORR      r0,r1,r0,LSL #16
        0x00019560:    f04f4190    O..A    MOV      r1,#0x48000000
        0x00019564:    6508        .e      STR      r0,[r1,#0x50]
        0x00019566:    2000        .       MOVS     r0,#0
        0x00019568:    4770        pG      BX       lr
    i.am_hal_daxi_control
    am_hal_daxi_control
        0x0001956a:    f04f4190    O..A    MOV      r1,#0x48000000
        0x0001956e:    2801        .(      CMP      r0,#1
        0x00019570:    bf04        ..      ITT      EQ
        0x00019572:    6d48        Hm      LDREQ    r0,[r1,#0x54]
        0x00019574:    f0400002    @...    ORREQ    r0,r0,#2
        0x00019578:    d006        ..      BEQ      0x19588 ; am_hal_daxi_control + 30
        0x0001957a:    2802        .(      CMP      r0,#2
        0x0001957c:    bf13        ..      ITEET    NE
        0x0001957e:    2006        .       MOVNE    r0,#6
        0x00019580:    6d48        Hm      LDREQ    r0,[r1,#0x54]
        0x00019582:    f0400001    @...    ORREQ    r0,r0,#1
        0x00019586:    4770        pG      BXNE     lr
        0x00019588:    6548        He      STR      r0,[r1,#0x54]
        0x0001958a:    2000        .       MOVS     r0,#0
        0x0001958c:    4770        pG      BX       lr
        0x0001958e:    0000        ..      MOVS     r0,r0
    i.am_hal_dcu_get
    am_hal_dcu_get
        0x00019590:    e92d43f0    -..C    PUSH     {r4-r9,lr}
        0x00019594:    4680        .F      MOV      r8,r0
        0x00019596:    481f        .H      LDR      r0,[pc,#124] ; [0x19614] = 0x40021000
        0x00019598:    b083        ..      SUB      sp,sp,#0xc
        0x0001959a:    6880        .h      LDR      r0,[r0,#8]
        0x0001959c:    f4101f80    ....    TST      r0,#0x100000
        0x000195a0:    d023        #.      BEQ      0x195ea ; am_hal_dcu_get + 90
        0x000195a2:    481d        .H      LDR      r0,[pc,#116] ; [0x19618] = 0x400c0a7c
        0x000195a4:    6800        .h      LDR      r0,[r0,#0]
        0x000195a6:    f0100f01    ....    TST      r0,#1
        0x000195aa:    d01e        ..      BEQ      0x195ea ; am_hal_dcu_get + 90
        0x000195ac:    f8df906c    ..l.    LDR      r9,[pc,#108] ; [0x1961c] = 0x10000128
        0x000195b0:    4668        hF      MOV      r0,sp
        0x000195b2:    2202        ."      MOVS     r2,#2
        0x000195b4:    f8d91004    ....    LDR      r1,[r9,#4]
        0x000195b8:    f002fcfe    ....    BL       copy_words ; 0x1bfb8
        0x000195bc:    e9dd0100    ....    LDRD     r0,r1,[sp,#0]
        0x000195c0:    2400        .$      MOVS     r4,#0
        0x000195c2:    4627        'F      MOV      r7,r4
        0x000195c4:    2605        .&      MOVS     r6,#5
        0x000195c6:    4625        %F      MOV      r5,r4
        0x000195c8:    f8d92000    ...     LDR      r2,[r9,#0]
        0x000195cc:    f7fefeef    ....    BL       __aeabi_llsr ; 0x183ae
        0x000195d0:    2214        ."      MOVS     r2,#0x14
        0x000195d2:    f04f0c01    O...    MOV      r12,#1
        0x000195d6:    bf00        ..      NOP      
        0x000195d8:    f0000307    ....    AND      r3,r0,#7
        0x000195dc:    4073        s@      EORS     r3,r3,r6
        0x000195de:    ea840904    ....    EOR      r9,r4,r4
        0x000195e2:    ea530309    S...    ORRS     r3,r3,r9
        0x000195e6:    d109        ..      BNE      0x195fc ; am_hal_dcu_get + 108
        0x000195e8:    e003        ..      B        0x195f2 ; am_hal_dcu_get + 98
        0x000195ea:    b003        ..      ADD      sp,sp,#0xc
        0x000195ec:    2007        .       MOVS     r0,#7
        0x000195ee:    e8bd83f0    ....    POP      {r4-r9,pc}
        0x000195f2:    f1c20314    ....    RSB      r3,r2,#0x14
        0x000195f6:    fa0cf303    ....    LSL      r3,r12,r3
        0x000195fa:    431d        .C      ORRS     r5,r5,r3
        0x000195fc:    08c0        ..      LSRS     r0,r0,#3
        0x000195fe:    ea407041    @.Ap    ORR      r0,r0,r1,LSL #29
        0x00019602:    08c9        ..      LSRS     r1,r1,#3
        0x00019604:    1e52        R.      SUBS     r2,r2,#1
        0x00019606:    d1e7        ..      BNE      0x195d8 ; am_hal_dcu_get + 72
        0x00019608:    f8c85000    ...P    STR      r5,[r8,#0]
        0x0001960c:    b003        ..      ADD      sp,sp,#0xc
        0x0001960e:    4638        8F      MOV      r0,r7
        0x00019610:    e8bd83f0    ....    POP      {r4-r9,pc}
    $d
        0x00019614:    40021000    ...@    DCD    1073876992
        0x00019618:    400c0a7c    |..@    DCD    1074530940
        0x0001961c:    10000128    (...    DCD    268435752
    $t
    i.am_hal_dcu_update
    am_hal_dcu_update
        0x00019620:    e92d4ff0    -..O    PUSH     {r4-r11,lr}
        0x00019624:    4681        .F      MOV      r9,r0
        0x00019626:    4834        4H      LDR      r0,[pc,#208] ; [0x196f8] = 0x40021000
        0x00019628:    b085        ..      SUB      sp,sp,#0x14
        0x0001962a:    6880        .h      LDR      r0,[r0,#8]
        0x0001962c:    f4101f80    ....    TST      r0,#0x100000
        0x00019630:    d02a        *.      BEQ      0x19688 ; am_hal_dcu_update + 104
        0x00019632:    f8dfa0c8    ....    LDR      r10,[pc,#200] ; [0x196fc] = 0x400c0a7c
        0x00019636:    f8da0000    ....    LDR      r0,[r10,#0]
        0x0001963a:    f0100f01    ....    TST      r0,#1
        0x0001963e:    d023        #.      BEQ      0x19688 ; am_hal_dcu_update + 104
        0x00019640:    f8df80bc    ....    LDR      r8,[pc,#188] ; [0x19700] = 0x10000128
        0x00019644:    2700        .'      MOVS     r7,#0
        0x00019646:    084d        M.      LSRS     r5,r1,#1
        0x00019648:    f8d8b000    ....    LDR      r11,[r8,#0]
        0x0001964c:    463e        >F      MOV      r6,r7
        0x0001964e:    2414        .$      MOVS     r4,#0x14
        0x00019650:    f0150f01    ....    TST      r5,#1
        0x00019654:    d006        ..      BEQ      0x19664 ; am_hal_dcu_update + 68
        0x00019656:    465a        ZF      MOV      r2,r11
        0x00019658:    2007        .       MOVS     r0,#7
        0x0001965a:    2100        .!      MOVS     r1,#0
        0x0001965c:    f7fefe94    ....    BL       __aeabi_llsl ; 0x18388
        0x00019660:    4307        .C      ORRS     r7,r7,r0
        0x00019662:    430e        .C      ORRS     r6,r6,r1
        0x00019664:    086d        m.      LSRS     r5,r5,#1
        0x00019666:    1e64        d.      SUBS     r4,r4,#1
        0x00019668:    f10b0b03    ....    ADD      r11,r11,#3
        0x0001966c:    2c00        .,      CMP      r4,#0
        0x0001966e:    dcef        ..      BGT      0x19650 ; am_hal_dcu_update + 48
        0x00019670:    2202        ."      MOVS     r2,#2
        0x00019672:    a802        ..      ADD      r0,sp,#8
        0x00019674:    f8d81008    ....    LDR      r1,[r8,#8]
        0x00019678:    f002fc9e    ....    BL       copy_words ; 0x1bfb8
        0x0001967c:    e9dd1002    ....    LDRD     r1,r0,[sp,#8]
        0x00019680:    4039        9@      ANDS     r1,r1,r7
        0x00019682:    4030        0@      ANDS     r0,r0,r6
        0x00019684:    4308        .C      ORRS     r0,r0,r1
        0x00019686:    d003        ..      BEQ      0x19690 ; am_hal_dcu_update + 112
        0x00019688:    b005        ..      ADD      sp,sp,#0x14
        0x0001968a:    2007        .       MOVS     r0,#7
        0x0001968c:    e8bd8ff0    ....    POP      {r4-r11,pc}
        0x00019690:    2202        ."      MOVS     r2,#2
        0x00019692:    4668        hF      MOV      r0,sp
        0x00019694:    f8d81004    ....    LDR      r1,[r8,#4]
        0x00019698:    f002fc8e    ....    BL       copy_words ; 0x1bfb8
        0x0001969c:    f1b90f00    ....    CMP      r9,#0
        0x000196a0:    d00d        ..      BEQ      0x196be ; am_hal_dcu_update + 158
        0x000196a2:    e9dd1000    ....    LDRD     r1,r0,[sp,#0]
        0x000196a6:    ea210207    !...    BIC      r2,r1,r7
        0x000196aa:    e9d83104    ...1    LDRD     r3,r1,[r8,#0x10]
        0x000196ae:    403b        ;@      ANDS     r3,r3,r7
        0x000196b0:    43b0        .C      BICS     r0,r0,r6
        0x000196b2:    4031        1@      ANDS     r1,r1,r6
        0x000196b4:    431a        .C      ORRS     r2,r2,r3
        0x000196b6:    4308        .C      ORRS     r0,r0,r1
        0x000196b8:    e9cd2000    ...     STRD     r2,r0,[sp,#0]
        0x000196bc:    e00c        ..      B        0x196d8 ; am_hal_dcu_update + 184
        0x000196be:    e9dd0100    ....    LDRD     r0,r1,[sp,#0]
        0x000196c2:    ea210206    !...    BIC      r2,r1,r6
        0x000196c6:    e9d83106    ...1    LDRD     r3,r1,[r8,#0x18]
        0x000196ca:    43b8        .C      BICS     r0,r0,r7
        0x000196cc:    403b        ;@      ANDS     r3,r3,r7
        0x000196ce:    4031        1@      ANDS     r1,r1,r6
        0x000196d0:    4318        .C      ORRS     r0,r0,r3
        0x000196d2:    4311        .C      ORRS     r1,r1,r2
        0x000196d4:    e9cd0100    ....    STRD     r0,r1,[sp,#0]
        0x000196d8:    2202        ."      MOVS     r2,#2
        0x000196da:    4669        iF      MOV      r1,sp
        0x000196dc:    f8d80004    ....    LDR      r0,[r8,#4]
        0x000196e0:    f002fc6a    ..j.    BL       copy_words ; 0x1bfb8
        0x000196e4:    f8da0000    ....    LDR      r0,[r10,#0]
        0x000196e8:    f0100f01    ....    TST      r0,#1
        0x000196ec:    d0fa        ..      BEQ      0x196e4 ; am_hal_dcu_update + 196
        0x000196ee:    b005        ..      ADD      sp,sp,#0x14
        0x000196f0:    2000        .       MOVS     r0,#0
        0x000196f2:    e8bd8ff0    ....    POP      {r4-r11,pc}
    $d
        0x000196f6:    0000        ..      DCW    0
        0x000196f8:    40021000    ...@    DCD    1073876992
        0x000196fc:    400c0a7c    |..@    DCD    1074530940
        0x00019700:    10000128    (...    DCD    268435752
    $t
    i.am_hal_delay_us
    am_hal_delay_us
        0x00019704:    4908        .I      LDR      r1,[pc,#32] ; [0x19728] = 0x40021000
        0x00019706:    0140        @.      LSLS     r0,r0,#5
        0x00019708:    6809        .h      LDR      r1,[r1,#0]
        0x0001970a:    f3c101c1    ....    UBFX     r1,r1,#3,#2
        0x0001970e:    2902        .)      CMP      r1,#2
        0x00019710:    bf06        ..      ITTE     EQ
        0x00019712:    0040        @.      LSLEQ    r0,r0,#1
        0x00019714:    2115        .!      MOVEQ    r1,#0x15
        0x00019716:    210f        .!      MOVNE    r1,#0xf
        0x00019718:    4288        .B      CMP      r0,r1
        0x0001971a:    bf98        ..      IT       LS
        0x0001971c:    4770        pG      BXLS     lr
        0x0001971e:    1a40        @.      SUBS     r0,r0,r1
        0x00019720:    4902        .I      LDR      r1,[pc,#8] ; [0x1972c] = 0x1d160
        0x00019722:    6a49        Ij      LDR      r1,[r1,#0x24]
        0x00019724:    4708        .G      BX       r1
    $d
        0x00019726:    0000        ..      DCW    0
        0x00019728:    40021000    ...@    DCD    1073876992
        0x0001972c:    0001d160    `...    DCD    119136
    $t
    i.am_hal_delay_us_status_change
    am_hal_delay_us_status_change
        0x00019730:    e92d47f0    -..G    PUSH     {r4-r10,lr}
        0x00019734:    f8df8048    ..H.    LDR      r8,[pc,#72] ; [0x19780] = 0x40021000
        0x00019738:    f8df9048    ..H.    LDR      r9,[pc,#72] ; [0x19784] = 0x1d160
        0x0001973c:    461d        .F      MOV      r5,r3
        0x0001973e:    4616        .F      MOV      r6,r2
        0x00019740:    460f        .F      MOV      r7,r1
        0x00019742:    4604        .F      MOV      r4,r0
        0x00019744:    6838        8h      LDR      r0,[r7,#0]
        0x00019746:    4030        0@      ANDS     r0,r0,r6
        0x00019748:    42a8        .B      CMP      r0,r5
        0x0001974a:    d102        ..      BNE      0x19752 ; am_hal_delay_us_status_change + 34
        0x0001974c:    2000        .       MOVS     r0,#0
        0x0001974e:    e8bd87f0    ....    POP      {r4-r10,pc}
        0x00019752:    1e64        d.      SUBS     r4,r4,#1
        0x00019754:    d311        ..      BCC      0x1977a ; am_hal_delay_us_status_change + 74
        0x00019756:    f8d81000    ....    LDR      r1,[r8,#0]
        0x0001975a:    2020                MOVS     r0,#0x20
        0x0001975c:    f3c101c1    ....    UBFX     r1,r1,#3,#2
        0x00019760:    2902        .)      CMP      r1,#2
        0x00019762:    bf06        ..      ITTE     EQ
        0x00019764:    2040        @       MOVEQ    r0,#0x40
        0x00019766:    f04f0c15    O...    MOVEQ    r12,#0x15
        0x0001976a:    f04f0c0f    O...    MOVNE    r12,#0xf
        0x0001976e:    eba0000c    ....    SUB      r0,r0,r12
        0x00019772:    f8d91024    ..$.    LDR      r1,[r9,#0x24]
        0x00019776:    4788        .G      BLX      r1
        0x00019778:    e7e4        ..      B        0x19744 ; am_hal_delay_us_status_change + 20
        0x0001977a:    2004        .       MOVS     r0,#4
        0x0001977c:    e8bd87f0    ....    POP      {r4-r10,pc}
    $d
        0x00019780:    40021000    ...@    DCD    1073876992
        0x00019784:    0001d160    `...    DCD    119136
    $t
    i.am_hal_delay_us_status_check
    am_hal_delay_us_status_check
        0x00019788:    e92d47f0    -..G    PUSH     {r4-r10,lr}
        0x0001978c:    f8df9054    ..T.    LDR      r9,[pc,#84] ; [0x197e4] = 0x40021000
        0x00019790:    f8dfa054    ..T.    LDR      r10,[pc,#84] ; [0x197e8] = 0x1d160
        0x00019794:    f8dd8020    .. .    LDR      r8,[sp,#0x20]
        0x00019798:    461c        .F      MOV      r4,r3
        0x0001979a:    4615        .F      MOV      r5,r2
        0x0001979c:    460e        .F      MOV      r6,r1
        0x0001979e:    4607        .F      MOV      r7,r0
        0x000197a0:    6830        0h      LDR      r0,[r6,#0]
        0x000197a2:    f1b80f00    ....    CMP      r8,#0
        0x000197a6:    ea000005    ....    AND      r0,r0,r5
        0x000197aa:    d002        ..      BEQ      0x197b2 ; am_hal_delay_us_status_check + 42
        0x000197ac:    42a0        .B      CMP      r0,r4
        0x000197ae:    d002        ..      BEQ      0x197b6 ; am_hal_delay_us_status_check + 46
        0x000197b0:    e004        ..      B        0x197bc ; am_hal_delay_us_status_check + 52
        0x000197b2:    42a0        .B      CMP      r0,r4
        0x000197b4:    d002        ..      BEQ      0x197bc ; am_hal_delay_us_status_check + 52
        0x000197b6:    2000        .       MOVS     r0,#0
        0x000197b8:    e8bd87f0    ....    POP      {r4-r10,pc}
        0x000197bc:    1e7f        ..      SUBS     r7,r7,#1
        0x000197be:    d30e        ..      BCC      0x197de ; am_hal_delay_us_status_check + 86
        0x000197c0:    f8d91000    ....    LDR      r1,[r9,#0]
        0x000197c4:    2020                MOVS     r0,#0x20
        0x000197c6:    f3c101c1    ....    UBFX     r1,r1,#3,#2
        0x000197ca:    2902        .)      CMP      r1,#2
        0x000197cc:    bf06        ..      ITTE     EQ
        0x000197ce:    2040        @       MOVEQ    r0,#0x40
        0x000197d0:    2115        .!      MOVEQ    r1,#0x15
        0x000197d2:    210f        .!      MOVNE    r1,#0xf
        0x000197d4:    1a40        @.      SUBS     r0,r0,r1
        0x000197d6:    f8da1024    ..$.    LDR      r1,[r10,#0x24]
        0x000197da:    4788        .G      BLX      r1
        0x000197dc:    e7e0        ..      B        0x197a0 ; am_hal_delay_us_status_check + 24
        0x000197de:    2004        .       MOVS     r0,#4
        0x000197e0:    e8bd87f0    ....    POP      {r4-r10,pc}
    $d
        0x000197e4:    40021000    ...@    DCD    1073876992
        0x000197e8:    0001d160    `...    DCD    119136
    $t
    i.am_hal_fault_capture_enable
    am_hal_fault_capture_enable
        0x000197ec:    f04f4090    O..@    MOV      r0,#0x48000000
        0x000197f0:    f8501f90    P...    LDR      r1,[r0,#0x90]!
        0x000197f4:    f0410101    A...    ORR      r1,r1,#1
        0x000197f8:    6001        .`      STR      r1,[r0,#0]
        0x000197fa:    2000        .       MOVS     r0,#0
        0x000197fc:    4770        pG      BX       lr
    i.am_hal_fault_status_get
    am_hal_fault_status_get
        0x000197fe:    2800        .(      CMP      r0,#0
        0x00019800:    bf04        ..      ITT      EQ
        0x00019802:    2006        .       MOVEQ    r0,#6
        0x00019804:    4770        pG      BXEQ     lr
        0x00019806:    f04f4190    O..A    MOV      r1,#0x48000000
        0x0001980a:    f8d1208c    ...     LDR      r2,[r1,#0x8c]
        0x0001980e:    f0020301    ....    AND      r3,r2,#1
        0x00019812:    7003        .p      STRB     r3,[r0,#0]
        0x00019814:    f3c20340    ..@.    UBFX     r3,r2,#1,#1
        0x00019818:    7203        .r      STRB     r3,[r0,#8]
        0x0001981a:    f3c20280    ....    UBFX     r2,r2,#2,#1
        0x0001981e:    7402        .t      STRB     r2,[r0,#0x10]
        0x00019820:    f8d12084    ...     LDR      r2,[r1,#0x84]
        0x00019824:    60c2        .`      STR      r2,[r0,#0xc]
        0x00019826:    6842        Bh      LDR      r2,[r0,#4]
        0x00019828:    f8513f80    Q..?    LDR      r3,[r1,#0x80]!
        0x0001982c:    431a        .C      ORRS     r2,r2,r3
        0x0001982e:    6042        B`      STR      r2,[r0,#4]
        0x00019830:    6942        Bi      LDR      r2,[r0,#0x14]
        0x00019832:    6889        .h      LDR      r1,[r1,#8]
        0x00019834:    4311        .C      ORRS     r1,r1,r2
        0x00019836:    6141        Aa      STR      r1,[r0,#0x14]
        0x00019838:    2000        .       MOVS     r0,#0
        0x0001983a:    4770        pG      BX       lr
    i.am_hal_gpio_pinconfig
    am_hal_gpio_pinconfig
        0x0001983c:    b403        ..      PUSH     {r0,r1}
        0x0001983e:    4912        .I      LDR      r1,[pc,#72] ; [0x19888] = 0x40010000
        0x00019840:    2880        .(      CMP      r0,#0x80
        0x00019842:    bf82        ..      ITTT     HI
        0x00019844:    2005        .       MOVHI    r0,#5
        0x00019846:    b002        ..      ADDHI    sp,sp,#8
        0x00019848:    4770        pG      BXHI     lr
        0x0001984a:    9a01        ..      LDR      r2,[sp,#4]
        0x0001984c:    f3c22281    ..."    UBFX     r2,r2,#10,#2
        0x00019850:    2a01        .*      CMP      r2,#1
        0x00019852:    d90e        ..      BLS      0x19872 ; am_hal_gpio_pinconfig + 54
        0x00019854:    4b0d        .K      LDR      r3,[pc,#52] ; [0x1988c] = 0x1d344
        0x00019856:    0942        B.      LSRS     r2,r0,#5
        0x00019858:    f04f0c01    O...    MOV      r12,#1
        0x0001985c:    f8532022    S."     LDR      r2,[r3,r2,LSL #2]
        0x00019860:    f000031f    ....    AND      r3,r0,#0x1f
        0x00019864:    fa0cf303    ....    LSL      r3,r12,r3
        0x00019868:    421a        .B      TST      r2,r3
        0x0001986a:    bf02        ..      ITTT     EQ
        0x0001986c:    2007        .       MOVEQ    r0,#7
        0x0001986e:    b002        ..      ADDEQ    sp,sp,#8
        0x00019870:    4770        pG      BXEQ     lr
        0x00019872:    2273        s"      MOVS     r2,#0x73
        0x00019874:    f8c12200    ..."    STR      r2,[r1,#0x200]
        0x00019878:    9a01        ..      LDR      r2,[sp,#4]
        0x0001987a:    f8412020    A.      STR      r2,[r1,r0,LSL #2]
        0x0001987e:    2000        .       MOVS     r0,#0
        0x00019880:    f8c10200    ....    STR      r0,[r1,#0x200]
        0x00019884:    b002        ..      ADD      sp,sp,#8
        0x00019886:    4770        pG      BX       lr
    $d
        0x00019888:    40010000    ...@    DCD    1073807360
        0x0001988c:    0001d344    D...    DCD    119620
    $t
    i.am_hal_iom_blocking_transfer
    am_hal_iom_blocking_transfer
        0x00019890:    e92d4ff0    -..O    PUSH     {r4-r11,lr}
        0x00019894:    b087        ..      SUB      sp,sp,#0x1c
        0x00019896:    460c        .F      MOV      r4,r1
        0x00019898:    f1b00800    ....    SUBS     r8,r0,#0
        0x0001989c:    f04f0700    O...    MOV      r7,#0
        0x000198a0:    bf1c        ..      ITT      NE
        0x000198a2:    f8d80000    ....    LDRNE    r0,[r8,#0]
        0x000198a6:    f0107f80    ....    TSTNE    r0,#0x1000000
        0x000198aa:    d004        ..      BEQ      0x198b6 ; am_hal_iom_blocking_transfer + 38
        0x000198ac:    49bd        .I      LDR      r1,[pc,#756] ; [0x19ba4] = 0x123456
        0x000198ae:    f020407f     ..@    BIC      r0,r0,#0xff000000
        0x000198b2:    4288        .B      CMP      r0,r1
        0x000198b4:    d003        ..      BEQ      0x198be ; am_hal_iom_blocking_transfer + 46
        0x000198b6:    b007        ..      ADD      sp,sp,#0x1c
        0x000198b8:    2002        .       MOVS     r0,#2
        0x000198ba:    e8bd8ff0    ....    POP      {r4-r11,pc}
        0x000198be:    2c00        .,      CMP      r4,#0
        0x000198c0:    bf02        ..      ITTT     EQ
        0x000198c2:    2006        .       MOVEQ    r0,#6
        0x000198c4:    b007        ..      ADDEQ    sp,sp,#0x1c
        0x000198c6:    e8bd8ff0    ....    POPEQ    {r4-r11,pc}
        0x000198ca:    7d20         }      LDRB     r0,[r4,#0x14]
        0x000198cc:    2801        .(      CMP      r0,#1
        0x000198ce:    d87c        |.      BHI      0x199ca ; am_hal_iom_blocking_transfer + 314
        0x000198d0:    f8d49010    ....    LDR      r9,[r4,#0x10]
        0x000198d4:    f1b90f00    ....    CMP      r9,#0
        0x000198d8:    bf04        ..      ITT      EQ
        0x000198da:    2000        .       MOVEQ    r0,#0
        0x000198dc:    7520         u      STRBEQ   r0,[r4,#0x14]
        0x000198de:    2201        ."      MOVS     r2,#1
        0x000198e0:    4621        !F      MOV      r1,r4
        0x000198e2:    4640        @F      MOV      r0,r8
        0x000198e4:    f003faf6    ....    BL       validate_transaction ; 0x1ced4
        0x000198e8:    2800        .(      CMP      r0,#0
        0x000198ea:    bf1c        ..      ITT      NE
        0x000198ec:    b007        ..      ADDNE    sp,sp,#0x1c
        0x000198ee:    e8bd8ff0    ....    POPNE    {r4-r11,pc}
        0x000198f2:    f898082c    ..,.    LDRB     r0,[r8,#0x82c]
        0x000198f6:    2802        .(      CMP      r0,#2
        0x000198f8:    d067        g.      BEQ      0x199ca ; am_hal_iom_blocking_transfer + 314
        0x000198fa:    e9d4b002    ....    LDRD     r11,r0,[r4,#8]
        0x000198fe:    f8d85004    ...P    LDR      r5,[r8,#4]
        0x00019902:    9004        ..      STR      r0,[sp,#0x10]
        0x00019904:    6860        `h      LDR      r0,[r4,#4]
        0x00019906:    9002        ..      STR      r0,[sp,#8]
        0x00019908:    f8940020    .. .    LDRB     r0,[r4,#0x20]
        0x0001990c:    f894a014    ....    LDRB     r10,[r4,#0x14]
        0x00019910:    2800        .(      CMP      r0,#0
        0x00019912:    bf18        ..      IT       NE
        0x00019914:    2001        .       MOVNE    r0,#1
        0x00019916:    9001        ..      STR      r0,[sp,#4]
        0x00019918:    f1ba0f00    ....    CMP      r10,#0
        0x0001991c:    bf0c        ..      ITE      EQ
        0x0001991e:    69a6        .i      LDREQ    r6,[r4,#0x18]
        0x00019920:    69e6        .i      LDRNE    r6,[r4,#0x1c]
        0x00019922:    2001        .       MOVS     r0,#1
        0x00019924:    9000        ..      STR      r0,[sp,#0]
        0x00019926:    2300        .#      MOVS     r3,#0
        0x00019928:    1e5a        Z.      SUBS     r2,r3,#1
        0x0001992a:    f1080124    ..$.    ADD      r1,r8,#0x24
        0x0001992e:    f8d80860    ..`.    LDR      r0,[r8,#0x860]
        0x00019932:    f7ffff29    ..).    BL       am_hal_delay_us_status_check ; 0x19788
        0x00019936:    2800        .(      CMP      r0,#0
        0x00019938:    bf1c        ..      ITT      NE
        0x0001993a:    b007        ..      ADDNE    sp,sp,#0x1c
        0x0001993c:    e8bd8ff0    ....    POPNE    {r4-r11,pc}
        0x00019940:    2001        .       MOVS     r0,#1
        0x00019942:    9000        ..      STR      r0,[sp,#0]
        0x00019944:    4898        .H      LDR      r0,[pc,#608] ; [0x19ba8] = 0x40050248
        0x00019946:    2304        .#      MOVS     r3,#4
        0x00019948:    eb003105    ...1    ADD      r1,r0,r5,LSL #12
        0x0001994c:    9103        ..      STR      r1,[sp,#0xc]
        0x0001994e:    2206        ."      MOVS     r2,#6
        0x00019950:    f8d80860    ..`.    LDR      r0,[r8,#0x860]
        0x00019954:    f7ffff18    ....    BL       am_hal_delay_us_status_check ; 0x19788
        0x00019958:    2800        .(      CMP      r0,#0
        0x0001995a:    bf1c        ..      ITT      NE
        0x0001995c:    b007        ..      ADDNE    sp,sp,#0x1c
        0x0001995e:    e8bd8ff0    ....    POPNE    {r4-r11,pc}
        0x00019962:    0328        (.      LSLS     r0,r5,#12
        0x00019964:    f1004580    ...E    ADD      r5,r0,#0x40000000
        0x00019968:    f50525a0    ...%    ADD      r5,r5,#0x50000
        0x0001996c:    f8d50200    ....    LDR      r0,[r5,#0x200]
        0x00019970:    9005        ..      STR      r0,[sp,#0x14]
        0x00019972:    2000        .       MOVS     r0,#0
        0x00019974:    f8c50200    ....    STR      r0,[r5,#0x200]
        0x00019978:    f8d50218    ....    LDR      r0,[r5,#0x218]
        0x0001997c:    f0200001     ...    BIC      r0,r0,#1
        0x00019980:    f8c50218    ....    STR      r0,[r5,#0x218]
        0x00019984:    f04f30ff    O..0    MOV      r0,#0xffffffff
        0x00019988:    f8c50208    ....    STR      r0,[r5,#0x208]
        0x0001998c:    6820         h      LDR      r0,[r4,#0]
        0x0001998e:    f8c502c4    ....    STR      r0,[r5,#0x2c4]
        0x00019992:    f8980008    ....    LDRB     r0,[r8,#8]
        0x00019996:    2800        .(      CMP      r0,#0
        0x00019998:    bf11        ..      ITEEE    NE
        0x0001999a:    2000        .       MOVNE    r0,#0
        0x0001999c:    6820         h      LDREQ    r0,[r4,#0]
        0x0001999e:    f508610a    ...a    ADDEQ    r1,r8,#0x8a0
        0x000199a2:    5c40        @\      LDRBEQ   r0,[r0,r1]
        0x000199a4:    f8c50124    ..$.    STR      r0,[r5,#0x124]
        0x000199a8:    f8980008    ....    LDRB     r0,[r8,#8]
        0x000199ac:    2800        .(      CMP      r0,#0
        0x000199ae:    bf0c        ..      ITE      EQ
        0x000199b0:    6820         h      LDREQ    r0,[r4,#0]
        0x000199b2:    2000        .       MOVNE    r0,#0
        0x000199b4:    f44f1340    O.@.    MOV      r3,#0x300000
        0x000199b8:    ea035000    ...P    AND      r0,r3,r0,LSL #20
        0x000199bc:    4b7b        {K      LDR      r3,[pc,#492] ; [0x19bac] = 0xfffff
        0x000199be:    ea032309    ...#    AND      r3,r3,r9,LSL #8
        0x000199c2:    4318        .C      ORRS     r0,r0,r3
        0x000199c4:    f8df91e8    ....    LDR      r9,[pc,#488] ; [0x19bb0] = 0x7a120
        0x000199c8:    e000        ..      B        0x199cc ; am_hal_iom_blocking_transfer + 316
        0x000199ca:    e04f        O.      B        0x19a6c ; am_hal_iom_blocking_transfer + 476
        0x000199cc:    e9dd2101    ...!    LDRD     r2,r1,[sp,#4]
        0x000199d0:    f1ba0f01    ....    CMP      r10,#1
        0x000199d4:    bf0c        ..      ITE      EQ
        0x000199d6:    f0400002    @...    ORREQ    r0,r0,#2
        0x000199da:    f0400001    @...    ORRNE    r0,r0,#1
        0x000199de:    f04f0380    O...    MOV      r3,#0x80
        0x000199e2:    ea0312c2    ....    AND      r2,r3,r2,LSL #7
        0x000199e6:    ea420000    B...    ORR      r0,r2,r0
        0x000199ea:    f04f0270    O.p.    MOV      r2,#0x70
        0x000199ee:    ea40600b    @..`    ORR      r0,r0,r11,LSL #24
        0x000199f2:    ea021101    ....    AND      r1,r2,r1,LSL #4
        0x000199f6:    ea410000    A...    ORR      r0,r1,r0
        0x000199fa:    9904        ..      LDR      r1,[sp,#0x10]
        0x000199fc:    ea4f221b    O.."    LSR      r2,r11,#8
        0x00019a00:    ea426101    B..a    ORR      r1,r2,r1,LSL #24
        0x00019a04:    f8c51128    ..(.    STR      r1,[r5,#0x128]
        0x00019a08:    6924        $i      LDR      r4,[r4,#0x10]
        0x00019a0a:    d008        ..      BEQ      0x19a1e ; am_hal_iom_blocking_transfer + 398
        0x00019a0c:    f1ba0f00    ....    CMP      r10,#0
        0x00019a10:    bf04        ..      ITT      EQ
        0x00019a12:    f8d51100    ....    LDREQ    r1,[r5,#0x100]
        0x00019a16:    f3c12107    ...!    UBFXEQ   r1,r1,#8,#8
        0x00019a1a:    d05a        Z.      BEQ      0x19ad2 ; am_hal_iom_blocking_transfer + 578
        0x00019a1c:    e08d        ..      B        0x19b3a ; am_hal_iom_blocking_transfer + 682
        0x00019a1e:    f8c50120    .. .    STR      r0,[r5,#0x120]
        0x00019a22:    2c00        .,      CMP      r4,#0
        0x00019a24:    d047        G.      BEQ      0x19ab6 ; am_hal_iom_blocking_transfer + 550
        0x00019a26:    bf00        ..      NOP      
        0x00019a28:    f8d50100    ....    LDR      r0,[r5,#0x100]
        0x00019a2c:    f3c04307    ...C    UBFX     r3,r0,#16,#8
        0x00019a30:    2b04        .+      CMP      r3,#4
        0x00019a32:    bf38        8.      IT       CC
        0x00019a34:    f04f0a01    O...    MOVCC    r10,#1
        0x00019a38:    d23b        ;.      BCS      0x19ab2 ; am_hal_iom_blocking_transfer + 546
        0x00019a3a:    2f00        ./      CMP      r7,#0
        0x00019a3c:    bf18        ..      IT       NE
        0x00019a3e:    429c        .B      CMPNE    r4,r3
        0x00019a40:    d811        ..      BHI      0x19a66 ; am_hal_iom_blocking_transfer + 470
        0x00019a42:    2001        .       MOVS     r0,#1
        0x00019a44:    f7fffe5e    ..^.    BL       am_hal_delay_us ; 0x19704
        0x00019a48:    f8d50204    ....    LDR      r0,[r5,#0x204]
        0x00019a4c:    f0000701    ....    AND      r7,r0,#1
        0x00019a50:    f8d50100    ....    LDR      r0,[r5,#0x100]
        0x00019a54:    f3c04307    ...C    UBFX     r3,r0,#16,#8
        0x00019a58:    2b04        .+      CMP      r3,#4
        0x00019a5a:    d22a        *.      BCS      0x19ab2 ; am_hal_iom_blocking_transfer + 546
        0x00019a5c:    4650        PF      MOV      r0,r10
        0x00019a5e:    f10a0a01    ....    ADD      r10,r10,#1
        0x00019a62:    4548        HE      CMP      r0,r9
        0x00019a64:    d3e9        ..      BCC      0x19a3a ; am_hal_iom_blocking_transfer + 426
        0x00019a66:    2b04        .+      CMP      r3,#4
        0x00019a68:    d367        g.      BCC      0x19b3a ; am_hal_iom_blocking_transfer + 682
        0x00019a6a:    e022        ".      B        0x19ab2 ; am_hal_iom_blocking_transfer + 546
        0x00019a6c:    b007        ..      ADD      sp,sp,#0x1c
        0x00019a6e:    2007        .       MOVS     r0,#7
        0x00019a70:    e8bd8ff0    ....    POP      {r4-r11,pc}
        0x00019a74:    f8d51108    ....    LDR      r1,[r5,#0x108]
        0x00019a78:    1f1b        ..      SUBS     r3,r3,#4
        0x00019a7a:    2c04        .,      CMP      r4,#4
        0x00019a7c:    d303        ..      BCC      0x19a86 ; am_hal_iom_blocking_transfer + 502
        0x00019a7e:    f8461b04    F...    STR      r1,[r6],#4
        0x00019a82:    1f24        $.      SUBS     r4,r4,#4
        0x00019a84:    e013        ..      B        0x19aae ; am_hal_iom_blocking_transfer + 542
        0x00019a86:    2c01        .,      CMP      r4,#1
        0x00019a88:    bfd8        ..      IT       LE
        0x00019a8a:    2401        .$      MOVLE    r4,#1
        0x00019a8c:    1e72        r.      SUBS     r2,r6,#1
        0x00019a8e:    f0140f01    ....    TST      r4,#1
        0x00019a92:    d002        ..      BEQ      0x19a9a ; am_hal_iom_blocking_transfer + 522
        0x00019a94:    f8021f01    ....    STRB     r1,[r2,#1]!
        0x00019a98:    0a09        ..      LSRS     r1,r1,#8
        0x00019a9a:    1060        `.      ASRS     r0,r4,#1
        0x00019a9c:    d006        ..      BEQ      0x19aac ; am_hal_iom_blocking_transfer + 540
        0x00019a9e:    7051        Qp      STRB     r1,[r2,#1]
        0x00019aa0:    0a09        ..      LSRS     r1,r1,#8
        0x00019aa2:    f8021f02    ....    STRB     r1,[r2,#2]!
        0x00019aa6:    0a09        ..      LSRS     r1,r1,#8
        0x00019aa8:    1e40        @.      SUBS     r0,r0,#1
        0x00019aaa:    d1f8        ..      BNE      0x19a9e ; am_hal_iom_blocking_transfer + 526
        0x00019aac:    2400        .$      MOVS     r4,#0
        0x00019aae:    2b04        .+      CMP      r3,#4
        0x00019ab0:    d302        ..      BCC      0x19ab8 ; am_hal_iom_blocking_transfer + 552
        0x00019ab2:    2c00        .,      CMP      r4,#0
        0x00019ab4:    d1de        ..      BNE      0x19a74 ; am_hal_iom_blocking_transfer + 484
        0x00019ab6:    e040        @.      B        0x19b3a ; am_hal_iom_blocking_transfer + 682
        0x00019ab8:    2c00        .,      CMP      r4,#0
        0x00019aba:    d1b5        ..      BNE      0x19a28 ; am_hal_iom_blocking_transfer + 408
        0x00019abc:    e03d        =.      B        0x19b3a ; am_hal_iom_blocking_transfer + 682
        0x00019abe:    bf00        ..      NOP      
        0x00019ac0:    f8562b04    V..+    LDR      r2,[r6],#4
        0x00019ac4:    f8c5210c    ...!    STR      r2,[r5,#0x10c]
        0x00019ac8:    1f09        ..      SUBS     r1,r1,#4
        0x00019aca:    2c04        .,      CMP      r4,#4
        0x00019acc:    bf2c        ,.      ITE      CS
        0x00019ace:    1f24        $.      SUBCS    r4,r4,#4
        0x00019ad0:    2400        .$      MOVCC    r4,#0
        0x00019ad2:    2904        .)      CMP      r1,#4
        0x00019ad4:    d304        ..      BCC      0x19ae0 ; am_hal_iom_blocking_transfer + 592
        0x00019ad6:    2c00        .,      CMP      r4,#0
        0x00019ad8:    d1f2        ..      BNE      0x19ac0 ; am_hal_iom_blocking_transfer + 560
        0x00019ada:    f8c50120    .. .    STR      r0,[r5,#0x120]
        0x00019ade:    e02c        ,.      B        0x19b3a ; am_hal_iom_blocking_transfer + 682
        0x00019ae0:    f8c50120    .. .    STR      r0,[r5,#0x120]
        0x00019ae4:    b34c        L.      CBZ      r4,0x19b3a ; am_hal_iom_blocking_transfer + 682
        0x00019ae6:    f8d50100    ....    LDR      r0,[r5,#0x100]
        0x00019aea:    2700        .'      MOVS     r7,#0
        0x00019aec:    f3c02007    ...     UBFX     r0,r0,#8,#8
        0x00019af0:    2804        .(      CMP      r0,#4
        0x00019af2:    d214        ..      BCS      0x19b1e ; am_hal_iom_blocking_transfer + 654
        0x00019af4:    f8d51204    ....    LDR      r1,[r5,#0x204]
        0x00019af8:    f0110f01    ....    TST      r1,#1
        0x00019afc:    d11d        ..      BNE      0x19b3a ; am_hal_iom_blocking_transfer + 682
        0x00019afe:    4639        9F      MOV      r1,r7
        0x00019b00:    1c7f        ..      ADDS     r7,r7,#1
        0x00019b02:    4549        IE      CMP      r1,r9
        0x00019b04:    d209        ..      BCS      0x19b1a ; am_hal_iom_blocking_transfer + 650
        0x00019b06:    2001        .       MOVS     r0,#1
        0x00019b08:    f7fffdfc    ....    BL       am_hal_delay_us ; 0x19704
        0x00019b0c:    f8d50100    ....    LDR      r0,[r5,#0x100]
        0x00019b10:    f3c02007    ...     UBFX     r0,r0,#8,#8
        0x00019b14:    2804        .(      CMP      r0,#4
        0x00019b16:    d3ed        ..      BCC      0x19af4 ; am_hal_iom_blocking_transfer + 612
        0x00019b18:    e001        ..      B        0x19b1e ; am_hal_iom_blocking_transfer + 654
        0x00019b1a:    2804        .(      CMP      r0,#4
        0x00019b1c:    d30d        ..      BCC      0x19b3a ; am_hal_iom_blocking_transfer + 682
        0x00019b1e:    b164        d.      CBZ      r4,0x19b3a ; am_hal_iom_blocking_transfer + 682
        0x00019b20:    f8561b04    V...    LDR      r1,[r6],#4
        0x00019b24:    f8c5110c    ....    STR      r1,[r5,#0x10c]
        0x00019b28:    1f00        ..      SUBS     r0,r0,#4
        0x00019b2a:    2c04        .,      CMP      r4,#4
        0x00019b2c:    bf2c        ,.      ITE      CS
        0x00019b2e:    1f24        $.      SUBCS    r4,r4,#4
        0x00019b30:    2400        .$      MOVCC    r4,#0
        0x00019b32:    2804        .(      CMP      r0,#4
        0x00019b34:    d2f3        ..      BCS      0x19b1e ; am_hal_iom_blocking_transfer + 654
        0x00019b36:    2c00        .,      CMP      r4,#0
        0x00019b38:    d1d5        ..      BNE      0x19ae6 ; am_hal_iom_blocking_transfer + 598
        0x00019b3a:    2001        .       MOVS     r0,#1
        0x00019b3c:    9000        ..      STR      r0,[sp,#0]
        0x00019b3e:    2304        .#      MOVS     r3,#4
        0x00019b40:    2206        ."      MOVS     r2,#6
        0x00019b42:    4648        HF      MOV      r0,r9
        0x00019b44:    9903        ..      LDR      r1,[sp,#0xc]
        0x00019b46:    f7fffe1f    ....    BL       am_hal_delay_us_status_check ; 0x19788
        0x00019b4a:    0006        ..      MOVS     r6,r0
        0x00019b4c:    d011        ..      BEQ      0x19b72 ; am_hal_iom_blocking_transfer + 738
        0x00019b4e:    bf00        ..      NOP      
        0x00019b50:    f8d51204    ....    LDR      r1,[r5,#0x204]
        0x00019b54:    4640        @F      MOV      r0,r8
        0x00019b56:    f002fbd5    ....    BL       internal_iom_reset_on_error ; 0x1c304
        0x00019b5a:    bf00        ..      NOP      
        0x00019b5c:    f04f30ff    O..0    MOV      r0,#0xffffffff
        0x00019b60:    f8c50208    ....    STR      r0,[r5,#0x208]
        0x00019b64:    9805        ..      LDR      r0,[sp,#0x14]
        0x00019b66:    f8c50200    ....    STR      r0,[r5,#0x200]
        0x00019b6a:    b007        ..      ADD      sp,sp,#0x1c
        0x00019b6c:    4630        0F      MOV      r0,r6
        0x00019b6e:    e8bd8ff0    ....    POP      {r4-r11,pc}
        0x00019b72:    f8d50204    ....    LDR      r0,[r5,#0x204]
        0x00019b76:    f0100f6c    ..l.    TST      r0,#0x6c
        0x00019b7a:    bf18        ..      IT       NE
        0x00019b7c:    f04f6600    O..f    MOVNE    r6,#0x8000000
        0x00019b80:    d1e6        ..      BNE      0x19b50 ; am_hal_iom_blocking_transfer + 704
        0x00019b82:    f4107f00    ....    TST      r0,#0x200
        0x00019b86:    bf18        ..      IT       NE
        0x00019b88:    4e0a        .N      LDRNE    r6,[pc,#40] ; [0x19bb4] = 0x8000001
        0x00019b8a:    d1e1        ..      BNE      0x19b50 ; am_hal_iom_blocking_transfer + 704
        0x00019b8c:    f0100f10    ....    TST      r0,#0x10
        0x00019b90:    bf18        ..      IT       NE
        0x00019b92:    4e09        .N      LDRNE    r6,[pc,#36] ; [0x19bb8] = 0x8000002
        0x00019b94:    d1dc        ..      BNE      0x19b50 ; am_hal_iom_blocking_transfer + 704
        0x00019b96:    f4104f90    ...O    TST      r0,#0x4800
        0x00019b9a:    bf0c        ..      ITE      EQ
        0x00019b9c:    2c00        .,      CMPEQ    r4,#0
        0x00019b9e:    2601        .&      MOVNE    r6,#1
        0x00019ba0:    d1d6        ..      BNE      0x19b50 ; am_hal_iom_blocking_transfer + 704
        0x00019ba2:    e7db        ..      B        0x19b5c ; am_hal_iom_blocking_transfer + 716
    $d
        0x00019ba4:    00123456    V4..    DCD    1193046
        0x00019ba8:    40050248    H..@    DCD    1074070088
        0x00019bac:    000fffff    ....    DCD    1048575
        0x00019bb0:    0007a120     ...    DCD    500000
        0x00019bb4:    08000001    ....    DCD    134217729
        0x00019bb8:    08000002    ....    DCD    134217730
    $t
    i.am_hal_iom_configure
    am_hal_iom_configure
        0x00019bbc:    e92d4ff0    -..O    PUSH     {r4-r11,lr}
        0x00019bc0:    1e02        ..      SUBS     r2,r0,#0
        0x00019bc2:    bf1c        ..      ITT      NE
        0x00019bc4:    6813        .h      LDRNE    r3,[r2,#0]
        0x00019bc6:    f0137f80    ....    TSTNE    r3,#0x1000000
        0x00019bca:    d005        ..      BEQ      0x19bd8 ; am_hal_iom_configure + 28
        0x00019bcc:    f8dfc268    ..h.    LDR      r12,[pc,#616] ; [0x19e38] = 0x123456
        0x00019bd0:    f023407f    #..@    BIC      r0,r3,#0xff000000
        0x00019bd4:    4560        `E      CMP      r0,r12
        0x00019bd6:    d002        ..      BEQ      0x19bde ; am_hal_iom_configure + 34
        0x00019bd8:    2002        .       MOVS     r0,#2
        0x00019bda:    e8bd8ff0    ....    POP      {r4-r11,pc}
        0x00019bde:    2900        .)      CMP      r1,#0
        0x00019be0:    bf1c        ..      ITT      NE
        0x00019be2:    6850        Ph      LDRNE    r0,[r2,#4]
        0x00019be4:    2808        .(      CMPNE    r0,#8
        0x00019be6:    d22e        ..      BCS      0x19c46 ; am_hal_iom_configure + 138
        0x00019be8:    f0137f00    ....    TST      r3,#0x2000000
        0x00019bec:    bf1c        ..      ITT      NE
        0x00019bee:    2007        .       MOVNE    r0,#7
        0x00019bf0:    e8bd8ff0    ....    POPNE    {r4-r11,pc}
        0x00019bf4:    780b        .x      LDRB     r3,[r1,#0]
        0x00019bf6:    0300        ..      LSLS     r0,r0,#12
        0x00019bf8:    f1004680    ...F    ADD      r6,r0,#0x40000000
        0x00019bfc:    7213        .r      STRB     r3,[r2,#8]
        0x00019bfe:    f50626a0    ...&    ADD      r6,r6,#0x50000
        0x00019c02:    f2410310    A...    MOV      r3,#0x1010
        0x00019c06:    f8c63104    ...1    STR      r3,[r6,#0x104]
        0x00019c0a:    7808        .x      LDRB     r0,[r1,#0]
        0x00019c0c:    b1f0        ..      CBZ      r0,0x19c4c ; am_hal_iom_configure + 144
        0x00019c0e:    2801        .(      CMP      r0,#1
        0x00019c10:    bf1c        ..      ITT      NE
        0x00019c12:    2005        .       MOVNE    r0,#5
        0x00019c14:    e8bd8ff0    ....    POPNE    {r4-r11,pc}
        0x00019c18:    6848        Hh      LDR      r0,[r1,#4]
        0x00019c1a:    f5a060d4    ...`    SUB      r0,r0,#0x6a0
        0x00019c1e:    f5b030c0    ...0    SUBS     r0,r0,#0x18000
        0x00019c22:    bf04        ..      ITT      EQ
        0x00019c24:    4b85        .K      LDREQ    r3,[pc,#532] ; [0x19e3c] = 0x773b1301
        0x00019c26:    4886        .H      LDREQ    r0,[pc,#536] ; [0x19e40] = 0x3f070
        0x00019c28:    f00080d6    ....    BEQ.W    0x19dd8 ; am_hal_iom_configure + 540
        0x00019c2c:    f5a0509f    ...P    SUB      r0,r0,#0x13e0
        0x00019c30:    f5b02090    ...     SUBS     r0,r0,#0x48000
        0x00019c34:    bf04        ..      ITT      EQ
        0x00019c36:    4b83        .K      LDREQ    r3,[pc,#524] ; [0x19e44] = 0x1d0e1301
        0x00019c38:    4883        .H      LDREQ    r0,[pc,#524] ; [0x19e48] = 0x3f270
        0x00019c3a:    d07c        |.      BEQ      0x19d36 ; am_hal_iom_configure + 378
        0x00019c3c:    f5a0501f    ...P    SUB      r0,r0,#0x27c0
        0x00019c40:    f5b02f10    .../    CMP      r0,#0x90000
        0x00019c44:    d078        x.      BEQ      0x19d38 ; am_hal_iom_configure + 380
        0x00019c46:    2006        .       MOVS     r0,#6
        0x00019c48:    e8bd8ff0    ....    POP      {r4-r11,pc}
        0x00019c4c:    7a0f        .z      LDRB     r7,[r1,#8]
        0x00019c4e:    2f03        ./      CMP      r7,#3
        0x00019c50:    d8f9        ..      BHI      0x19c46 ; am_hal_iom_configure + 138
        0x00019c52:    487e        ~H      LDR      r0,[pc,#504] ; [0x19e4c] = 0x2dc6c00
        0x00019c54:    684b        Kh      LDR      r3,[r1,#4]
        0x00019c56:    4283        .B      CMP      r3,r0
        0x00019c58:    d8f5        ..      BHI      0x19c46 ; am_hal_iom_configure + 138
        0x00019c5a:    f3c70940    ..@.    UBFX     r9,r7,#1,#1
        0x00019c5e:    2b00        .+      CMP      r3,#0
        0x00019c60:    d06b        k.      BEQ      0x19d3a ; am_hal_iom_configure + 382
        0x00019c62:    0040        @.      LSLS     r0,r0,#1
        0x00019c64:    fbb0fcf3    ....    UDIV     r12,r0,r3
        0x00019c68:    fbb0f4f3    ....    UDIV     r4,r0,r3
        0x00019c6c:    fb030014    ....    MLS      r0,r3,r4,r0
        0x00019c70:    2800        .(      CMP      r0,#0
        0x00019c72:    bf18        ..      IT       NE
        0x00019c74:    2001        .       MOVNE    r0,#1
        0x00019c76:    eb0c0400    ....    ADD      r4,r12,r0
        0x00019c7a:    4260        `B      RSBS     r0,r4,#0
        0x00019c7c:    4020         @      ANDS     r0,r0,r4
        0x00019c7e:    fab0f080    ....    CLZ      r0,r0
        0x00019c82:    f1c00c1f    ....    RSB      r12,r0,#0x1f
        0x00019c86:    f1bc0f06    ....    CMP      r12,#6
        0x00019c8a:    dc7c        |.      BGT      0x19d86 ; am_hal_iom_configure + 458
        0x00019c8c:    f24160e3    A..`    MOV      r0,#0x16e3
        0x00019c90:    4283        .B      CMP      r3,r0
        0x00019c92:    d309        ..      BCC      0x19ca8 ; am_hal_iom_configure + 236
        0x00019c94:    f1a370f4    ...p    SUB      r0,r3,#0x1e80000
        0x00019c98:    4d6d        mM      LDR      r5,[pc,#436] ; [0x19e50] = 0xf423ff
        0x00019c9a:    f5a04090    ...@    SUB      r0,r0,#0x4800
        0x00019c9e:    4285        .B      CMP      r5,r0
        0x00019ca0:    bf38        8.      IT       CC
        0x00019ca2:    f04f0a00    O...    MOVCC    r10,#0
        0x00019ca6:    d301        ..      BCC      0x19cac ; am_hal_iom_configure + 240
        0x00019ca8:    f04f0a01    O...    MOV      r10,#1
        0x00019cac:    2001        .       MOVS     r0,#1
        0x00019cae:    eb00084a    ..J.    ADD      r8,r0,r10,LSL #1
        0x00019cb2:    fa08f00c    ....    LSL      r0,r8,r12
        0x00019cb6:    fbb4f5f0    ....    UDIV     r5,r4,r0
        0x00019cba:    fbb4fbf0    ....    UDIV     r11,r4,r0
        0x00019cbe:    fb00401b    ...@    MLS      r0,r0,r11,r4
        0x00019cc2:    2800        .(      CMP      r0,#0
        0x00019cc4:    bf18        ..      IT       NE
        0x00019cc6:    2001        .       MOVNE    r0,#1
        0x00019cc8:    4428        (D      ADD      r0,r0,r5
        0x00019cca:    fab0f580    ....    CLZ      r5,r0
        0x00019cce:    f1c5051f    ....    RSB      r5,r5,#0x1f
        0x00019cd2:    2d07        .-      CMP      r5,#7
        0x00019cd4:    bf84        ..      ITT      HI
        0x00019cd6:    44ac        .D      ADDHI    r12,r12,r5
        0x00019cd8:    f1ac0c07    ....    SUBHI    r12,r12,#7
        0x00019cdc:    f10c0c01    ....    ADD      r12,r12,#1
        0x00019ce0:    f1bc0f07    ....    CMP      r12,#7
        0x00019ce4:    bf88        ..      IT       HI
        0x00019ce6:    2300        .#      MOVHI    r3,#0
        0x00019ce8:    d871        q.      BHI      0x19dce ; am_hal_iom_configure + 530
        0x00019cea:    2d07        .-      CMP      r5,#7
        0x00019cec:    d90e        ..      BLS      0x19d0c ; am_hal_iom_configure + 336
        0x00019cee:    1fed        ..      SUBS     r5,r5,#7
        0x00019cf0:    fa20fb05     ...    LSR      r11,r0,r5
        0x00019cf4:    f04f0e01    O...    MOV      lr,#1
        0x00019cf8:    fa0ef505    ....    LSL      r5,lr,r5
        0x00019cfc:    fbb0fef5    ....    UDIV     lr,r0,r5
        0x00019d00:    fb05001e    ....    MLS      r0,r5,lr,r0
        0x00019d04:    2800        .(      CMP      r0,#0
        0x00019d06:    bf18        ..      IT       NE
        0x00019d08:    2001        .       MOVNE    r0,#1
        0x00019d0a:    4458        XD      ADD      r0,r0,r11
        0x00019d0c:    4d51        QM      LDR      r5,[pc,#324] ; [0x19e54] = 0x16e3600
        0x00019d0e:    42ab        .B      CMP      r3,r5
        0x00019d10:    d207        ..      BCS      0x19d22 ; am_hal_iom_configure + 358
        0x00019d12:    f1ac0501    ....    SUB      r5,r12,#1
        0x00019d16:    2301        .#      MOVS     r3,#1
        0x00019d18:    40ab        .@      LSLS     r3,r3,r5
        0x00019d1a:    42a3        .B      CMP      r3,r4
        0x00019d1c:    bf18        ..      IT       NE
        0x00019d1e:    2401        .$      MOVNE    r4,#1
        0x00019d20:    d100        ..      BNE      0x19d24 ; am_hal_iom_configure + 360
        0x00019d22:    2400        .$      MOVS     r4,#0
        0x00019d24:    f1b90f00    ....    CMP      r9,#0
        0x00019d28:    bf14        ..      ITE      NE
        0x00019d2a:    1e83        ..      SUBNE    r3,r0,#2
        0x00019d2c:    1e43        C.      SUBEQ    r3,r0,#1
        0x00019d2e:    085b        [.      LSRS     r3,r3,#1
        0x00019d30:    f44f65e0    O..e    MOV      r5,#0x700
        0x00019d34:    e002        ..      B        0x19d3c ; am_hal_iom_configure + 384
        0x00019d36:    e04f        O.      B        0x19dd8 ; am_hal_iom_configure + 540
        0x00019d38:    e051        Q.      B        0x19dde ; am_hal_iom_configure + 546
        0x00019d3a:    e048        H.      B        0x19dce ; am_hal_iom_configure + 530
        0x00019d3c:    ea05290c    ...)    AND      r9,r5,r12,LSL #8
        0x00019d40:    f44f6500    O..e    MOV      r5,#0x800
        0x00019d44:    ea0525ca    ...%    AND      r5,r5,r10,LSL #11
        0x00019d48:    f44f5a80    O..Z    MOV      r10,#0x1000
        0x00019d4c:    ea490505    I...    ORR      r5,r9,r5
        0x00019d50:    ea0a3a04    ...:    AND      r10,r10,r4,LSL #12
        0x00019d54:    ea45050a    E...    ORR      r5,r5,r10
        0x00019d58:    f44f0a7f    O...    MOV      r10,#0xff0000
        0x00019d5c:    ea0a4303    ...C    AND      r3,r10,r3,LSL #16
        0x00019d60:    432b        +C      ORRS     r3,r3,r5
        0x00019d62:    f04f457f    O..E    MOV      r5,#0xff000000
        0x00019d66:    eb056500    ...e    ADD      r5,r5,r0,LSL #24
        0x00019d6a:    f1ac0c01    ....    SUB      r12,r12,#1
        0x00019d6e:    fa08f80c    ....    LSL      r8,r8,r12
        0x00019d72:    432b        +C      ORRS     r3,r3,r5
        0x00019d74:    1e40        @.      SUBS     r0,r0,#1
        0x00019d76:    4360        `C      MULS     r0,r4,r0
        0x00019d78:    4d37        7M      LDR      r5,[pc,#220] ; [0x19e58] = 0x5b8d800
        0x00019d7a:    1c40        @.      ADDS     r0,r0,#1
        0x00019d7c:    fb08f000    ....    MUL      r0,r8,r0
        0x00019d80:    fbb5f4f0    ....    UDIV     r4,r5,r0
        0x00019d84:    e000        ..      B        0x19d88 ; am_hal_iom_configure + 460
        0x00019d86:    e054        T.      B        0x19e32 ; am_hal_iom_configure + 630
        0x00019d88:    fbb5f8f0    ....    UDIV     r8,r5,r0
        0x00019d8c:    fb005818    ...X    MLS      r8,r0,r8,r5
        0x00019d90:    ebb80f50    ..P.    CMP      r8,r0,LSR #1
        0x00019d94:    bf8c        ..      ITE      HI
        0x00019d96:    2001        .       MOVHI    r0,#1
        0x00019d98:    2000        .       MOVLS    r0,#0
        0x00019d9a:    4404        .D      ADD      r4,r4,r0
        0x00019d9c:    482f        /H      LDR      r0,[pc,#188] ; [0x19e5c] = 0x3d090
        0x00019d9e:    fbb4f8f0    ....    UDIV     r8,r4,r0
        0x00019da2:    fb004818    ...H    MLS      r8,r0,r8,r4
        0x00019da6:    f1b80f00    ....    CMP      r8,#0
        0x00019daa:    d110        ..      BNE      0x19dce ; am_hal_iom_configure + 530
        0x00019dac:    fbb4f0f0    ....    UDIV     r0,r4,r0
        0x00019db0:    b168        h.      CBZ      r0,0x19dce ; am_hal_iom_configure + 530
        0x00019db2:    f1a00801    ....    SUB      r8,r0,#1
        0x00019db6:    ea100f08    ....    TST      r0,r8
        0x00019dba:    d108        ..      BNE      0x19dce ; am_hal_iom_configure + 530
        0x00019dbc:    2003        .       MOVS     r0,#3
        0x00019dbe:    fa00f00c    ....    LSL      r0,r0,r12
        0x00019dc2:    fbb5f3f0    ....    UDIV     r3,r5,r0
        0x00019dc6:    fbb5fcf0    ....    UDIV     r12,r5,r0
        0x00019dca:    f4496300    I..c    ORR      r3,r9,#0x800
        0x00019dce:    f0070003    ....    AND      r0,r7,#3
        0x00019dd2:    f8c60280    ....    STR      r0,[r6,#0x280]
        0x00019dd6:    e006        ..      B        0x19de6 ; am_hal_iom_configure + 554
        0x00019dd8:    f8c602c0    ....    STR      r0,[r6,#0x2c0]
        0x00019ddc:    e003        ..      B        0x19de6 ; am_hal_iom_configure + 554
        0x00019dde:    4b20         K      LDR      r3,[pc,#128] ; [0x19e60] = 0xb051301
        0x00019de0:    4820         H      LDR      r0,[pc,#128] ; [0x19e64] = 0x23040
        0x00019de2:    f8c602c0    ....    STR      r0,[r6,#0x2c0]
        0x00019de6:    f0430001    C...    ORR      r0,r3,#1
        0x00019dea:    f8c60118    ....    STR      r0,[r6,#0x118]
        0x00019dee:    4b1e        .K      LDR      r3,[pc,#120] ; [0x19e68] = 0xf4240
        0x00019df0:    6848        Hh      LDR      r0,[r1,#4]
        0x00019df2:    fbb3f0f0    ....    UDIV     r0,r3,r0
        0x00019df6:    f8c20864    ..d.    STR      r0,[r2,#0x864]
        0x00019dfa:    f44f707a    O.zp    MOV      r0,#0x3e8
        0x00019dfe:    f8c20860    ..`.    STR      r0,[r2,#0x860]
        0x00019e02:    68c8        .h      LDR      r0,[r1,#0xc]
        0x00019e04:    60d0        .`      STR      r0,[r2,#0xc]
        0x00019e06:    6908        .i      LDR      r0,[r1,#0x10]
        0x00019e08:    6110        .a      STR      r0,[r2,#0x10]
        0x00019e0a:    0080        ..      LSLS     r0,r0,#2
        0x00019e0c:    4917        .I      LDR      r1,[pc,#92] ; [0x19e6c] = 0xaaaaaaab
        0x00019e0e:    3820         8      SUBS     r0,r0,#0x20
        0x00019e10:    fba11000    ....    UMULL    r1,r0,r1,r0
        0x00019e14:    0980        ..      LSRS     r0,r0,#6
        0x00019e16:    f8c20858    ..X.    STR      r0,[r2,#0x858]
        0x00019e1a:    f5b07f80    ....    CMP      r0,#0x100
        0x00019e1e:    bf88        ..      IT       HI
        0x00019e20:    f44f7080    O..p    MOVHI    r0,#0x100
        0x00019e24:    f8c20858    ..X.    STR      r0,[r2,#0x858]
        0x00019e28:    2000        .       MOVS     r0,#0
        0x00019e2a:    f8c208a0    ....    STR      r0,[r2,#0x8a0]
        0x00019e2e:    e8bd8ff0    ....    POP      {r4-r11,pc}
        0x00019e32:    f04f0c06    O...    MOV      r12,#6
        0x00019e36:    e729        ).      B        0x19c8c ; am_hal_iom_configure + 208
    $d
        0x00019e38:    00123456    V4..    DCD    1193046
        0x00019e3c:    773b1301    ..;w    DCD    2000360193
        0x00019e40:    0003f070    p...    DCD    258160
        0x00019e44:    1d0e1301    ....    DCD    487461633
        0x00019e48:    0003f270    p...    DCD    258672
        0x00019e4c:    02dc6c00    .l..    DCD    48000000
        0x00019e50:    00f423ff    .#..    DCD    15999999
        0x00019e54:    016e3600    .6n.    DCD    24000000
        0x00019e58:    05b8d800    ....    DCD    96000000
        0x00019e5c:    0003d090    ....    DCD    250000
        0x00019e60:    0b051301    ....    DCD    184881921
        0x00019e64:    00023040    @0..    DCD    143424
        0x00019e68:    000f4240    @B..    DCD    1000000
        0x00019e6c:    aaaaaaab    ....    DCD    2863311531
    $t
    i.am_hal_iom_control
    am_hal_iom_control
        0x00019e70:    e92d43f0    -..C    PUSH     {r4-r9,lr}
        0x00019e74:    b083        ..      SUB      sp,sp,#0xc
        0x00019e76:    1e04        ..      SUBS     r4,r0,#0
        0x00019e78:    f04f0500    O...    MOV      r5,#0
        0x00019e7c:    bf1c        ..      ITT      NE
        0x00019e7e:    6820         h      LDRNE    r0,[r4,#0]
        0x00019e80:    f0107f80    ....    TSTNE    r0,#0x1000000
        0x00019e84:    d004        ..      BEQ      0x19e90 ; am_hal_iom_control + 32
        0x00019e86:    4bf9        .K      LDR      r3,[pc,#996] ; [0x1a26c] = 0x123456
        0x00019e88:    f020407f     ..@    BIC      r0,r0,#0xff000000
        0x00019e8c:    4298        .B      CMP      r0,r3
        0x00019e8e:    d003        ..      BEQ      0x19e98 ; am_hal_iom_control + 40
        0x00019e90:    b003        ..      ADD      sp,sp,#0xc
        0x00019e92:    2002        .       MOVS     r0,#2
        0x00019e94:    e8bd83f0    ....    POP      {r4-r9,pc}
        0x00019e98:    2910        .)      CMP      r1,#0x10
        0x00019e9a:    f08082a1    ....    BCS.W    0x1a3e0 ; am_hal_iom_control + 1392
        0x00019e9e:    6867        gh      LDR      r7,[r4,#4]
        0x00019ea0:    290f        .)      CMP      r1,#0xf
        0x00019ea2:    d257        W.      BCS      0x19f54 ; am_hal_iom_control + 228
        0x00019ea4:    e8dff001    ....    TBB      [pc,r1]
    $d
        0x00019ea8:    33241808    ..$3    DCD    858003464
        0x00019eac:    9f594f3f    ?OY.    DCD    2673430335
        0x00019eb0:    f8f9faa2    ....    DCD    4177132194
        0x00019eb4:    00f5f6f7    ....    DCD    16119543
    $t
        0x00019eb8:    2a00        .*      CMP      r2,#0
        0x00019eba:    d04b        K.      BEQ      0x19f54 ; am_hal_iom_control + 228
        0x00019ebc:    49ec        .I      LDR      r1,[pc,#944] ; [0x1a270] = 0xe0e0e0
        0x00019ebe:    6810        .h      LDR      r0,[r2,#0]
        0x00019ec0:    4208        .B      TST      r0,r1
        0x00019ec2:    f040828d    @...    BNE.W    0x1a3e0 ; am_hal_iom_control + 1392
        0x00019ec6:    0339        9.      LSLS     r1,r7,#12
        0x00019ec8:    f1014180    ...A    ADD      r1,r1,#0x40000000
        0x00019ecc:    f50121a0    ...!    ADD      r1,r1,#0x50000
        0x00019ed0:    f8c10238    ..8.    STR      r0,[r1,#0x238]
        0x00019ed4:    f000bb2f    ../.    B.W      0x1a536 ; am_hal_iom_control + 1734
        0x00019ed8:    b3a2        ..      CBZ      r2,0x19f44 ; am_hal_iom_control + 212
        0x00019eda:    0338        8.      LSLS     r0,r7,#12
        0x00019edc:    f1004080    ...@    ADD      r0,r0,#0x40000000
        0x00019ee0:    f50020a0    ...     ADD      r0,r0,#0x50000
        0x00019ee4:    7812        .x      LDRB     r2,[r2,#0]
        0x00019ee6:    f8d01280    ....    LDR      r1,[r0,#0x280]
        0x00019eea:    f36251d7    b..Q    BFI      r1,r2,#23,#1
        0x00019eee:    e00a        ..      B        0x19f06 ; am_hal_iom_control + 150
        0x00019ef0:    b342        B.      CBZ      r2,0x19f44 ; am_hal_iom_control + 212
        0x00019ef2:    0338        8.      LSLS     r0,r7,#12
        0x00019ef4:    f1004080    ...@    ADD      r0,r0,#0x40000000
        0x00019ef8:    f50020a0    ...     ADD      r0,r0,#0x50000
        0x00019efc:    7812        .x      LDRB     r2,[r2,#0]
        0x00019efe:    f8d01280    ....    LDR      r1,[r0,#0x280]
        0x00019f02:    f3620182    b...    BFI      r1,r2,#2,#1
        0x00019f06:    f8c01280    ....    STR      r1,[r0,#0x280]
        0x00019f0a:    f000bb14    ....    B.W      0x1a536 ; am_hal_iom_control + 1734
        0x00019f0e:    b1ca        ..      CBZ      r2,0x19f44 ; am_hal_iom_control + 212
        0x00019f10:    0338        8.      LSLS     r0,r7,#12
        0x00019f12:    f1004080    ...@    ADD      r0,r0,#0x40000000
        0x00019f16:    f50020a0    ...     ADD      r0,r0,#0x50000
        0x00019f1a:    7812        .x      LDRB     r2,[r2,#0]
        0x00019f1c:    f8d01104    ....    LDR      r1,[r0,#0x104]
        0x00019f20:    f3620105    b...    BFI      r1,r2,#0,#6
        0x00019f24:    e00a        ..      B        0x19f3c ; am_hal_iom_control + 204
        0x00019f26:    b16a        j.      CBZ      r2,0x19f44 ; am_hal_iom_control + 212
        0x00019f28:    0338        8.      LSLS     r0,r7,#12
        0x00019f2a:    f1004080    ...@    ADD      r0,r0,#0x40000000
        0x00019f2e:    f50020a0    ...     ADD      r0,r0,#0x50000
        0x00019f32:    7812        .x      LDRB     r2,[r2,#0]
        0x00019f34:    f8d01104    ....    LDR      r1,[r0,#0x104]
        0x00019f38:    f362210d    b..!    BFI      r1,r2,#8,#6
        0x00019f3c:    f8c01104    ....    STR      r1,[r0,#0x104]
        0x00019f40:    f000baf9    ....    B.W      0x1a536 ; am_hal_iom_control + 1734
        0x00019f44:    e006        ..      B        0x19f54 ; am_hal_iom_control + 228
        0x00019f46:    b12a        *.      CBZ      r2,0x19f54 ; am_hal_iom_control + 228
        0x00019f48:    6810        .h      LDR      r0,[r2,#0]
        0x00019f4a:    2803        .(      CMP      r0,#3
        0x00019f4c:    f24082f3    @...    BLS.W    0x1a536 ; am_hal_iom_control + 1734
        0x00019f50:    f000ba46    ..F.    B.W      0x1a3e0 ; am_hal_iom_control + 1392
        0x00019f54:    2506        .%      MOVS     r5,#6
        0x00019f56:    f000baee    ....    B.W      0x1a536 ; am_hal_iom_control + 1734
        0x00019f5a:    2080        .       MOVS     r0,#0x80
        0x00019f5c:    0339        9.      LSLS     r1,r7,#12
        0x00019f5e:    f1014180    ...A    ADD      r1,r1,#0x40000000
        0x00019f62:    4ec4        .N      LDR      r6,[pc,#784] ; [0x1a274] = 0x186a0
        0x00019f64:    f50121a0    ...!    ADD      r1,r1,#0x50000
        0x00019f68:    4635        5F      MOV      r5,r6
        0x00019f6a:    f8c10238    ..8.    STR      r0,[r1,#0x238]
        0x00019f6e:    6860        `h      LDR      r0,[r4,#4]
        0x00019f70:    0300        ..      LSLS     r0,r0,#12
        0x00019f72:    f1004080    ...@    ADD      r0,r0,#0x40000000
        0x00019f76:    f50020a0    ...     ADD      r0,r0,#0x50000
        0x00019f7a:    f8d00228    ..(.    LDR      r0,[r0,#0x228]
        0x00019f7e:    f0100f01    ....    TST      r0,#1
        0x00019f82:    d01f        ..      BEQ      0x19fc4 ; am_hal_iom_control + 340
        0x00019f84:    6860        `h      LDR      r0,[r4,#4]
        0x00019f86:    0300        ..      LSLS     r0,r0,#12
        0x00019f88:    f1004080    ...@    ADD      r0,r0,#0x40000000
        0x00019f8c:    f50020a0    ...     ADD      r0,r0,#0x50000
        0x00019f90:    f8d01230    ..0.    LDR      r1,[r0,#0x230]
        0x00019f94:    f0110f02    ....    TST      r1,#2
        0x00019f98:    bf1c        ..      ITT      NE
        0x00019f9a:    f8d0023c    ..<.    LDRNE    r0,[r0,#0x23c]
        0x00019f9e:    f0100f80    ....    TSTNE    r0,#0x80
        0x00019fa2:    d10f        ..      BNE      0x19fc4 ; am_hal_iom_control + 340
        0x00019fa4:    1e6d        m.      SUBS     r5,r5,#1
        0x00019fa6:    d31b        ..      BCC      0x19fe0 ; am_hal_iom_control + 368
        0x00019fa8:    2001        .       MOVS     r0,#1
        0x00019faa:    f7fffbab    ....    BL       am_hal_delay_us ; 0x19704
        0x00019fae:    6860        `h      LDR      r0,[r4,#4]
        0x00019fb0:    0300        ..      LSLS     r0,r0,#12
        0x00019fb2:    f1004080    ...@    ADD      r0,r0,#0x40000000
        0x00019fb6:    f50020a0    ...     ADD      r0,r0,#0x50000
        0x00019fba:    f8d00228    ..(.    LDR      r0,[r0,#0x228]
        0x00019fbe:    f0100f01    ....    TST      r0,#1
        0x00019fc2:    d1df        ..      BNE      0x19f84 ; am_hal_iom_control + 276
        0x00019fc4:    2001        .       MOVS     r0,#1
        0x00019fc6:    9000        ..      STR      r0,[sp,#0]
        0x00019fc8:    49ab        .I      LDR      r1,[pc,#684] ; [0x1a278] = 0x40050224
        0x00019fca:    6860        `h      LDR      r0,[r4,#4]
        0x00019fcc:    2300        .#      MOVS     r3,#0
        0x00019fce:    eb013100    ...1    ADD      r1,r1,r0,LSL #12
        0x00019fd2:    2201        ."      MOVS     r2,#1
        0x00019fd4:    4630        0F      MOV      r0,r6
        0x00019fd6:    f7fffbd7    ....    BL       am_hal_delay_us_status_check ; 0x19788
        0x00019fda:    4605        .F      MOV      r5,r0
        0x00019fdc:    f000baab    ....    B.W      0x1a536 ; am_hal_iom_control + 1734
        0x00019fe0:    2504        .%      MOVS     r5,#4
        0x00019fe2:    f000baa8    ....    B.W      0x1a536 ; am_hal_iom_control + 1734
        0x00019fe6:    f44f0000    O...    MOV      r0,#0x800000
        0x00019fea:    e76c        l.      B        0x19ec6 ; am_hal_iom_control + 86
        0x00019fec:    2a00        .*      CMP      r2,#0
        0x00019fee:    f00081f7    ....    BEQ.W    0x1a3e0 ; am_hal_iom_control + 1392
        0x00019ff2:    68e0        .h      LDR      r0,[r4,#0xc]
        0x00019ff4:    2800        .(      CMP      r0,#0
        0x00019ff6:    f00081f7    ....    BEQ.W    0x1a3e8 ; am_hal_iom_control + 1400
        0x00019ffa:    7810        .x      LDRB     r0,[r2,#0]
        0x00019ffc:    1c06        ..      ADDS     r6,r0,#0
        0x00019ffe:    bf18        ..      IT       NE
        0x0001a000:    2601        .&      MOVNE    r6,#1
        0x0001a002:    f894082c    ..,.    LDRB     r0,[r4,#0x82c]
        0x0001a006:    42b0        .B      CMP      r0,r6
        0x0001a008:    bf02        ..      ITTT     EQ
        0x0001a00a:    2000        .       MOVEQ    r0,#0
        0x0001a00c:    b003        ..      ADDEQ    sp,sp,#0xc
        0x0001a00e:    e8bd83f0    ....    POPEQ    {r4-r9,pc}
        0x0001a012:    b3e8        ..      CBZ      r0,0x1a090 ; am_hal_iom_control + 544
        0x0001a014:    2802        .(      CMP      r0,#2
        0x0001a016:    d156        V.      BNE      0x1a0c6 ; am_hal_iom_control + 598
        0x0001a018:    6860        `h      LDR      r0,[r4,#4]
        0x0001a01a:    4f96        .O      LDR      r7,[pc,#600] ; [0x1a274] = 0x186a0
        0x0001a01c:    ea4f3000    O..0    LSL      r0,r0,#12
        0x0001a020:    f1004080    ...@    ADD      r0,r0,#0x40000000
        0x0001a024:    f50020a0    ...     ADD      r0,r0,#0x50000
        0x0001a028:    f04f0180    O...    MOV      r1,#0x80
        0x0001a02c:    463d        =F      MOV      r5,r7
        0x0001a02e:    f8c01238    ..8.    STR      r1,[r0,#0x238]
        0x0001a032:    6860        `h      LDR      r0,[r4,#4]
        0x0001a034:    ea4f3000    O..0    LSL      r0,r0,#12
        0x0001a038:    f1004080    ...@    ADD      r0,r0,#0x40000000
        0x0001a03c:    f50020a0    ...     ADD      r0,r0,#0x50000
        0x0001a040:    f8d00228    ..(.    LDR      r0,[r0,#0x228]
        0x0001a044:    f0100f01    ....    TST      r0,#1
        0x0001a048:    d020         .      BEQ      0x1a08c ; am_hal_iom_control + 540
        0x0001a04a:    6860        `h      LDR      r0,[r4,#4]
        0x0001a04c:    ea4f3000    O..0    LSL      r0,r0,#12
        0x0001a050:    f1004080    ...@    ADD      r0,r0,#0x40000000
        0x0001a054:    f50020a0    ...     ADD      r0,r0,#0x50000
        0x0001a058:    f8d01230    ..0.    LDR      r1,[r0,#0x230]
        0x0001a05c:    f0110f02    ....    TST      r1,#2
        0x0001a060:    bf1c        ..      ITT      NE
        0x0001a062:    f8d0023c    ..<.    LDRNE    r0,[r0,#0x23c]
        0x0001a066:    f0100f80    ....    TSTNE    r0,#0x80
        0x0001a06a:    d10f        ..      BNE      0x1a08c ; am_hal_iom_control + 540
        0x0001a06c:    1e6d        m.      SUBS     r5,r5,#1
        0x0001a06e:    d3b7        ..      BCC      0x19fe0 ; am_hal_iom_control + 368
        0x0001a070:    2001        .       MOVS     r0,#1
        0x0001a072:    f7fffb47    ..G.    BL       am_hal_delay_us ; 0x19704
        0x0001a076:    6860        `h      LDR      r0,[r4,#4]
        0x0001a078:    0300        ..      LSLS     r0,r0,#12
        0x0001a07a:    f1004080    ...@    ADD      r0,r0,#0x40000000
        0x0001a07e:    f50020a0    ...     ADD      r0,r0,#0x50000
        0x0001a082:    f8d00228    ..(.    LDR      r0,[r0,#0x228]
        0x0001a086:    f0100f01    ....    TST      r0,#1
        0x0001a08a:    d1de        ..      BNE      0x1a04a ; am_hal_iom_control + 474
        0x0001a08c:    2001        .       MOVS     r0,#1
        0x0001a08e:    e006        ..      B        0x1a09e ; am_hal_iom_control + 558
        0x0001a090:    e013        ..      B        0x1a0ba ; am_hal_iom_control + 586
        0x0001a092:    e191        ..      B        0x1a3b8 ; am_hal_iom_control + 1352
        0x0001a094:    e178        x.      B        0x1a388 ; am_hal_iom_control + 1304
        0x0001a096:    e15e        ^.      B        0x1a356 ; am_hal_iom_control + 1254
        0x0001a098:    e14e        N.      B        0x1a338 ; am_hal_iom_control + 1224
        0x0001a09a:    e13c        <.      B        0x1a316 ; am_hal_iom_control + 1190
        0x0001a09c:    e025        %.      B        0x1a0ea ; am_hal_iom_control + 634
        0x0001a09e:    9000        ..      STR      r0,[sp,#0]
        0x0001a0a0:    4975        uI      LDR      r1,[pc,#468] ; [0x1a278] = 0x40050224
        0x0001a0a2:    6860        `h      LDR      r0,[r4,#4]
        0x0001a0a4:    2300        .#      MOVS     r3,#0
        0x0001a0a6:    eb013100    ...1    ADD      r1,r1,r0,LSL #12
        0x0001a0aa:    2201        ."      MOVS     r2,#1
        0x0001a0ac:    4638        8F      MOV      r0,r7
        0x0001a0ae:    f7fffb6b    ..k.    BL       am_hal_delay_us_status_check ; 0x19788
        0x0001a0b2:    0005        ..      MOVS     r5,r0
        0x0001a0b4:    f040823f    @.?.    BNE.W    0x1a536 ; am_hal_iom_control + 1734
        0x0001a0b8:    e005        ..      B        0x1a0c6 ; am_hal_iom_control + 598
        0x0001a0ba:    6a60        `j      LDR      r0,[r4,#0x24]
        0x0001a0bc:    2800        .(      CMP      r0,#0
        0x0001a0be:    bf18        ..      IT       NE
        0x0001a0c0:    2507        .%      MOVNE    r5,#7
        0x0001a0c2:    f0408238    @.8.    BNE.W    0x1a536 ; am_hal_iom_control + 1734
        0x0001a0c6:    f8d40828    ..(.    LDR      r0,[r4,#0x828]
        0x0001a0ca:    f7fff9c3    ....    BL       am_hal_cmdq_reset ; 0x19454
        0x0001a0ce:    2000        .       MOVS     r0,#0
        0x0001a0d0:    61e0        .a      STR      r0,[r4,#0x1c]
        0x0001a0d2:    f8c40830    ..0.    STR      r0,[r4,#0x830]
        0x0001a0d6:    6260        `b      STR      r0,[r4,#0x24]
        0x0001a0d8:    f8c4085c    ..\.    STR      r0,[r4,#0x85c]
        0x0001a0dc:    f884682c    ..,h    STRB     r6,[r4,#0x82c]
        0x0001a0e0:    2001        .       MOVS     r0,#1
        0x0001a0e2:    f884082d    ..-.    STRB     r0,[r4,#0x82d]
        0x0001a0e6:    f000ba26    ..&.    B.W      0x1a536 ; am_hal_iom_control + 1734
        0x0001a0ea:    f04f0800    O...    MOV      r8,#0
        0x0001a0ee:    0015        ..      MOVS     r5,r2
        0x0001a0f0:    4646        FF      MOV      r6,r8
        0x0001a0f2:    f0008175    ..u.    BEQ.W    0x1a3e0 ; am_hal_iom_control + 1392
        0x0001a0f6:    7928        (y      LDRB     r0,[r5,#4]
        0x0001a0f8:    f0100fe0    ....    TST      r0,#0xe0
        0x0001a0fc:    f0408170    @.p.    BNE.W    0x1a3e0 ; am_hal_iom_control + 1392
        0x0001a100:    495b        [I      LDR      r1,[pc,#364] ; [0x1a270] = 0xe0e0e0
        0x0001a102:    68a8        .h      LDR      r0,[r5,#8]
        0x0001a104:    4208        .B      TST      r0,r1
        0x0001a106:    f040816b    @.k.    BNE.W    0x1a3e0 ; am_hal_iom_control + 1392
        0x0001a10a:    f894082c    ..,.    LDRB     r0,[r4,#0x82c]
        0x0001a10e:    2801        .(      CMP      r0,#1
        0x0001a110:    f040816a    @.j.    BNE.W    0x1a3e8 ; am_hal_iom_control + 1400
        0x0001a114:    f8d40838    ..8.    LDR      r0,[r4,#0x838]
        0x0001a118:    b158        X.      CBZ      r0,0x1a132 ; am_hal_iom_control + 706
        0x0001a11a:    2000        .       MOVS     r0,#0
        0x0001a11c:    0339        9.      LSLS     r1,r7,#12
        0x0001a11e:    f1014180    ...A    ADD      r1,r1,#0x40000000
        0x0001a122:    f8c40838    ..8.    STR      r0,[r4,#0x838]
        0x0001a126:    f50121a0    ...!    ADD      r1,r1,#0x50000
        0x0001a12a:    f44f1000    O...    MOV      r0,#0x200000
        0x0001a12e:    f8c10238    ..8.    STR      r0,[r1,#0x238]
        0x0001a132:    7828        (x      LDRB     r0,[r5,#0]
        0x0001a134:    b388        ..      CBZ      r0,0x1a19a ; am_hal_iom_control + 810
        0x0001a136:    f894082d    ..-.    LDRB     r0,[r4,#0x82d]
        0x0001a13a:    bb70        p.      CBNZ     r0,0x1a19a ; am_hal_iom_control + 810
        0x0001a13c:    ab01        ..      ADD      r3,sp,#4
        0x0001a13e:    466a        jF      MOV      r2,sp
        0x0001a140:    2101        .!      MOVS     r1,#1
        0x0001a142:    f8d40828    ..(.    LDR      r0,[r4,#0x828]
        0x0001a146:    f7feff6b    ..k.    BL       am_hal_cmdq_alloc_block ; 0x19020
        0x0001a14a:    2800        .(      CMP      r0,#0
        0x0001a14c:    bf1c        ..      ITT      NE
        0x0001a14e:    b003        ..      ADDNE    sp,sp,#0xc
        0x0001a150:    e8bd83f0    ....    POPNE    {r4-r9,pc}
        0x0001a154:    4849        IH      LDR      r0,[pc,#292] ; [0x1a27c] = 0x1c5b5
        0x0001a156:    9901        ..      LDR      r1,[sp,#4]
        0x0001a158:    f04f0800    O...    MOV      r8,#0
        0x0001a15c:    b2c9        ..      UXTB     r1,r1
        0x0001a15e:    eb040181    ....    ADD      r1,r4,r1,LSL #2
        0x0001a162:    6288        .b      STR      r0,[r1,#0x28]
        0x0001a164:    9801        ..      LDR      r0,[sp,#4]
        0x0001a166:    4946        FI      LDR      r1,[pc,#280] ; [0x1a280] = 0x40050238
        0x0001a168:    b2c0        ..      UXTB     r0,r0
        0x0001a16a:    eb040080    ....    ADD      r0,r4,r0,LSL #2
        0x0001a16e:    f8c04428    ..(D    STR      r4,[r0,#0x428]
        0x0001a172:    6860        `h      LDR      r0,[r4,#4]
        0x0001a174:    eb013100    ...1    ADD      r1,r1,r0,LSL #12
        0x0001a178:    9800        ..      LDR      r0,[sp,#0]
        0x0001a17a:    e9c01800    ....    STRD     r1,r8,[r0,#0]
        0x0001a17e:    f7fef8ef    ....    BL       am_hal_interrupt_master_disable ; 0x18360
        0x0001a182:    4606        .F      MOV      r6,r0
        0x0001a184:    2101        .!      MOVS     r1,#1
        0x0001a186:    f8d40828    ..(.    LDR      r0,[r4,#0x828]
        0x0001a18a:    f7fff8f3    ....    BL       am_hal_cmdq_post_block ; 0x19374
        0x0001a18e:    b128        (.      CBZ      r0,0x1a19c ; am_hal_iom_control + 812
        0x0001a190:    f8d40828    ..(.    LDR      r0,[r4,#0x828]
        0x0001a194:    f7fff942    ..B.    BL       am_hal_cmdq_release_block ; 0x1941c
        0x0001a198:    e029        ).      B        0x1a1ee ; am_hal_iom_control + 894
        0x0001a19a:    e02e        ..      B        0x1a1fa ; am_hal_iom_control + 906
        0x0001a19c:    6a60        `j      LDR      r0,[r4,#0x24]
        0x0001a19e:    1c41        A.      ADDS     r1,r0,#1
        0x0001a1a0:    6261        ab      STR      r1,[r4,#0x24]
        0x0001a1a2:    bb20         .      CBNZ     r0,0x1a1ee ; am_hal_iom_control + 894
        0x0001a1a4:    0338        8.      LSLS     r0,r7,#12
        0x0001a1a6:    f1004080    ...@    ADD      r0,r0,#0x40000000
        0x0001a1aa:    f50020a0    ...     ADD      r0,r0,#0x50000
        0x0001a1ae:    f8d01200    ....    LDR      r1,[r0,#0x200]
        0x0001a1b2:    6161        aa      STR      r1,[r4,#0x14]
        0x0001a1b4:    f8c08200    ....    STR      r8,[r0,#0x200]
        0x0001a1b8:    f04f31ff    O..1    MOV      r1,#0xffffffff
        0x0001a1bc:    f8c01208    ....    STR      r1,[r0,#0x208]
        0x0001a1c0:    f646217c    F.|!    MOV      r1,#0x6a7c
        0x0001a1c4:    f8c01200    ....    STR      r1,[r0,#0x200]
        0x0001a1c8:    6a60        `j      LDR      r0,[r4,#0x24]
        0x0001a1ca:    b960        `.      CBNZ     r0,0x1a1e6 ; am_hal_iom_control + 886
        0x0001a1cc:    6861        ah      LDR      r1,[r4,#4]
        0x0001a1ce:    0308        ..      LSLS     r0,r1,#12
        0x0001a1d0:    f1004080    ...@    ADD      r0,r0,#0x40000000
        0x0001a1d4:    f50020a0    ...     ADD      r0,r0,#0x50000
        0x0001a1d8:    f8d0022c    ..,.    LDR      r0,[r0,#0x22c]
        0x0001a1dc:    4a29        )J      LDR      r2,[pc,#164] ; [0x1a284] = 0x4005022c
        0x0001a1de:    eb023101    ...1    ADD      r1,r2,r1,LSL #12
        0x0001a1e2:    e9c01000    ....    STRD     r1,r0,[r0,#0]
        0x0001a1e6:    f8d40828    ..(.    LDR      r0,[r4,#0x828]
        0x0001a1ea:    f7feff9f    ....    BL       am_hal_cmdq_enable ; 0x1912c
        0x0001a1ee:    4630        0F      MOV      r0,r6
        0x0001a1f0:    f7fef8ba    ....    BL       am_hal_interrupt_master_set ; 0x18368
        0x0001a1f4:    f04f0840    O.@.    MOV      r8,#0x40
        0x0001a1f8:    4646        FF      MOV      r6,r8
        0x0001a1fa:    ab01        ..      ADD      r3,sp,#4
        0x0001a1fc:    466a        jF      MOV      r2,sp
        0x0001a1fe:    2103        .!      MOVS     r1,#3
        0x0001a200:    f8d40828    ..(.    LDR      r0,[r4,#0x828]
        0x0001a204:    f7feff0c    ....    BL       am_hal_cmdq_alloc_block ; 0x19020
        0x0001a208:    2800        .(      CMP      r0,#0
        0x0001a20a:    bf1c        ..      ITT      NE
        0x0001a20c:    b003        ..      ADDNE    sp,sp,#0xc
        0x0001a20e:    e8bd83f0    ....    POPNE    {r4-r9,pc}
        0x0001a212:    491d        .I      LDR      r1,[pc,#116] ; [0x1a288] = 0x4005023c
        0x0001a214:    9800        ..      LDR      r0,[sp,#0]
        0x0001a216:    eb013107    ...1    ADD      r1,r1,r7,LSL #12
        0x0001a21a:    6081        .`      STR      r1,[r0,#8]
        0x0001a21c:    6001        .`      STR      r1,[r0,#0]
        0x0001a21e:    4918        .I      LDR      r1,[pc,#96] ; [0x1a280] = 0x40050238
        0x0001a220:    eb013107    ...1    ADD      r1,r1,r7,LSL #12
        0x0001a224:    6101        .a      STR      r1,[r0,#0x10]
        0x0001a226:    6869        ih      LDR      r1,[r5,#4]
        0x0001a228:    f8d42838    ..8(    LDR      r2,[r4,#0x838]
        0x0001a22c:    ea410108    A...    ORR      r1,r1,r8
        0x0001a230:    2a01        .*      CMP      r2,#1
        0x0001a232:    d02b        +.      BEQ      0x1a28c ; am_hal_iom_control + 1052
        0x0001a234:    2a02        .*      CMP      r2,#2
        0x0001a236:    bf0e        ..      ITEE     EQ
        0x0001a238:    f44f4100    O..A    MOVEQ    r1,#0x8000
        0x0001a23c:    f2480280    H...    MOVNE    r2,#0x8080
        0x0001a240:    4311        .C      ORRNE    r1,r1,r2
        0x0001a242:    6041        A`      STR      r1,[r0,#4]
        0x0001a244:    f44f4100    O..A    MOV      r1,#0x8000
        0x0001a248:    60c1        .`      STR      r1,[r0,#0xc]
        0x0001a24a:    68a9        .h      LDR      r1,[r5,#8]
        0x0001a24c:    4331        1C      ORRS     r1,r1,r6
        0x0001a24e:    6141        Aa      STR      r1,[r0,#0x14]
        0x0001a250:    f7fef886    ....    BL       am_hal_interrupt_master_disable ; 0x18360
        0x0001a254:    4606        .F      MOV      r6,r0
        0x0001a256:    7828        (x      LDRB     r0,[r5,#0]
        0x0001a258:    f04f0100    O...    MOV      r1,#0
        0x0001a25c:    2800        .(      CMP      r0,#0
        0x0001a25e:    f8d40828    ..(.    LDR      r0,[r4,#0x828]
        0x0001a262:    d01a        ..      BEQ      0x1a29a ; am_hal_iom_control + 1066
        0x0001a264:    f7fff8ac    ....    BL       am_hal_cmdq_post_loop_block ; 0x193c0
        0x0001a268:    e019        ..      B        0x1a29e ; am_hal_iom_control + 1070
    $d
        0x0001a26a:    0000        ..      DCW    0
        0x0001a26c:    00123456    V4..    DCD    1193046
        0x0001a270:    00e0e0e0    ....    DCD    14737632
        0x0001a274:    000186a0    ....    DCD    100000
        0x0001a278:    40050224    $..@    DCD    1074070052
        0x0001a27c:    0001c5b5    ....    DCD    116149
        0x0001a280:    40050238    8..@    DCD    1074070072
        0x0001a284:    4005022c    ,..@    DCD    1074070060
        0x0001a288:    4005023c    <..@    DCD    1074070076
    $t
        0x0001a28c:    f24802a0    H...    MOV      r2,#0x80a0
        0x0001a290:    4311        .C      ORRS     r1,r1,r2
        0x0001a292:    2202        ."      MOVS     r2,#2
        0x0001a294:    f8c42838    ..8(    STR      r2,[r4,#0x838]
        0x0001a298:    e7d3        ..      B        0x1a242 ; am_hal_iom_control + 978
        0x0001a29a:    f7fff86b    ..k.    BL       am_hal_cmdq_post_block ; 0x19374
        0x0001a29e:    b120         .      CBZ      r0,0x1a2aa ; am_hal_iom_control + 1082
        0x0001a2a0:    f8d40828    ..(.    LDR      r0,[r4,#0x828]
        0x0001a2a4:    f7fff8ba    ....    BL       am_hal_cmdq_release_block ; 0x1941c
        0x0001a2a8:    e02e        ..      B        0x1a308 ; am_hal_iom_control + 1176
        0x0001a2aa:    6a60        `j      LDR      r0,[r4,#0x24]
        0x0001a2ac:    1c41        A.      ADDS     r1,r0,#1
        0x0001a2ae:    6261        ab      STR      r1,[r4,#0x24]
        0x0001a2b0:    7829        )x      LDRB     r1,[r5,#0]
        0x0001a2b2:    2900        .)      CMP      r1,#0
        0x0001a2b4:    bf18        ..      IT       NE
        0x0001a2b6:    2102        .!      MOVNE    r1,#2
        0x0001a2b8:    f884182c    ..,.    STRB     r1,[r4,#0x82c]
        0x0001a2bc:    bb20         .      CBNZ     r0,0x1a308 ; am_hal_iom_control + 1176
        0x0001a2be:    0338        8.      LSLS     r0,r7,#12
        0x0001a2c0:    f1004080    ...@    ADD      r0,r0,#0x40000000
        0x0001a2c4:    f50020a0    ...     ADD      r0,r0,#0x50000
        0x0001a2c8:    f8d01200    ....    LDR      r1,[r0,#0x200]
        0x0001a2cc:    6161        aa      STR      r1,[r4,#0x14]
        0x0001a2ce:    2100        .!      MOVS     r1,#0
        0x0001a2d0:    f8c01200    ....    STR      r1,[r0,#0x200]
        0x0001a2d4:    1e49        I.      SUBS     r1,r1,#1
        0x0001a2d6:    f8c01208    ....    STR      r1,[r0,#0x208]
        0x0001a2da:    f646217c    F.|!    MOV      r1,#0x6a7c
        0x0001a2de:    f8c01200    ....    STR      r1,[r0,#0x200]
        0x0001a2e2:    6a60        `j      LDR      r0,[r4,#0x24]
        0x0001a2e4:    b960        `.      CBNZ     r0,0x1a300 ; am_hal_iom_control + 1168
        0x0001a2e6:    6861        ah      LDR      r1,[r4,#4]
        0x0001a2e8:    0308        ..      LSLS     r0,r1,#12
        0x0001a2ea:    f1004080    ...@    ADD      r0,r0,#0x40000000
        0x0001a2ee:    f50020a0    ...     ADD      r0,r0,#0x50000
        0x0001a2f2:    f8d0022c    ..,.    LDR      r0,[r0,#0x22c]
        0x0001a2f6:    4ab3        .J      LDR      r2,[pc,#716] ; [0x1a5c4] = 0x4005022c
        0x0001a2f8:    eb023101    ...1    ADD      r1,r2,r1,LSL #12
        0x0001a2fc:    e9c01000    ....    STRD     r1,r0,[r0,#0]
        0x0001a300:    f8d40828    ..(.    LDR      r0,[r4,#0x828]
        0x0001a304:    f7feff12    ....    BL       am_hal_cmdq_enable ; 0x1912c
        0x0001a308:    4630        0F      MOV      r0,r6
        0x0001a30a:    f7fef82d    ..-.    BL       am_hal_interrupt_master_set ; 0x18368
        0x0001a30e:    b003        ..      ADD      sp,sp,#0xc
        0x0001a310:    2000        .       MOVS     r0,#0
        0x0001a312:    e8bd83f0    ....    POP      {r4-r9,pc}
        0x0001a316:    b3b2        ..      CBZ      r2,0x1a386 ; am_hal_iom_control + 1302
        0x0001a318:    2000        .       MOVS     r0,#0
        0x0001a31a:    f8c40850    ..P.    STR      r0,[r4,#0x850]
        0x0001a31e:    f8c40840    ..@.    STR      r0,[r4,#0x840]
        0x0001a322:    2001        .       MOVS     r0,#1
        0x0001a324:    f8c4084c    ..L.    STR      r0,[r4,#0x84c]
        0x0001a328:    6810        .h      LDR      r0,[r2,#0]
        0x0001a32a:    f8c40854    ..T.    STR      r0,[r4,#0x854]
        0x0001a32e:    6850        Ph      LDR      r0,[r2,#4]
        0x0001a330:    0940        @.      LSRS     r0,r0,#5
        0x0001a332:    f8c40848    ..H.    STR      r0,[r4,#0x848]
        0x0001a336:    e0fe        ..      B        0x1a536 ; am_hal_iom_control + 1734
        0x0001a338:    2020                MOVS     r0,#0x20
        0x0001a33a:    0339        9.      LSLS     r1,r7,#12
        0x0001a33c:    f1014180    ...A    ADD      r1,r1,#0x40000000
        0x0001a340:    f50121a0    ...!    ADD      r1,r1,#0x50000
        0x0001a344:    f8c10238    ..8.    STR      r0,[r1,#0x238]
        0x0001a348:    2001        .       MOVS     r0,#1
        0x0001a34a:    f8c40838    ..8.    STR      r0,[r4,#0x838]
        0x0001a34e:    2000        .       MOVS     r0,#0
        0x0001a350:    f8c40844    ..D.    STR      r0,[r4,#0x844]
        0x0001a354:    e0ef        ..      B        0x1a536 ; am_hal_iom_control + 1734
        0x0001a356:    0339        9.      LSLS     r1,r7,#12
        0x0001a358:    f1014180    ...A    ADD      r1,r1,#0x40000000
        0x0001a35c:    f50121a0    ...!    ADD      r1,r1,#0x50000
        0x0001a360:    f44f1000    O...    MOV      r0,#0x200000
        0x0001a364:    f8c10238    ..8.    STR      r0,[r1,#0x238]
        0x0001a368:    2600        .&      MOVS     r6,#0
        0x0001a36a:    f8c46838    ..8h    STR      r6,[r4,#0x838]
        0x0001a36e:    f8d41844    ..D.    LDR      r1,[r4,#0x844]
        0x0001a372:    2900        .)      CMP      r1,#0
        0x0001a374:    d07e        ~.      BEQ      0x1a474 ; am_hal_iom_control + 1540
        0x0001a376:    4620         F      MOV      r0,r4
        0x0001a378:    f002fb04    ....    BL       sched_hiprio ; 0x1c984
        0x0001a37c:    0005        ..      MOVS     r5,r0
        0x0001a37e:    bf08        ..      IT       EQ
        0x0001a380:    f8c46844    ..Dh    STREQ    r6,[r4,#0x844]
        0x0001a384:    e0d7        ..      B        0x1a536 ; am_hal_iom_control + 1734
        0x0001a386:    e02b        +.      B        0x1a3e0 ; am_hal_iom_control + 1392
        0x0001a388:    b352        R.      CBZ      r2,0x1a3e0 ; am_hal_iom_control + 1392
        0x0001a38a:    7a20         z      LDRB     r0,[r4,#8]
        0x0001a38c:    bb40        @.      CBNZ     r0,0x1a3e0 ; am_hal_iom_control + 1392
        0x0001a38e:    7811        .x      LDRB     r1,[r2,#0]
        0x0001a390:    7850        Px      LDRB     r0,[r2,#1]
        0x0001a392:    4281        .B      CMP      r1,r0
        0x0001a394:    d024        $.      BEQ      0x1a3e0 ; am_hal_iom_control + 1392
        0x0001a396:    2904        .)      CMP      r1,#4
        0x0001a398:    d822        ".      BHI      0x1a3e0 ; am_hal_iom_control + 1392
        0x0001a39a:    28ff        .(      CMP      r0,#0xff
        0x0001a39c:    bf08        ..      IT       EQ
        0x0001a39e:    2000        .       MOVEQ    r0,#0
        0x0001a3a0:    d006        ..      BEQ      0x1a3b0 ; am_hal_iom_control + 1344
        0x0001a3a2:    2804        .(      CMP      r0,#4
        0x0001a3a4:    d81c        ..      BHI      0x1a3e0 ; am_hal_iom_control + 1392
        0x0001a3a6:    2201        ."      MOVS     r2,#1
        0x0001a3a8:    fa02f000    ....    LSL      r0,r2,r0
        0x0001a3ac:    f0400010    @...    ORR      r0,r0,#0x10
        0x0001a3b0:    f504620a    ...b    ADD      r2,r4,#0x8a0
        0x0001a3b4:    5488        .T      STRB     r0,[r1,r2]
        0x0001a3b6:    e0be        ..      B        0x1a536 ; am_hal_iom_control + 1734
        0x0001a3b8:    0016        ..      MOVS     r6,r2
        0x0001a3ba:    d011        ..      BEQ      0x1a3e0 ; am_hal_iom_control + 1392
        0x0001a3bc:    f8d40828    ..(.    LDR      r0,[r4,#0x828]
        0x0001a3c0:    b190        ..      CBZ      r0,0x1a3e8 ; am_hal_iom_control + 1400
        0x0001a3c2:    6a61        aj      LDR      r1,[r4,#0x24]
        0x0001a3c4:    f5b17f80    ....    CMP      r1,#0x100
        0x0001a3c8:    d006        ..      BEQ      0x1a3d8 ; am_hal_iom_control + 1384
        0x0001a3ca:    68f1        .h      LDR      r1,[r6,#0xc]
        0x0001a3cc:    ab01        ..      ADD      r3,sp,#4
        0x0001a3ce:    466a        jF      MOV      r2,sp
        0x0001a3d0:    1cc9        ..      ADDS     r1,r1,#3
        0x0001a3d2:    f7fefe25    ..%.    BL       am_hal_cmdq_alloc_block ; 0x19020
        0x0001a3d6:    b158        X.      CBZ      r0,0x1a3f0 ; am_hal_iom_control + 1408
        0x0001a3d8:    b003        ..      ADD      sp,sp,#0xc
        0x0001a3da:    2005        .       MOVS     r0,#5
        0x0001a3dc:    e8bd83f0    ....    POP      {r4-r9,pc}
        0x0001a3e0:    b003        ..      ADD      sp,sp,#0xc
        0x0001a3e2:    2006        .       MOVS     r0,#6
        0x0001a3e4:    e8bd83f0    ....    POP      {r4-r9,pc}
        0x0001a3e8:    b003        ..      ADD      sp,sp,#0xc
        0x0001a3ea:    2007        .       MOVS     r0,#7
        0x0001a3ec:    e8bd83f0    ....    POP      {r4-r9,pc}
        0x0001a3f0:    f8df81d4    ....    LDR      r8,[pc,#468] ; [0x1a5c8] = 0x4005023c
        0x0001a3f4:    6860        `h      LDR      r0,[r4,#4]
        0x0001a3f6:    9900        ..      LDR      r1,[sp,#0]
        0x0001a3f8:    eb083000    ...0    ADD      r0,r8,r0,LSL #12
        0x0001a3fc:    6008        .`      STR      r0,[r1,#0]
        0x0001a3fe:    f8d42838    ..8(    LDR      r2,[r4,#0x838]
        0x0001a402:    6830        0h      LDR      r0,[r6,#0]
        0x0001a404:    2a01        .*      CMP      r2,#1
        0x0001a406:    d062        b.      BEQ      0x1a4ce ; am_hal_iom_control + 1630
        0x0001a408:    2a02        .*      CMP      r2,#2
        0x0001a40a:    bf0e        ..      ITEE     EQ
        0x0001a40c:    f44f4000    O..@    MOVEQ    r0,#0x8000
        0x0001a410:    f2480280    H...    MOVNE    r2,#0x8080
        0x0001a414:    4310        .C      ORRNE    r0,r0,r2
        0x0001a416:    6048        H`      STR      r0,[r1,#4]
        0x0001a418:    f1010008    ....    ADD      r0,r1,#8
        0x0001a41c:    9000        ..      STR      r0,[sp,#0]
        0x0001a41e:    f8d6c00c    ....    LDR      r12,[r6,#0xc]
        0x0001a422:    f1bc0f00    ....    CMP      r12,#0
        0x0001a426:    d02e        ..      BEQ      0x1a486 ; am_hal_iom_control + 1558
        0x0001a428:    68b1        .h      LDR      r1,[r6,#8]
        0x0001a42a:    f1a00208    ....    SUB      r2,r0,#8
        0x0001a42e:    f1a10308    ....    SUB      r3,r1,#8
        0x0001a432:    1f00        ..      SUBS     r0,r0,#4
        0x0001a434:    1f09        ..      SUBS     r1,r1,#4
        0x0001a436:    f01c0f01    ....    TST      r12,#1
        0x0001a43a:    d007        ..      BEQ      0x1a44c ; am_hal_iom_control + 1500
        0x0001a43c:    f853cf08    S...    LDR      r12,[r3,#8]!
        0x0001a440:    f842cf08    B...    STR      r12,[r2,#8]!
        0x0001a444:    f851cf08    Q...    LDR      r12,[r1,#8]!
        0x0001a448:    f840cf08    @...    STR      r12,[r0,#8]!
        0x0001a44c:    f8d6c00c    ....    LDR      r12,[r6,#0xc]
        0x0001a450:    ea5f0c5c    _.\.    LSRS     r12,r12,#1
        0x0001a454:    d012        ..      BEQ      0x1a47c ; am_hal_iom_control + 1548
        0x0001a456:    688d        .h      LDR      r5,[r1,#8]
        0x0001a458:    f8d39008    ....    LDR      r9,[r3,#8]
        0x0001a45c:    f8c29008    ....    STR      r9,[r2,#8]
        0x0001a460:    6085        .`      STR      r5,[r0,#8]
        0x0001a462:    f8515f10    Q.._    LDR      r5,[r1,#0x10]!
        0x0001a466:    f8539f10    S...    LDR      r9,[r3,#0x10]!
        0x0001a46a:    f8429f10    B...    STR      r9,[r2,#0x10]!
        0x0001a46e:    f8405f10    @.._    STR      r5,[r0,#0x10]!
        0x0001a472:    e000        ..      B        0x1a476 ; am_hal_iom_control + 1542
        0x0001a474:    e05f        _.      B        0x1a536 ; am_hal_iom_control + 1734
        0x0001a476:    f1bc0c01    ....    SUBS     r12,r12,#1
        0x0001a47a:    d1ec        ..      BNE      0x1a456 ; am_hal_iom_control + 1510
        0x0001a47c:    68f0        .h      LDR      r0,[r6,#0xc]
        0x0001a47e:    9900        ..      LDR      r1,[sp,#0]
        0x0001a480:    eb0100c0    ....    ADD      r0,r1,r0,LSL #3
        0x0001a484:    9000        ..      STR      r0,[sp,#0]
        0x0001a486:    69b0        .i      LDR      r0,[r6,#0x18]
        0x0001a488:    2800        .(      CMP      r0,#0
        0x0001a48a:    bf1c        ..      ITT      NE
        0x0001a48c:    9900        ..      LDRNE    r1,[sp,#0]
        0x0001a48e:    6001        .`      STRNE    r1,[r0,#0]
        0x0001a490:    6860        `h      LDR      r0,[r4,#4]
        0x0001a492:    4a4e        NJ      LDR      r2,[pc,#312] ; [0x1a5cc] = 0x40050238
        0x0001a494:    eb083100    ...1    ADD      r1,r8,r0,LSL #12
        0x0001a498:    9800        ..      LDR      r0,[sp,#0]
        0x0001a49a:    f8401b04    @...    STR      r1,[r0],#4
        0x0001a49e:    f44f4100    O..A    MOV      r1,#0x8000
        0x0001a4a2:    f8401b04    @...    STR      r1,[r0],#4
        0x0001a4a6:    9000        ..      STR      r0,[sp,#0]
        0x0001a4a8:    6861        ah      LDR      r1,[r4,#4]
        0x0001a4aa:    eb023101    ...1    ADD      r1,r2,r1,LSL #12
        0x0001a4ae:    6001        .`      STR      r1,[r0,#0]
        0x0001a4b0:    6871        qh      LDR      r1,[r6,#4]
        0x0001a4b2:    6041        A`      STR      r1,[r0,#4]
        0x0001a4b4:    f8d69010    ....    LDR      r9,[r6,#0x10]
        0x0001a4b8:    f1b90f00    ....    CMP      r9,#0
        0x0001a4bc:    bf01        ..      ITTTT    EQ
        0x0001a4be:    f8d40838    ..8.    LDREQ    r0,[r4,#0x838]
        0x0001a4c2:    2800        .(      CMPEQ    r0,#0
        0x0001a4c4:    f894082c    ..,.    LDRBEQ   r0,[r4,#0x82c]
        0x0001a4c8:    2800        .(      CMPEQ    r0,#0
        0x0001a4ca:    d112        ..      BNE      0x1a4f2 ; am_hal_iom_control + 1666
        0x0001a4cc:    e008        ..      B        0x1a4e0 ; am_hal_iom_control + 1648
        0x0001a4ce:    f24802a0    H...    MOV      r2,#0x80a0
        0x0001a4d2:    ea400002    @...    ORR      r0,r0,r2
        0x0001a4d6:    f04f0202    O...    MOV      r2,#2
        0x0001a4da:    f8c42838    ..8(    STR      r2,[r4,#0x838]
        0x0001a4de:    e79a        ..      B        0x1a416 ; am_hal_iom_control + 1446
        0x0001a4e0:    f8d4185c    ..\.    LDR      r1,[r4,#0x85c]
        0x0001a4e4:    f8d40858    ..X.    LDR      r0,[r4,#0x858]
        0x0001a4e8:    ebb10f50    ..P.    CMP      r1,r0,LSR #1
        0x0001a4ec:    bf28        (.      IT       CS
        0x0001a4ee:    f8df90e0    ....    LDRCS    r9,[pc,#224] ; [0x1a5d0] = 0x1c515
        0x0001a4f2:    9801        ..      LDR      r0,[sp,#4]
        0x0001a4f4:    b2c0        ..      UXTB     r0,r0
        0x0001a4f6:    eb040080    ....    ADD      r0,r4,r0,LSL #2
        0x0001a4fa:    f8c09028    ..(.    STR      r9,[r0,#0x28]
        0x0001a4fe:    9901        ..      LDR      r1,[sp,#4]
        0x0001a500:    6970        pi      LDR      r0,[r6,#0x14]
        0x0001a502:    b2c9        ..      UXTB     r1,r1
        0x0001a504:    eb040181    ....    ADD      r1,r4,r1,LSL #2
        0x0001a508:    f8c10428    ..(.    STR      r0,[r1,#0x428]
        0x0001a50c:    f7fdff28    ..(.    BL       am_hal_interrupt_master_disable ; 0x18360
        0x0001a510:    4680        .F      MOV      r8,r0
        0x0001a512:    f1b90f00    ....    CMP      r9,#0
        0x0001a516:    bf14        ..      ITE      NE
        0x0001a518:    2101        .!      MOVNE    r1,#1
        0x0001a51a:    2100        .!      MOVEQ    r1,#0
        0x0001a51c:    f8d40828    ..(.    LDR      r0,[r4,#0x828]
        0x0001a520:    f7feff28    ..(.    BL       am_hal_cmdq_post_block ; 0x19374
        0x0001a524:    0005        ..      MOVS     r5,r0
        0x0001a526:    d00a        ..      BEQ      0x1a53e ; am_hal_iom_control + 1742
        0x0001a528:    f8d40828    ..(.    LDR      r0,[r4,#0x828]
        0x0001a52c:    f7feff76    ..v.    BL       am_hal_cmdq_release_block ; 0x1941c
        0x0001a530:    4640        @F      MOV      r0,r8
        0x0001a532:    f7fdff19    ....    BL       am_hal_interrupt_master_set ; 0x18368
        0x0001a536:    b003        ..      ADD      sp,sp,#0xc
        0x0001a538:    4628        (F      MOV      r0,r5
        0x0001a53a:    e8bd83f0    ....    POP      {r4-r9,pc}
        0x0001a53e:    6a60        `j      LDR      r0,[r4,#0x24]
        0x0001a540:    1c41        A.      ADDS     r1,r0,#1
        0x0001a542:    6261        ab      STR      r1,[r4,#0x24]
        0x0001a544:    f8d41830    ..0.    LDR      r1,[r4,#0x830]
        0x0001a548:    1c49        I.      ADDS     r1,r1,#1
        0x0001a54a:    f8c41830    ..0.    STR      r1,[r4,#0x830]
        0x0001a54e:    6931        1i      LDR      r1,[r6,#0x10]
        0x0001a550:    b1d9        ..      CBZ      r1,0x1a58a ; am_hal_iom_control + 1818
        0x0001a552:    2100        .!      MOVS     r1,#0
        0x0001a554:    f884182d    ..-.    STRB     r1,[r4,#0x82d]
        0x0001a558:    f8c4185c    ..\.    STR      r1,[r4,#0x85c]
        0x0001a55c:    2800        .(      CMP      r0,#0
        0x0001a55e:    d1e7        ..      BNE      0x1a530 ; am_hal_iom_control + 1728
        0x0001a560:    0338        8.      LSLS     r0,r7,#12
        0x0001a562:    f1004080    ...@    ADD      r0,r0,#0x40000000
        0x0001a566:    f50020a0    ...     ADD      r0,r0,#0x50000
        0x0001a56a:    f8d01200    ....    LDR      r1,[r0,#0x200]
        0x0001a56e:    6161        aa      STR      r1,[r4,#0x14]
        0x0001a570:    2100        .!      MOVS     r1,#0
        0x0001a572:    f8c01200    ....    STR      r1,[r0,#0x200]
        0x0001a576:    1e49        I.      SUBS     r1,r1,#1
        0x0001a578:    f8c01208    ....    STR      r1,[r0,#0x208]
        0x0001a57c:    f646217c    F.|!    MOV      r1,#0x6a7c
        0x0001a580:    f8c01200    ....    STR      r1,[r0,#0x200]
        0x0001a584:    6a60        `j      LDR      r0,[r4,#0x24]
        0x0001a586:    b9b8        ..      CBNZ     r0,0x1a5b8 ; am_hal_iom_control + 1864
        0x0001a588:    e009        ..      B        0x1a59e ; am_hal_iom_control + 1838
        0x0001a58a:    f1b90f00    ....    CMP      r9,#0
        0x0001a58e:    bf12        ..      ITEE     NE
        0x0001a590:    2100        .!      MOVNE    r1,#0
        0x0001a592:    f8d4185c    ..\.    LDREQ    r1,[r4,#0x85c]
        0x0001a596:    1c49        I.      ADDEQ    r1,r1,#1
        0x0001a598:    f8c4185c    ..\.    STR      r1,[r4,#0x85c]
        0x0001a59c:    e7de        ..      B        0x1a55c ; am_hal_iom_control + 1772
        0x0001a59e:    6861        ah      LDR      r1,[r4,#4]
        0x0001a5a0:    0308        ..      LSLS     r0,r1,#12
        0x0001a5a2:    f1004080    ...@    ADD      r0,r0,#0x40000000
        0x0001a5a6:    f50020a0    ...     ADD      r0,r0,#0x50000
        0x0001a5aa:    f8d0022c    ..,.    LDR      r0,[r0,#0x22c]
        0x0001a5ae:    4a05        .J      LDR      r2,[pc,#20] ; [0x1a5c4] = 0x4005022c
        0x0001a5b0:    eb023101    ...1    ADD      r1,r2,r1,LSL #12
        0x0001a5b4:    e9c01000    ....    STRD     r1,r0,[r0,#0]
        0x0001a5b8:    f8d40828    ..(.    LDR      r0,[r4,#0x828]
        0x0001a5bc:    f7fefdb6    ....    BL       am_hal_cmdq_enable ; 0x1912c
        0x0001a5c0:    e7b6        ..      B        0x1a530 ; am_hal_iom_control + 1728
    $d
        0x0001a5c2:    0000        ..      DCW    0
        0x0001a5c4:    4005022c    ,..@    DCD    1074070060
        0x0001a5c8:    4005023c    <..@    DCD    1074070076
        0x0001a5cc:    40050238    8..@    DCD    1074070072
        0x0001a5d0:    0001c515    ....    DCD    115989
    $t
    i.am_hal_iom_disable
    am_hal_iom_disable
        0x0001a5d4:    b570        p.      PUSH     {r4-r6,lr}
        0x0001a5d6:    1e04        ..      SUBS     r4,r0,#0
        0x0001a5d8:    bf1c        ..      ITT      NE
        0x0001a5da:    6801        .h      LDRNE    r1,[r0,#0]
        0x0001a5dc:    f0117f80    ....    TSTNE    r1,#0x1000000
        0x0001a5e0:    d004        ..      BEQ      0x1a5ec ; am_hal_iom_disable + 24
        0x0001a5e2:    4b1c        .K      LDR      r3,[pc,#112] ; [0x1a654] = 0x123456
        0x0001a5e4:    f021427f    !..B    BIC      r2,r1,#0xff000000
        0x0001a5e8:    429a        .B      CMP      r2,r3
        0x0001a5ea:    d001        ..      BEQ      0x1a5f0 ; am_hal_iom_disable + 28
        0x0001a5ec:    2002        .       MOVS     r0,#2
        0x0001a5ee:    bd70        p.      POP      {r4-r6,pc}
        0x0001a5f0:    f0117f00    ....    TST      r1,#0x2000000
        0x0001a5f4:    bf04        ..      ITT      EQ
        0x0001a5f6:    2000        .       MOVEQ    r0,#0
        0x0001a5f8:    bd70        p.      POPEQ    {r4-r6,pc}
        0x0001a5fa:    6a61        aj      LDR      r1,[r4,#0x24]
        0x0001a5fc:    2900        .)      CMP      r1,#0
        0x0001a5fe:    bf1c        ..      ITT      NE
        0x0001a600:    2003        .       MOVNE    r0,#3
        0x0001a602:    bd70        p.      POPNE    {r4-r6,pc}
        0x0001a604:    6861        ah      LDR      r1,[r4,#4]
        0x0001a606:    0309        ..      LSLS     r1,r1,#12
        0x0001a608:    f1014180    ...A    ADD      r1,r1,#0x40000000
        0x0001a60c:    f50121a0    ...!    ADD      r1,r1,#0x50000
        0x0001a610:    f8d1211c    ...!    LDR      r2,[r1,#0x11c]
        0x0001a614:    f0220201    "...    BIC      r2,r2,#1
        0x0001a618:    f8c1211c    ...!    STR      r2,[r1,#0x11c]
        0x0001a61c:    6861        ah      LDR      r1,[r4,#4]
        0x0001a61e:    0309        ..      LSLS     r1,r1,#12
        0x0001a620:    f1014180    ...A    ADD      r1,r1,#0x40000000
        0x0001a624:    f50121a0    ...!    ADD      r1,r1,#0x50000
        0x0001a628:    f8d1211c    ...!    LDR      r2,[r1,#0x11c]
        0x0001a62c:    f0220210    "...    BIC      r2,r2,#0x10
        0x0001a630:    f8c1211c    ...!    STR      r2,[r1,#0x11c]
        0x0001a634:    f8d40828    ..(.    LDR      r0,[r4,#0x828]
        0x0001a638:    4625        %F      MOV      r5,r4
        0x0001a63a:    b128        (.      CBZ      r0,0x1a648 ; am_hal_iom_disable + 116
        0x0001a63c:    2101        .!      MOVS     r1,#1
        0x0001a63e:    f7feff3b    ..;.    BL       am_hal_cmdq_term ; 0x194b8
        0x0001a642:    2000        .       MOVS     r0,#0
        0x0001a644:    f8c50828    ..(.    STR      r0,[r5,#0x828]
        0x0001a648:    6820         h      LDR      r0,[r4,#0]
        0x0001a64a:    f0207000     ..p    BIC      r0,r0,#0x2000000
        0x0001a64e:    6020         `      STR      r0,[r4,#0]
        0x0001a650:    2000        .       MOVS     r0,#0
        0x0001a652:    bd70        p.      POP      {r4-r6,pc}
    $d
        0x0001a654:    00123456    V4..    DCD    1193046
    $t
    i.am_hal_iom_enable
    am_hal_iom_enable
        0x0001a658:    b510        ..      PUSH     {r4,lr}
        0x0001a65a:    0004        ..      MOVS     r4,r0
        0x0001a65c:    b084        ..      SUB      sp,sp,#0x10
        0x0001a65e:    f04f0000    O...    MOV      r0,#0
        0x0001a662:    bf1c        ..      ITT      NE
        0x0001a664:    6821        !h      LDRNE    r1,[r4,#0]
        0x0001a666:    f0117f80    ....    TSTNE    r1,#0x1000000
        0x0001a66a:    d004        ..      BEQ      0x1a676 ; am_hal_iom_enable + 30
        0x0001a66c:    4b38        8K      LDR      r3,[pc,#224] ; [0x1a750] = 0x123456
        0x0001a66e:    f021427f    !..B    BIC      r2,r1,#0xff000000
        0x0001a672:    429a        .B      CMP      r2,r3
        0x0001a674:    d002        ..      BEQ      0x1a67c ; am_hal_iom_enable + 36
        0x0001a676:    b004        ..      ADD      sp,sp,#0x10
        0x0001a678:    2002        .       MOVS     r0,#2
        0x0001a67a:    bd10        ..      POP      {r4,pc}
        0x0001a67c:    f0117f00    ....    TST      r1,#0x2000000
        0x0001a680:    bf1e        ..      ITTT     NE
        0x0001a682:    2000        .       MOVNE    r0,#0
        0x0001a684:    b004        ..      ADDNE    sp,sp,#0x10
        0x0001a686:    bd10        ..      POPNE    {r4,pc}
        0x0001a688:    7a22        "z      LDRB     r2,[r4,#8]
        0x0001a68a:    6861        ah      LDR      r1,[r4,#4]
        0x0001a68c:    2a00        .*      CMP      r2,#0
        0x0001a68e:    bf14        ..      ITE      NE
        0x0001a690:    2301        .#      MOVNE    r3,#1
        0x0001a692:    2300        .#      MOVEQ    r3,#0
        0x0001a694:    0309        ..      LSLS     r1,r1,#12
        0x0001a696:    f1014280    ...B    ADD      r2,r1,#0x40000000
        0x0001a69a:    f50222a0    ..."    ADD      r2,r2,#0x50000
        0x0001a69e:    f8d2111c    ....    LDR      r1,[r2,#0x11c]
        0x0001a6a2:    f3c10c42    ..B.    UBFX     r12,r1,#1,#3
        0x0001a6a6:    2101        .!      MOVS     r1,#1
        0x0001a6a8:    459c        .E      CMP      r12,r3
        0x0001a6aa:    bf0e        ..      ITEE     EQ
        0x0001a6ac:    f8c2111c    ....    STREQ    r1,[r2,#0x11c]
        0x0001a6b0:    2310        .#      MOVNE    r3,#0x10
        0x0001a6b2:    f8c2311c    ...1    STRNE    r3,[r2,#0x11c]
        0x0001a6b6:    68e2        .h      LDR      r2,[r4,#0xc]
        0x0001a6b8:    2a00        .*      CMP      r2,#0
        0x0001a6ba:    d043        C.      BEQ      0x1a744 ; am_hal_iom_enable + 236
        0x0001a6bc:    2000        .       MOVS     r0,#0
        0x0001a6be:    6260        `b      STR      r0,[r4,#0x24]
        0x0001a6c0:    61e0        .a      STR      r0,[r4,#0x1c]
        0x0001a6c2:    6863        ch      LDR      r3,[r4,#4]
        0x0001a6c4:    4a23        #J      LDR      r2,[pc,#140] ; [0x1a754] = 0x800040
        0x0001a6c6:    031b        ..      LSLS     r3,r3,#12
        0x0001a6c8:    f1034380    ...C    ADD      r3,r3,#0x40000000
        0x0001a6cc:    f50323a0    ...#    ADD      r3,r3,#0x50000
        0x0001a6d0:    f8c32238    ..8"    STR      r2,[r3,#0x238]
        0x0001a6d4:    f8c40854    ..T.    STR      r0,[r4,#0x854]
        0x0001a6d8:    f884083c    ..<.    STRB     r0,[r4,#0x83c]
        0x0001a6dc:    f8c40838    ..8.    STR      r0,[r4,#0x838]
        0x0001a6e0:    f8c40844    ..D.    STR      r0,[r4,#0x844]
        0x0001a6e4:    f8c40840    ..@.    STR      r0,[r4,#0x840]
        0x0001a6e8:    f884082c    ..,.    STRB     r0,[r4,#0x82c]
        0x0001a6ec:    f8c40830    ..0.    STR      r0,[r4,#0x830]
        0x0001a6f0:    f884182d    ..-.    STRB     r1,[r4,#0x82d]
        0x0001a6f4:    e9d42303    ...#    LDRD     r2,r3,[r4,#0xc]
        0x0001a6f8:    f894c004    ....    LDRB     r12,[r4,#4]
        0x0001a6fc:    f8c40828    ..(.    STR      r0,[r4,#0x828]
        0x0001a700:    6220         b      STR      r0,[r4,#0x20]
        0x0001a702:    f8c4085c    ..\.    STR      r0,[r4,#0x85c]
        0x0001a706:    0858        X.      LSRS     r0,r3,#1
        0x0001a708:    e9cd0200    ....    STRD     r0,r2,[sp,#0]
        0x0001a70c:    f88d1008    ....    STRB     r1,[sp,#8]
        0x0001a710:    f00c00ff    ....    AND      r0,r12,#0xff
        0x0001a714:    f6040228    ..(.    ADD      r2,r4,#0x828
        0x0001a718:    4669        iF      MOV      r1,sp
        0x0001a71a:    f7fefdb3    ....    BL       am_hal_cmdq_init ; 0x19284
        0x0001a71e:    2800        .(      CMP      r0,#0
        0x0001a720:    bf04        ..      ITT      EQ
        0x0001a722:    f44f7280    O..r    MOVEQ    r2,#0x100
        0x0001a726:    6222        "b      STREQ    r2,[r4,#0x20]
        0x0001a728:    f04f0102    O...    MOV      r1,#2
        0x0001a72c:    6862        bh      LDR      r2,[r4,#4]
        0x0001a72e:    ea4f3202    O..2    LSL      r2,r2,#12
        0x0001a732:    f1024280    ...B    ADD      r2,r2,#0x40000000
        0x0001a736:    f50222a0    ..."    ADD      r2,r2,#0x50000
        0x0001a73a:    f8c21210    ....    STR      r1,[r2,#0x210]
        0x0001a73e:    bf1c        ..      ITT      NE
        0x0001a740:    b004        ..      ADDNE    sp,sp,#0x10
        0x0001a742:    bd10        ..      POPNE    {r4,pc}
        0x0001a744:    6821        !h      LDR      r1,[r4,#0]
        0x0001a746:    f0417100    A..q    ORR      r1,r1,#0x2000000
        0x0001a74a:    6021        !`      STR      r1,[r4,#0]
        0x0001a74c:    b004        ..      ADD      sp,sp,#0x10
        0x0001a74e:    bd10        ..      POP      {r4,pc}
    $d
        0x0001a750:    00123456    V4..    DCD    1193046
        0x0001a754:    00800040    @...    DCD    8388672
    $t
    i.am_hal_iom_highprio_transfer
    am_hal_iom_highprio_transfer
        0x0001a758:    e92d5ff0    -.._    PUSH     {r4-r12,lr}
        0x0001a75c:    461f        .F      MOV      r7,r3
        0x0001a75e:    4690        .F      MOV      r8,r2
        0x0001a760:    460d        .F      MOV      r5,r1
        0x0001a762:    0004        ..      MOVS     r4,r0
        0x0001a764:    4606        .F      MOV      r6,r0
        0x0001a766:    bf1c        ..      ITT      NE
        0x0001a768:    6820         h      LDRNE    r0,[r4,#0]
        0x0001a76a:    f0107f80    ....    TSTNE    r0,#0x1000000
        0x0001a76e:    d004        ..      BEQ      0x1a77a ; am_hal_iom_highprio_transfer + 34
        0x0001a770:    4951        QI      LDR      r1,[pc,#324] ; [0x1a8b8] = 0x123456
        0x0001a772:    f020407f     ..@    BIC      r0,r0,#0xff000000
        0x0001a776:    4288        .B      CMP      r0,r1
        0x0001a778:    d002        ..      BEQ      0x1a780 ; am_hal_iom_highprio_transfer + 40
        0x0001a77a:    2002        .       MOVS     r0,#2
        0x0001a77c:    e8bd9ff0    ....    POP      {r4-r12,pc}
        0x0001a780:    68f0        .h      LDR      r0,[r6,#0xc]
        0x0001a782:    2800        .(      CMP      r0,#0
        0x0001a784:    d07e        ~.      BEQ      0x1a884 ; am_hal_iom_highprio_transfer + 300
        0x0001a786:    2200        ."      MOVS     r2,#0
        0x0001a788:    4629        )F      MOV      r1,r5
        0x0001a78a:    4620         F      MOV      r0,r4
        0x0001a78c:    f002fba2    ....    BL       validate_transaction ; 0x1ced4
        0x0001a790:    0002        ..      MOVS     r2,r0
        0x0001a792:    bf18        ..      IT       NE
        0x0001a794:    e8bd9ff0    ....    POPNE    {r4-r12,pc}
        0x0001a798:    6a68        hj      LDR      r0,[r5,#0x24]
        0x0001a79a:    2800        .(      CMP      r0,#0
        0x0001a79c:    bf07        ..      ITTEE    EQ
        0x0001a79e:    6aa8        .j      LDREQ    r0,[r5,#0x28]
        0x0001a7a0:    2800        .(      CMPEQ    r0,#0
        0x0001a7a2:    2006        .       MOVNE    r0,#6
        0x0001a7a4:    e8bd9ff0    ....    POPNE    {r4-r12,pc}
        0x0001a7a8:    7d28        (}      LDRB     r0,[r5,#0x14]
        0x0001a7aa:    2801        .(      CMP      r0,#1
        0x0001a7ac:    d87b        {.      BHI      0x1a8a6 ; am_hal_iom_highprio_transfer + 334
        0x0001a7ae:    f8d61854    ..T.    LDR      r1,[r6,#0x854]
        0x0001a7b2:    2900        .)      CMP      r1,#0
        0x0001a7b4:    d077        w.      BEQ      0x1a8a6 ; am_hal_iom_highprio_transfer + 334
        0x0001a7b6:    f8d4c84c    ..L.    LDR      r12,[r4,#0x84c]
        0x0001a7ba:    f8d43848    ..H8    LDR      r3,[r4,#0x848]
        0x0001a7be:    fbbcf9f3    ....    UDIV     r9,r12,r3
        0x0001a7c2:    fb03cc19    ....    MLS      r12,r3,r9,r12
        0x0001a7c6:    f8d49840    ..@.    LDR      r9,[r4,#0x840]
        0x0001a7ca:    4599        .E      CMP      r9,r3
        0x0001a7cc:    bf08        ..      IT       EQ
        0x0001a7ce:    2205        ."      MOVEQ    r2,#5
        0x0001a7d0:    d066        f.      BEQ      0x1a8a0 ; am_hal_iom_highprio_transfer + 328
        0x0001a7d2:    2800        .(      CMP      r0,#0
        0x0001a7d4:    bf0c        ..      ITE      EQ
        0x0001a7d6:    69ab        .i      LDREQ    r3,[r5,#0x18]
        0x0001a7d8:    69eb        .i      LDRNE    r3,[r5,#0x1c]
        0x0001a7da:    eb01114c    ..L.    ADD      r1,r1,r12,LSL #5
        0x0001a7de:    f8d5c008    ....    LDR      r12,[r5,#8]
        0x0001a7e2:    f895900c    ....    LDRB     r9,[r5,#0xc]
        0x0001a7e6:    ea4f2c1c    O..,    LSR      r12,r12,#8
        0x0001a7ea:    ea4c6c09    L..l    ORR      r12,r12,r9,LSL #24
        0x0001a7ee:    f8c1c000    ....    STR      r12,[r1,#0]
        0x0001a7f2:    f8b5c000    ....    LDRH     r12,[r5,#0]
        0x0001a7f6:    f3cc0c09    ....    UBFX     r12,r12,#0,#10
        0x0001a7fa:    f8c1c004    ....    STR      r12,[r1,#4]
        0x0001a7fe:    60cb        .`      STR      r3,[r1,#0xc]
        0x0001a800:    692b        +i      LDR      r3,[r5,#0x10]
        0x0001a802:    608b        .`      STR      r3,[r1,#8]
        0x0001a804:    f8953022    .."0    LDRB     r3,[r5,#0x22]
        0x0001a808:    f44f7c80    O..|    MOV      r12,#0x100
        0x0001a80c:    ea0c2c03    ...,    AND      r12,r12,r3,LSL #8
        0x0001a810:    bf0c        ..      ITE      EQ
        0x0001a812:    2301        .#      MOVEQ    r3,#1
        0x0001a814:    2300        .#      MOVNE    r3,#0
        0x0001a816:    ea4c0343    L.C.    ORR      r3,r12,r3,LSL #1
        0x0001a81a:    610b        .a      STR      r3,[r1,#0x10]
        0x0001a81c:    f8d5c010    ....    LDR      r12,[r5,#0x10]
        0x0001a820:    f1bc0f00    ....    CMP      r12,#0
        0x0001a824:    bf1c        ..      ITT      NE
        0x0001a826:    f0430301    C...    ORRNE    r3,r3,#1
        0x0001a82a:    610b        .a      STRNE    r3,[r1,#0x10]
        0x0001a82c:    7a23        #z      LDRB     r3,[r4,#8]
        0x0001a82e:    2b00        .+      CMP      r3,#0
        0x0001a830:    bf0c        ..      ITE      EQ
        0x0001a832:    f8d5c000    ....    LDREQ    r12,[r5,#0]
        0x0001a836:    f04f0c00    O...    MOVNE    r12,#0
        0x0001a83a:    f895a020    .. .    LDRB     r10,[r5,#0x20]
        0x0001a83e:    e9d59301    ....    LDRD     r9,r3,[r5,#4]
        0x0001a842:    f44f1b40    O.@.    MOV      r11,#0x300000
        0x0001a846:    ea0b5c0c    ...\    AND      r12,r11,r12,LSL #20
        0x0001a84a:    692d        -i      LDR      r5,[r5,#0x10]
        0x0001a84c:    f8dfb06c    ..l.    LDR      r11,[pc,#108] ; [0x1a8bc] = 0xfffff
        0x0001a850:    2801        .(      CMP      r0,#1
        0x0001a852:    ea0b2505    ...%    AND      r5,r11,r5,LSL #8
        0x0001a856:    ea450c0c    E...    ORR      r12,r5,r12
        0x0001a85a:    bf0c        ..      ITE      EQ
        0x0001a85c:    f04c0002    L...    ORREQ    r0,r12,#2
        0x0001a860:    f04c0001    L...    ORRNE    r0,r12,#1
        0x0001a864:    f04f0c80    O...    MOV      r12,#0x80
        0x0001a868:    ea0c1cca    ....    AND      r12,r12,r10,LSL #7
        0x0001a86c:    ea4c0000    L...    ORR      r0,r12,r0
        0x0001a870:    ea406003    @..`    ORR      r0,r0,r3,LSL #24
        0x0001a874:    2370        p#      MOVS     r3,#0x70
        0x0001a876:    ea031309    ....    AND      r3,r3,r9,LSL #4
        0x0001a87a:    4318        .C      ORRS     r0,r0,r3
        0x0001a87c:    61cf        .a      STR      r7,[r1,#0x1c]
        0x0001a87e:    e9c10805    ....    STRD     r0,r8,[r1,#0x14]
        0x0001a882:    e000        ..      B        0x1a886 ; am_hal_iom_highprio_transfer + 302
        0x0001a884:    e00f        ..      B        0x1a8a6 ; am_hal_iom_highprio_transfer + 334
        0x0001a886:    f8d4084c    ..L.    LDR      r0,[r4,#0x84c]
        0x0001a88a:    1c40        @.      ADDS     r0,r0,#1
        0x0001a88c:    f8c4084c    ..L.    STR      r0,[r4,#0x84c]
        0x0001a890:    f8d60838    ..8.    LDR      r0,[r6,#0x838]
        0x0001a894:    b150        P.      CBZ      r0,0x1a8ac ; am_hal_iom_highprio_transfer + 340
        0x0001a896:    f8d60844    ..D.    LDR      r0,[r6,#0x844]
        0x0001a89a:    1c40        @.      ADDS     r0,r0,#1
        0x0001a89c:    f8c60844    ..D.    STR      r0,[r6,#0x844]
        0x0001a8a0:    4610        .F      MOV      r0,r2
        0x0001a8a2:    e8bd9ff0    ....    POP      {r4-r12,pc}
        0x0001a8a6:    2007        .       MOVS     r0,#7
        0x0001a8a8:    e8bd9ff0    ....    POP      {r4-r12,pc}
        0x0001a8ac:    2101        .!      MOVS     r1,#1
        0x0001a8ae:    4630        0F      MOV      r0,r6
        0x0001a8b0:    f002f868    ..h.    BL       sched_hiprio ; 0x1c984
        0x0001a8b4:    4602        .F      MOV      r2,r0
        0x0001a8b6:    e7f3        ..      B        0x1a8a0 ; am_hal_iom_highprio_transfer + 328
    $d
        0x0001a8b8:    00123456    V4..    DCD    1193046
        0x0001a8bc:    000fffff    ....    DCD    1048575
    $t
    i.am_hal_iom_initialize
    am_hal_iom_initialize
        0x0001a8c0:    2808        .(      CMP      r0,#8
        0x0001a8c2:    bf24        $.      ITT      CS
        0x0001a8c4:    2005        .       MOVCS    r0,#5
        0x0001a8c6:    4770        pG      BXCS     lr
        0x0001a8c8:    2900        .)      CMP      r1,#0
        0x0001a8ca:    bf04        ..      ITT      EQ
        0x0001a8cc:    2006        .       MOVEQ    r0,#6
        0x0001a8ce:    4770        pG      BXEQ     lr
        0x0001a8d0:    b410        ..      PUSH     {r4}
        0x0001a8d2:    f2402229    @.)"    MOV      r2,#0x229
        0x0001a8d6:    fb00f302    ....    MUL      r3,r0,r2
        0x0001a8da:    4a0c        .J      LDR      r2,[pc,#48] ; [0x1a90c] = 0x100044cc
        0x0001a8dc:    f852c023    R.#.    LDR      r12,[r2,r3,LSL #2]
        0x0001a8e0:    f01c7f80    ....    TST      r12,#0x1000000
        0x0001a8e4:    bf1e        ..      ITTT     NE
        0x0001a8e6:    2007        .       MOVNE    r0,#7
        0x0001a8e8:    bc10        ..      POPNE    {r4}
        0x0001a8ea:    4770        pG      BXNE     lr
        0x0001a8ec:    f02c7c00    ,..|    BIC      r12,r12,#0x2000000
        0x0001a8f0:    f04c7c80    L..|    ORR      r12,r12,#0x1000000
        0x0001a8f4:    4c06        .L      LDR      r4,[pc,#24] ; [0x1a910] = 0x123456
        0x0001a8f6:    f3640c17    d...    BFI      r12,r4,#0,#24
        0x0001a8fa:    f842c023    B.#.    STR      r12,[r2,r3,LSL #2]
        0x0001a8fe:    eb020283    ....    ADD      r2,r2,r3,LSL #2
        0x0001a902:    6050        P`      STR      r0,[r2,#4]
        0x0001a904:    600a        .`      STR      r2,[r1,#0]
        0x0001a906:    bc10        ..      POP      {r4}
        0x0001a908:    2000        .       MOVS     r0,#0
        0x0001a90a:    4770        pG      BX       lr
    $d
        0x0001a90c:    100044cc    .D..    DCD    268453068
        0x0001a910:    00123456    V4..    DCD    1193046
    $t
    i.am_hal_iom_interrupt_clear
    am_hal_iom_interrupt_clear
        0x0001a914:    2800        .(      CMP      r0,#0
        0x0001a916:    bf1c        ..      ITT      NE
        0x0001a918:    6802        .h      LDRNE    r2,[r0,#0]
        0x0001a91a:    f0127f80    ....    TSTNE    r2,#0x1000000
        0x0001a91e:    d004        ..      BEQ      0x1a92a ; am_hal_iom_interrupt_clear + 22
        0x0001a920:    4b08        .K      LDR      r3,[pc,#32] ; [0x1a944] = 0x123456
        0x0001a922:    f022427f    "..B    BIC      r2,r2,#0xff000000
        0x0001a926:    429a        .B      CMP      r2,r3
        0x0001a928:    d001        ..      BEQ      0x1a92e ; am_hal_iom_interrupt_clear + 26
        0x0001a92a:    2002        .       MOVS     r0,#2
        0x0001a92c:    4770        pG      BX       lr
        0x0001a92e:    6840        @h      LDR      r0,[r0,#4]
        0x0001a930:    0300        ..      LSLS     r0,r0,#12
        0x0001a932:    f1004080    ...@    ADD      r0,r0,#0x40000000
        0x0001a936:    f50020a0    ...     ADD      r0,r0,#0x50000
        0x0001a93a:    f8c01208    ....    STR      r1,[r0,#0x208]
        0x0001a93e:    2000        .       MOVS     r0,#0
        0x0001a940:    4770        pG      BX       lr
    $d
        0x0001a942:    0000        ..      DCW    0
        0x0001a944:    00123456    V4..    DCD    1193046
    $t
    i.am_hal_iom_interrupt_service
    am_hal_iom_interrupt_service
        0x0001a948:    e92d4ff0    -..O    PUSH     {r4-r11,lr}
        0x0001a94c:    b085        ..      SUB      sp,sp,#0x14
        0x0001a94e:    0004        ..      MOVS     r4,r0
        0x0001a950:    f04f0000    O...    MOV      r0,#0
        0x0001a954:    4688        .F      MOV      r8,r1
        0x0001a956:    9004        ..      STR      r0,[sp,#0x10]
        0x0001a958:    bf1c        ..      ITT      NE
        0x0001a95a:    6820         h      LDRNE    r0,[r4,#0]
        0x0001a95c:    f0107f80    ....    TSTNE    r0,#0x1000000
        0x0001a960:    d004        ..      BEQ      0x1a96c ; am_hal_iom_interrupt_service + 36
        0x0001a962:    49b7        .I      LDR      r1,[pc,#732] ; [0x1ac40] = 0x123456
        0x0001a964:    f020407f     ..@    BIC      r0,r0,#0xff000000
        0x0001a968:    4288        .B      CMP      r0,r1
        0x0001a96a:    d003        ..      BEQ      0x1a974 ; am_hal_iom_interrupt_service + 44
        0x0001a96c:    b005        ..      ADD      sp,sp,#0x14
        0x0001a96e:    2002        .       MOVS     r0,#2
        0x0001a970:    e8bd8ff0    ....    POP      {r4-r11,pc}
        0x0001a974:    f894083c    ..<.    LDRB     r0,[r4,#0x83c]
        0x0001a978:    6867        gh      LDR      r7,[r4,#4]
        0x0001a97a:    4db2        .M      LDR      r5,[pc,#712] ; [0x1ac44] = 0x8000001
        0x0001a97c:    2600        .&      MOVS     r6,#0
        0x0001a97e:    f1050b01    ....    ADD      r11,r5,#1
        0x0001a982:    f644297c    D.|)    MOV      r9,#0x4a7c
        0x0001a986:    2800        .(      CMP      r0,#0
        0x0001a988:    d07e        ~.      BEQ      0x1aa88 ; am_hal_iom_interrupt_service + 320
        0x0001a98a:    69a0        .i      LDR      r0,[r4,#0x18]
        0x0001a98c:    f6400101    @...    MOV      r1,#0x801
        0x0001a990:    ea400008    @...    ORR      r0,r0,r8
        0x0001a994:    4208        .B      TST      r0,r1
        0x0001a996:    61a0        .a      STR      r0,[r4,#0x18]
        0x0001a998:    d077        w.      BEQ      0x1aa8a ; am_hal_iom_interrupt_service + 322
        0x0001a99a:    0339        9.      LSLS     r1,r7,#12
        0x0001a99c:    f1014780    ...G    ADD      r7,r1,#0x40000000
        0x0001a9a0:    f50727a0    ...'    ADD      r7,r7,#0x50000
        0x0001a9a4:    f8d71218    ....    LDR      r1,[r7,#0x218]
        0x0001a9a8:    f0110f01    ....    TST      r1,#1
        0x0001a9ac:    d003        ..      BEQ      0x1a9b6 ; am_hal_iom_interrupt_service + 110
        0x0001a9ae:    f644617c    D.|a    MOV      r1,#0x4e7c
        0x0001a9b2:    4208        .B      TST      r0,r1
        0x0001a9b4:    d069        i.      BEQ      0x1aa8a ; am_hal_iom_interrupt_service + 322
        0x0001a9b6:    f8d40850    ..P.    LDR      r0,[r4,#0x850]
        0x0001a9ba:    1c40        @.      ADDS     r0,r0,#1
        0x0001a9bc:    f8c40850    ..P.    STR      r0,[r4,#0x850]
        0x0001a9c0:    f8d40840    ..@.    LDR      r0,[r4,#0x840]
        0x0001a9c4:    1e40        @.      SUBS     r0,r0,#1
        0x0001a9c6:    f8c40840    ..@.    STR      r0,[r4,#0x840]
        0x0001a9ca:    f8d41848    ..H.    LDR      r1,[r4,#0x848]
        0x0001a9ce:    f8d40850    ..P.    LDR      r0,[r4,#0x850]
        0x0001a9d2:    fbb0f2f1    ....    UDIV     r2,r0,r1
        0x0001a9d6:    fb010012    ....    MLS      r0,r1,r2,r0
        0x0001a9da:    f8d41854    ..T.    LDR      r1,[r4,#0x854]
        0x0001a9de:    eb011840    ..@.    ADD      r8,r1,r0,LSL #5
        0x0001a9e2:    f8d82018    ...     LDR      r2,[r8,#0x18]
        0x0001a9e6:    b1ea        ..      CBZ      r2,0x1aa24 ; am_hal_iom_interrupt_service + 220
        0x0001a9e8:    69a0        .i      LDR      r0,[r4,#0x18]
        0x0001a9ea:    f8d73204    ...2    LDR      r3,[r7,#0x204]
        0x0001a9ee:    2100        .!      MOVS     r1,#0
        0x0001a9f0:    4318        .C      ORRS     r0,r0,r3
        0x0001a9f2:    f0100f6c    ..l.    TST      r0,#0x6c
        0x0001a9f6:    bf18        ..      IT       NE
        0x0001a9f8:    f04f6100    O..a    MOVNE    r1,#0x8000000
        0x0001a9fc:    d10d        ..      BNE      0x1aa1a ; am_hal_iom_interrupt_service + 210
        0x0001a9fe:    f4107f00    ....    TST      r0,#0x200
        0x0001aa02:    bf18        ..      IT       NE
        0x0001aa04:    4629        )F      MOVNE    r1,r5
        0x0001aa06:    d108        ..      BNE      0x1aa1a ; am_hal_iom_interrupt_service + 210
        0x0001aa08:    f0100f10    ....    TST      r0,#0x10
        0x0001aa0c:    bf18        ..      IT       NE
        0x0001aa0e:    4659        YF      MOVNE    r1,r11
        0x0001aa10:    d103        ..      BNE      0x1aa1a ; am_hal_iom_interrupt_service + 210
        0x0001aa12:    f4104f90    ...O    TST      r0,#0x4800
        0x0001aa16:    bf18        ..      IT       NE
        0x0001aa18:    2101        .!      MOVNE    r1,#1
        0x0001aa1a:    f8d8001c    ....    LDR      r0,[r8,#0x1c]
        0x0001aa1e:    4790        .G      BLX      r2
        0x0001aa20:    f8c86018    ...`    STR      r6,[r8,#0x18]
        0x0001aa24:    69a0        .i      LDR      r0,[r4,#0x18]
        0x0001aa26:    ea100f09    ....    TST      r0,r9
        0x0001aa2a:    d00d        ..      BEQ      0x1aa48 ; am_hal_iom_interrupt_service + 256
        0x0001aa2c:    f8d70218    ....    LDR      r0,[r7,#0x218]
        0x0001aa30:    f0200001     ...    BIC      r0,r0,#1
        0x0001aa34:    f8c70218    ....    STR      r0,[r7,#0x218]
        0x0001aa38:    f8c76224    ..$b    STR      r6,[r7,#0x224]
        0x0001aa3c:    69a0        .i      LDR      r0,[r4,#0x18]
        0x0001aa3e:    ea000109    ....    AND      r1,r0,r9
        0x0001aa42:    4620         F      MOV      r0,r4
        0x0001aa44:    f001fc5e    ..^.    BL       internal_iom_reset_on_error ; 0x1c304
        0x0001aa48:    f8d40840    ..@.    LDR      r0,[r4,#0x840]
        0x0001aa4c:    b368        h.      CBZ      r0,0x1aaaa ; am_hal_iom_interrupt_service + 354
        0x0001aa4e:    f8c76224    ..$b    STR      r6,[r7,#0x224]
        0x0001aa52:    61a6        .a      STR      r6,[r4,#0x18]
        0x0001aa54:    f8d40850    ..P.    LDR      r0,[r4,#0x850]
        0x0001aa58:    f8d42848    ..H(    LDR      r2,[r4,#0x848]
        0x0001aa5c:    1c40        @.      ADDS     r0,r0,#1
        0x0001aa5e:    fbb0f3f2    ....    UDIV     r3,r0,r2
        0x0001aa62:    fb020013    ....    MLS      r0,r2,r3,r0
        0x0001aa66:    6861        ah      LDR      r1,[r4,#4]
        0x0001aa68:    f8d42854    ..T(    LDR      r2,[r4,#0x854]
        0x0001aa6c:    0309        ..      LSLS     r1,r1,#12
        0x0001aa6e:    eb021040    ..@.    ADD      r0,r2,r0,LSL #5
        0x0001aa72:    f1014180    ...A    ADD      r1,r1,#0x40000000
        0x0001aa76:    f50121a0    ...!    ADD      r1,r1,#0x50000
        0x0001aa7a:    6802        .h      LDR      r2,[r0,#0]
        0x0001aa7c:    f8c12128    ..(!    STR      r2,[r1,#0x128]
        0x0001aa80:    6842        Bh      LDR      r2,[r0,#4]
        0x0001aa82:    f8c122c4    ..."    STR      r2,[r1,#0x2c4]
        0x0001aa86:    e001        ..      B        0x1aa8c ; am_hal_iom_interrupt_service + 324
        0x0001aa88:    e021        !.      B        0x1aace ; am_hal_iom_interrupt_service + 390
        0x0001aa8a:    e01c        ..      B        0x1aac6 ; am_hal_iom_interrupt_service + 382
        0x0001aa8c:    f8c16218    ...b    STR      r6,[r1,#0x218]
        0x0001aa90:    6882        .h      LDR      r2,[r0,#8]
        0x0001aa92:    f8c1221c    ..."    STR      r2,[r1,#0x21c]
        0x0001aa96:    68c2        .h      LDR      r2,[r0,#0xc]
        0x0001aa98:    f8c12220    .. "    STR      r2,[r1,#0x220]
        0x0001aa9c:    6902        .i      LDR      r2,[r0,#0x10]
        0x0001aa9e:    f8c12218    ..."    STR      r2,[r1,#0x218]
        0x0001aaa2:    6940        @i      LDR      r0,[r0,#0x14]
        0x0001aaa4:    f8c10120    .. .    STR      r0,[r1,#0x120]
        0x0001aaa8:    e00d        ..      B        0x1aac6 ; am_hal_iom_interrupt_service + 382
        0x0001aaaa:    f884683c    ..<h    STRB     r6,[r4,#0x83c]
        0x0001aaae:    f8d70200    ....    LDR      r0,[r7,#0x200]
        0x0001aab2:    f0200001     ...    BIC      r0,r0,#1
        0x0001aab6:    f4206080     ..`    BIC      r0,r0,#0x400
        0x0001aaba:    f8c70200    ....    STR      r0,[r7,#0x200]
        0x0001aabe:    f44f0000    O...    MOV      r0,#0x800000
        0x0001aac2:    f8c70238    ..8.    STR      r0,[r7,#0x238]
        0x0001aac6:    b005        ..      ADD      sp,sp,#0x14
        0x0001aac8:    2000        .       MOVS     r0,#0
        0x0001aaca:    e8bd8ff0    ....    POP      {r4-r11,pc}
        0x0001aace:    6a60        `j      LDR      r0,[r4,#0x24]
        0x0001aad0:    2800        .(      CMP      r0,#0
        0x0001aad2:    d07d        }.      BEQ      0x1abd0 ; am_hal_iom_interrupt_service + 648
        0x0001aad4:    f8d40828    ..(.    LDR      r0,[r4,#0x828]
        0x0001aad8:    2800        .(      CMP      r0,#0
        0x0001aada:    d07a        z.      BEQ      0x1abd2 ; am_hal_iom_interrupt_service + 650
        0x0001aadc:    4669        iF      MOV      r1,sp
        0x0001aade:    f7fefb7f    ....    BL       am_hal_cmdq_get_status ; 0x191e0
        0x0001aae2:    9004        ..      STR      r0,[sp,#0x10]
        0x0001aae4:    2800        .(      CMP      r0,#0
        0x0001aae6:    bf04        ..      ITT      EQ
        0x0001aae8:    4620         F      MOVEQ    r0,r4
        0x0001aaea:    f8846834    ..4h    STRBEQ   r6,[r4,#0x834]
        0x0001aaee:    d015        ..      BEQ      0x1ab1c ; am_hal_iom_interrupt_service + 468
        0x0001aaf0:    e091        ..      B        0x1ac16 ; am_hal_iom_interrupt_service + 718
        0x0001aaf2:    1c40        @.      ADDS     r0,r0,#1
        0x0001aaf4:    61e0        .a      STR      r0,[r4,#0x1c]
        0x0001aaf6:    6a61        aj      LDR      r1,[r4,#0x24]
        0x0001aaf8:    1e4a        J.      SUBS     r2,r1,#1
        0x0001aafa:    6262        bb      STR      r2,[r4,#0x24]
        0x0001aafc:    b2c0        ..      UXTB     r0,r0
        0x0001aafe:    eb040a80    ....    ADD      r10,r4,r0,LSL #2
        0x0001ab02:    f8da2028    ..(     LDR      r2,[r10,#0x28]
        0x0001ab06:    b14a        J.      CBZ      r2,0x1ab1c ; am_hal_iom_interrupt_service + 468
        0x0001ab08:    2100        .!      MOVS     r1,#0
        0x0001ab0a:    f8da0428    ..(.    LDR      r0,[r10,#0x428]
        0x0001ab0e:    4790        .G      BLX      r2
        0x0001ab10:    f894082c    ..,.    LDRB     r0,[r4,#0x82c]
        0x0001ab14:    2802        .(      CMP      r0,#2
        0x0001ab16:    bf18        ..      IT       NE
        0x0001ab18:    f8ca6028    ..(`    STRNE    r6,[r10,#0x28]
        0x0001ab1c:    69e0        .i      LDR      r0,[r4,#0x1c]
        0x0001ab1e:    9900        ..      LDR      r1,[sp,#0]
        0x0001ab20:    4288        .B      CMP      r0,r1
        0x0001ab22:    d003        ..      BEQ      0x1ab2c ; am_hal_iom_interrupt_service + 484
        0x0001ab24:    f8941834    ..4.    LDRB     r1,[r4,#0x834]
        0x0001ab28:    2900        .)      CMP      r1,#0
        0x0001ab2a:    d0e2        ..      BEQ      0x1aaf2 ; am_hal_iom_interrupt_service + 426
        0x0001ab2c:    f8940834    ..4.    LDRB     r0,[r4,#0x834]
        0x0001ab30:    2800        .(      CMP      r0,#0
        0x0001ab32:    d169        i.      BNE      0x1ac08 ; am_hal_iom_interrupt_service + 704
        0x0001ab34:    ea180a09    ....    ANDS     r10,r8,r9
        0x0001ab38:    d066        f.      BEQ      0x1ac08 ; am_hal_iom_interrupt_service + 704
        0x0001ab3a:    69e0        .i      LDR      r0,[r4,#0x1c]
        0x0001ab3c:    1c40        @.      ADDS     r0,r0,#1
        0x0001ab3e:    61e0        .a      STR      r0,[r4,#0x1c]
        0x0001ab40:    6a61        aj      LDR      r1,[r4,#0x24]
        0x0001ab42:    1e4a        J.      SUBS     r2,r1,#1
        0x0001ab44:    6262        bb      STR      r2,[r4,#0x24]
        0x0001ab46:    b2c0        ..      UXTB     r0,r0
        0x0001ab48:    eb040980    ....    ADD      r9,r4,r0,LSL #2
        0x0001ab4c:    f8d92028    ..(     LDR      r2,[r9,#0x28]
        0x0001ab50:    b332        2.      CBZ      r2,0x1aba0 ; am_hal_iom_interrupt_service + 600
        0x0001ab52:    2100        .!      MOVS     r1,#0
        0x0001ab54:    0338        8.      LSLS     r0,r7,#12
        0x0001ab56:    f1004080    ...@    ADD      r0,r0,#0x40000000
        0x0001ab5a:    f50020a0    ...     ADD      r0,r0,#0x50000
        0x0001ab5e:    f8d00204    ....    LDR      r0,[r0,#0x204]
        0x0001ab62:    ea400008    @...    ORR      r0,r0,r8
        0x0001ab66:    f0100f6c    ..l.    TST      r0,#0x6c
        0x0001ab6a:    bf18        ..      IT       NE
        0x0001ab6c:    f04f6100    O..a    MOVNE    r1,#0x8000000
        0x0001ab70:    d10d        ..      BNE      0x1ab8e ; am_hal_iom_interrupt_service + 582
        0x0001ab72:    f4107f00    ....    TST      r0,#0x200
        0x0001ab76:    bf18        ..      IT       NE
        0x0001ab78:    4629        )F      MOVNE    r1,r5
        0x0001ab7a:    d108        ..      BNE      0x1ab8e ; am_hal_iom_interrupt_service + 582
        0x0001ab7c:    f0100f10    ....    TST      r0,#0x10
        0x0001ab80:    bf18        ..      IT       NE
        0x0001ab82:    4659        YF      MOVNE    r1,r11
        0x0001ab84:    d103        ..      BNE      0x1ab8e ; am_hal_iom_interrupt_service + 582
        0x0001ab86:    f4104f90    ...O    TST      r0,#0x4800
        0x0001ab8a:    bf18        ..      IT       NE
        0x0001ab8c:    2101        .!      MOVNE    r1,#1
        0x0001ab8e:    f8d90428    ..(.    LDR      r0,[r9,#0x428]
        0x0001ab92:    4790        .G      BLX      r2
        0x0001ab94:    f894082c    ..,.    LDRB     r0,[r4,#0x82c]
        0x0001ab98:    2802        .(      CMP      r0,#2
        0x0001ab9a:    bf18        ..      IT       NE
        0x0001ab9c:    f8c96028    ..(`    STRNE    r6,[r9,#0x28]
        0x0001aba0:    0338        8.      LSLS     r0,r7,#12
        0x0001aba2:    f1004080    ...@    ADD      r0,r0,#0x40000000
        0x0001aba6:    f50020a0    ...     ADD      r0,r0,#0x50000
        0x0001abaa:    f8d01228    ..(.    LDR      r1,[r0,#0x228]
        0x0001abae:    f0210101    !...    BIC      r1,r1,#1
        0x0001abb2:    f8c01228    ..(.    STR      r1,[r0,#0x228]
        0x0001abb6:    f8d01218    ....    LDR      r1,[r0,#0x218]
        0x0001abba:    f0210101    !...    BIC      r1,r1,#1
        0x0001abbe:    f8c01218    ....    STR      r1,[r0,#0x218]
        0x0001abc2:    f8c06224    ..$b    STR      r6,[r0,#0x224]
        0x0001abc6:    4651        QF      MOV      r1,r10
        0x0001abc8:    4620         F      MOV      r0,r4
        0x0001abca:    f001fb9b    ....    BL       internal_iom_reset_on_error ; 0x1c304
        0x0001abce:    e001        ..      B        0x1abd4 ; am_hal_iom_interrupt_service + 652
        0x0001abd0:    e031        1.      B        0x1ac36 ; am_hal_iom_interrupt_service + 750
        0x0001abd2:    e020         .      B        0x1ac16 ; am_hal_iom_interrupt_service + 718
        0x0001abd4:    f8d40828    ..(.    LDR      r0,[r4,#0x828]
        0x0001abd8:    f7fefac8    ....    BL       am_hal_cmdq_error_resume ; 0x1916c
        0x0001abdc:    6a60        `j      LDR      r0,[r4,#0x24]
        0x0001abde:    b198        ..      CBZ      r0,0x1ac08 ; am_hal_iom_interrupt_service + 704
        0x0001abe0:    6a61        aj      LDR      r1,[r4,#0x24]
        0x0001abe2:    4620         F      MOV      r0,r4
        0x0001abe4:    b961        a.      CBNZ     r1,0x1ac00 ; am_hal_iom_interrupt_service + 696
        0x0001abe6:    6842        Bh      LDR      r2,[r0,#4]
        0x0001abe8:    0311        ..      LSLS     r1,r2,#12
        0x0001abea:    f1014180    ...A    ADD      r1,r1,#0x40000000
        0x0001abee:    f50121a0    ...!    ADD      r1,r1,#0x50000
        0x0001abf2:    f8d1122c    ..,.    LDR      r1,[r1,#0x22c]
        0x0001abf6:    4b14        .K      LDR      r3,[pc,#80] ; [0x1ac48] = 0x4005022c
        0x0001abf8:    eb033202    ...2    ADD      r2,r3,r2,LSL #12
        0x0001abfc:    e9c12100    ...!    STRD     r2,r1,[r1,#0]
        0x0001ac00:    f8d40828    ..(.    LDR      r0,[r4,#0x828]
        0x0001ac04:    f7fefa92    ....    BL       am_hal_cmdq_enable ; 0x1912c
        0x0001ac08:    6a60        `j      LDR      r0,[r4,#0x24]
        0x0001ac0a:    2800        .(      CMP      r0,#0
        0x0001ac0c:    bf04        ..      ITT      EQ
        0x0001ac0e:    f8d40828    ..(.    LDREQ    r0,[r4,#0x828]
        0x0001ac12:    f7fefa6b    ..k.    BLEQ     am_hal_cmdq_disable ; 0x190ec
        0x0001ac16:    6a60        `j      LDR      r0,[r4,#0x24]
        0x0001ac18:    b968        h.      CBNZ     r0,0x1ac36 ; am_hal_iom_interrupt_service + 750
        0x0001ac1a:    0338        8.      LSLS     r0,r7,#12
        0x0001ac1c:    f1004080    ...@    ADD      r0,r0,#0x40000000
        0x0001ac20:    f50020a0    ...     ADD      r0,r0,#0x50000
        0x0001ac24:    f8c06200    ...b    STR      r6,[r0,#0x200]
        0x0001ac28:    f04f31ff    O..1    MOV      r1,#0xffffffff
        0x0001ac2c:    f8c01208    ....    STR      r1,[r0,#0x208]
        0x0001ac30:    6961        ai      LDR      r1,[r4,#0x14]
        0x0001ac32:    f8c01200    ....    STR      r1,[r0,#0x200]
        0x0001ac36:    9804        ..      LDR      r0,[sp,#0x10]
        0x0001ac38:    b005        ..      ADD      sp,sp,#0x14
        0x0001ac3a:    e8bd8ff0    ....    POP      {r4-r11,pc}
    $d
        0x0001ac3e:    0000        ..      DCW    0
        0x0001ac40:    00123456    V4..    DCD    1193046
        0x0001ac44:    08000001    ....    DCD    134217729
        0x0001ac48:    4005022c    ,..@    DCD    1074070060
    $t
    i.am_hal_iom_interrupt_status_get
    am_hal_iom_interrupt_status_get
        0x0001ac4c:    2800        .(      CMP      r0,#0
        0x0001ac4e:    bf1c        ..      ITT      NE
        0x0001ac50:    6803        .h      LDRNE    r3,[r0,#0]
        0x0001ac52:    f0137f80    ....    TSTNE    r3,#0x1000000
        0x0001ac56:    d005        ..      BEQ      0x1ac64 ; am_hal_iom_interrupt_status_get + 24
        0x0001ac58:    f8dfc034    ..4.    LDR      r12,[pc,#52] ; [0x1ac90] = 0x123456
        0x0001ac5c:    f023437f    #..C    BIC      r3,r3,#0xff000000
        0x0001ac60:    4563        cE      CMP      r3,r12
        0x0001ac62:    d001        ..      BEQ      0x1ac68 ; am_hal_iom_interrupt_status_get + 28
        0x0001ac64:    2002        .       MOVS     r0,#2
        0x0001ac66:    4770        pG      BX       lr
        0x0001ac68:    2a00        .*      CMP      r2,#0
        0x0001ac6a:    bf04        ..      ITT      EQ
        0x0001ac6c:    2006        .       MOVEQ    r0,#6
        0x0001ac6e:    4770        pG      BXEQ     lr
        0x0001ac70:    6840        @h      LDR      r0,[r0,#4]
        0x0001ac72:    0300        ..      LSLS     r0,r0,#12
        0x0001ac74:    f1004380    ...C    ADD      r3,r0,#0x40000000
        0x0001ac78:    f50323a0    ...#    ADD      r3,r3,#0x50000
        0x0001ac7c:    f8d30204    ....    LDR      r0,[r3,#0x204]
        0x0001ac80:    2900        .)      CMP      r1,#0
        0x0001ac82:    bf1c        ..      ITT      NE
        0x0001ac84:    f8d31200    ....    LDRNE    r1,[r3,#0x200]
        0x0001ac88:    4008        .@      ANDNE    r0,r0,r1
        0x0001ac8a:    6010        .`      STR      r0,[r2,#0]
        0x0001ac8c:    2000        .       MOVS     r0,#0
        0x0001ac8e:    4770        pG      BX       lr
    $d
        0x0001ac90:    00123456    V4..    DCD    1193046
    $t
    i.am_hal_iom_power_ctrl
    am_hal_iom_power_ctrl
        0x0001ac94:    b570        p.      PUSH     {r4-r6,lr}
        0x0001ac96:    4615        .F      MOV      r5,r2
        0x0001ac98:    1e04        ..      SUBS     r4,r0,#0
        0x0001ac9a:    bf1c        ..      ITT      NE
        0x0001ac9c:    6820         h      LDRNE    r0,[r4,#0]
        0x0001ac9e:    f0107f80    ....    TSTNE    r0,#0x1000000
        0x0001aca2:    d004        ..      BEQ      0x1acae ; am_hal_iom_power_ctrl + 26
        0x0001aca4:    4bbc        .K      LDR      r3,[pc,#752] ; [0x1af98] = 0x123456
        0x0001aca6:    f020427f     ..B    BIC      r2,r0,#0xff000000
        0x0001acaa:    429a        .B      CMP      r2,r3
        0x0001acac:    d001        ..      BEQ      0x1acb2 ; am_hal_iom_power_ctrl + 30
        0x0001acae:    2002        .       MOVS     r0,#2
        0x0001acb0:    bd70        p.      POP      {r4-r6,pc}
        0x0001acb2:    2900        .)      CMP      r1,#0
        0x0001acb4:    d07d        }.      BEQ      0x1adb2 ; am_hal_iom_power_ctrl + 286
        0x0001acb6:    2901        .)      CMP      r1,#1
        0x0001acb8:    bf1e        ..      ITTT     NE
        0x0001acba:    2902        .)      CMPNE    r1,#2
        0x0001acbc:    2006        .       MOVNE    r0,#6
        0x0001acbe:    bd70        p.      POPNE    {r4-r6,pc}
        0x0001acc0:    f0107f00    ....    TST      r0,#0x2000000
        0x0001acc4:    d010        ..      BEQ      0x1ace8 ; am_hal_iom_power_ctrl + 84
        0x0001acc6:    6860        `h      LDR      r0,[r4,#4]
        0x0001acc8:    ea4f3000    O..0    LSL      r0,r0,#12
        0x0001accc:    f1004080    ...@    ADD      r0,r0,#0x40000000
        0x0001acd0:    f50020a0    ...     ADD      r0,r0,#0x50000
        0x0001acd4:    f8d00248    ..H.    LDR      r0,[r0,#0x248]
        0x0001acd8:    f0000006    ....    AND      r0,r0,#6
        0x0001acdc:    2804        .(      CMP      r0,#4
        0x0001acde:    bf07        ..      ITTEE    EQ
        0x0001ace0:    6a60        `j      LDREQ    r0,[r4,#0x24]
        0x0001ace2:    2800        .(      CMPEQ    r0,#0
        0x0001ace4:    2003        .       MOVNE    r0,#3
        0x0001ace6:    bd70        p.      POPNE    {r4-r6,pc}
        0x0001ace8:    2d00        .-      CMP      r5,#0
        0x0001acea:    d07c        |.      BEQ      0x1ade6 ; am_hal_iom_power_ctrl + 338
        0x0001acec:    6860        `h      LDR      r0,[r4,#4]
        0x0001acee:    0300        ..      LSLS     r0,r0,#12
        0x0001acf0:    f1004080    ...@    ADD      r0,r0,#0x40000000
        0x0001acf4:    f50020a0    ...     ADD      r0,r0,#0x50000
        0x0001acf8:    f8d00104    ....    LDR      r0,[r0,#0x104]
        0x0001acfc:    f8c4086c    ..l.    STR      r0,[r4,#0x86c]
        0x0001ad00:    6860        `h      LDR      r0,[r4,#4]
        0x0001ad02:    0300        ..      LSLS     r0,r0,#12
        0x0001ad04:    f1004080    ...@    ADD      r0,r0,#0x40000000
        0x0001ad08:    f50020a0    ...     ADD      r0,r0,#0x50000
        0x0001ad0c:    f8d00118    ....    LDR      r0,[r0,#0x118]
        0x0001ad10:    f8c40874    ..t.    STR      r0,[r4,#0x874]
        0x0001ad14:    6860        `h      LDR      r0,[r4,#4]
        0x0001ad16:    0300        ..      LSLS     r0,r0,#12
        0x0001ad18:    f1004080    ...@    ADD      r0,r0,#0x40000000
        0x0001ad1c:    f50020a0    ...     ADD      r0,r0,#0x50000
        0x0001ad20:    f8d0011c    ....    LDR      r0,[r0,#0x11c]
        0x0001ad24:    f8c40878    ..x.    STR      r0,[r4,#0x878]
        0x0001ad28:    6860        `h      LDR      r0,[r4,#4]
        0x0001ad2a:    0300        ..      LSLS     r0,r0,#12
        0x0001ad2c:    f1004080    ...@    ADD      r0,r0,#0x40000000
        0x0001ad30:    f50020a0    ...     ADD      r0,r0,#0x50000
        0x0001ad34:    f8d00228    ..(.    LDR      r0,[r0,#0x228]
        0x0001ad38:    f8c4087c    ..|.    STR      r0,[r4,#0x87c]
        0x0001ad3c:    6860        `h      LDR      r0,[r4,#4]
        0x0001ad3e:    0300        ..      LSLS     r0,r0,#12
        0x0001ad40:    f1004080    ...@    ADD      r0,r0,#0x40000000
        0x0001ad44:    f50020a0    ...     ADD      r0,r0,#0x50000
        0x0001ad48:    f8d0022c    ..,.    LDR      r0,[r0,#0x22c]
        0x0001ad4c:    f8c40880    ....    STR      r0,[r4,#0x880]
        0x0001ad50:    6860        `h      LDR      r0,[r4,#4]
        0x0001ad52:    0300        ..      LSLS     r0,r0,#12
        0x0001ad54:    f1004080    ...@    ADD      r0,r0,#0x40000000
        0x0001ad58:    f50020a0    ...     ADD      r0,r0,#0x50000
        0x0001ad5c:    f8d00234    ..4.    LDR      r0,[r0,#0x234]
        0x0001ad60:    f8c40884    ....    STR      r0,[r4,#0x884]
        0x0001ad64:    6860        `h      LDR      r0,[r4,#4]
        0x0001ad66:    0300        ..      LSLS     r0,r0,#12
        0x0001ad68:    f1004080    ...@    ADD      r0,r0,#0x40000000
        0x0001ad6c:    f50020a0    ...     ADD      r0,r0,#0x50000
        0x0001ad70:    f8d0023c    ..<.    LDR      r0,[r0,#0x23c]
        0x0001ad74:    f8c40888    ....    STR      r0,[r4,#0x888]
        0x0001ad78:    6860        `h      LDR      r0,[r4,#4]
        0x0001ad7a:    0300        ..      LSLS     r0,r0,#12
        0x0001ad7c:    f1004080    ...@    ADD      r0,r0,#0x40000000
        0x0001ad80:    f50020a0    ...     ADD      r0,r0,#0x50000
        0x0001ad84:    f8d00240    ..@.    LDR      r0,[r0,#0x240]
        0x0001ad88:    f8c4088c    ....    STR      r0,[r4,#0x88c]
        0x0001ad8c:    6860        `h      LDR      r0,[r4,#4]
        0x0001ad8e:    0300        ..      LSLS     r0,r0,#12
        0x0001ad90:    f1004080    ...@    ADD      r0,r0,#0x40000000
        0x0001ad94:    f50020a0    ...     ADD      r0,r0,#0x50000
        0x0001ad98:    f8d00244    ..D.    LDR      r0,[r0,#0x244]
        0x0001ad9c:    f8c40890    ....    STR      r0,[r4,#0x890]
        0x0001ada0:    6860        `h      LDR      r0,[r4,#4]
        0x0001ada2:    0300        ..      LSLS     r0,r0,#12
        0x0001ada4:    f1004080    ...@    ADD      r0,r0,#0x40000000
        0x0001ada8:    f50020a0    ...     ADD      r0,r0,#0x50000
        0x0001adac:    f8d00280    ....    LDR      r0,[r0,#0x280]
        0x0001adb0:    e000        ..      B        0x1adb4 ; am_hal_iom_power_ctrl + 288
        0x0001adb2:    e043        C.      B        0x1ae3c ; am_hal_iom_power_ctrl + 424
        0x0001adb4:    f8c40894    ....    STR      r0,[r4,#0x894]
        0x0001adb8:    6860        `h      LDR      r0,[r4,#4]
        0x0001adba:    0300        ..      LSLS     r0,r0,#12
        0x0001adbc:    f1004080    ...@    ADD      r0,r0,#0x40000000
        0x0001adc0:    f50020a0    ...     ADD      r0,r0,#0x50000
        0x0001adc4:    f8d002c0    ....    LDR      r0,[r0,#0x2c0]
        0x0001adc8:    f8c40898    ....    STR      r0,[r4,#0x898]
        0x0001adcc:    6860        `h      LDR      r0,[r4,#4]
        0x0001adce:    0300        ..      LSLS     r0,r0,#12
        0x0001add0:    f1004080    ...@    ADD      r0,r0,#0x40000000
        0x0001add4:    f50020a0    ...     ADD      r0,r0,#0x50000
        0x0001add8:    f8d00200    ....    LDR      r0,[r0,#0x200]
        0x0001addc:    f8c4089c    ....    STR      r0,[r4,#0x89c]
        0x0001ade0:    6860        `h      LDR      r0,[r4,#4]
        0x0001ade2:    0300        ..      LSLS     r0,r0,#12
        0x0001ade4:    e000        ..      B        0x1ade8 ; am_hal_iom_power_ctrl + 340
        0x0001ade6:    e00a        ..      B        0x1adfe ; am_hal_iom_power_ctrl + 362
        0x0001ade8:    f1004080    ...@    ADD      r0,r0,#0x40000000
        0x0001adec:    f50020a0    ...     ADD      r0,r0,#0x50000
        0x0001adf0:    f8d00210    ....    LDR      r0,[r0,#0x210]
        0x0001adf4:    f8c40870    ..p.    STR      r0,[r4,#0x870]
        0x0001adf8:    2001        .       MOVS     r0,#1
        0x0001adfa:    f8840868    ..h.    STRB     r0,[r4,#0x868]
        0x0001adfe:    6860        `h      LDR      r0,[r4,#4]
        0x0001ae00:    0300        ..      LSLS     r0,r0,#12
        0x0001ae02:    f1004080    ...@    ADD      r0,r0,#0x40000000
        0x0001ae06:    f50020a0    ...     ADD      r0,r0,#0x50000
        0x0001ae0a:    f8d0111c    ....    LDR      r1,[r0,#0x11c]
        0x0001ae0e:    f0210101    !...    BIC      r1,r1,#1
        0x0001ae12:    f8c0111c    ....    STR      r1,[r0,#0x11c]
        0x0001ae16:    6860        `h      LDR      r0,[r4,#4]
        0x0001ae18:    0300        ..      LSLS     r0,r0,#12
        0x0001ae1a:    f1004080    ...@    ADD      r0,r0,#0x40000000
        0x0001ae1e:    f50020a0    ...     ADD      r0,r0,#0x50000
        0x0001ae22:    f8d0111c    ....    LDR      r1,[r0,#0x11c]
        0x0001ae26:    f0210110    !...    BIC      r1,r1,#0x10
        0x0001ae2a:    f8c0111c    ....    STR      r1,[r0,#0x11c]
        0x0001ae2e:    7920         y      LDRB     r0,[r4,#4]
        0x0001ae30:    1c40        @.      ADDS     r0,r0,#1
        0x0001ae32:    b2c0        ..      UXTB     r0,r0
        0x0001ae34:    f000fba6    ....    BL       am_hal_pwrctrl_periph_disable ; 0x1b584
        0x0001ae38:    2000        .       MOVS     r0,#0
        0x0001ae3a:    bd70        p.      POP      {r4-r6,pc}
        0x0001ae3c:    b12d        -.      CBZ      r5,0x1ae4a ; am_hal_iom_power_ctrl + 438
        0x0001ae3e:    f8940868    ..h.    LDRB     r0,[r4,#0x868]
        0x0001ae42:    2800        .(      CMP      r0,#0
        0x0001ae44:    bf04        ..      ITT      EQ
        0x0001ae46:    2007        .       MOVEQ    r0,#7
        0x0001ae48:    bd70        p.      POPEQ    {r4-r6,pc}
        0x0001ae4a:    7920         y      LDRB     r0,[r4,#4]
        0x0001ae4c:    1c40        @.      ADDS     r0,r0,#1
        0x0001ae4e:    b2c0        ..      UXTB     r0,r0
        0x0001ae50:    f000fbc6    ....    BL       am_hal_pwrctrl_periph_enable ; 0x1b5e0
        0x0001ae54:    2d00        .-      CMP      r5,#0
        0x0001ae56:    d0ef        ..      BEQ      0x1ae38 ; am_hal_iom_power_ctrl + 420
        0x0001ae58:    6861        ah      LDR      r1,[r4,#4]
        0x0001ae5a:    f8d4086c    ..l.    LDR      r0,[r4,#0x86c]
        0x0001ae5e:    0309        ..      LSLS     r1,r1,#12
        0x0001ae60:    f1014180    ...A    ADD      r1,r1,#0x40000000
        0x0001ae64:    f50121a0    ...!    ADD      r1,r1,#0x50000
        0x0001ae68:    f8c10104    ....    STR      r0,[r1,#0x104]
        0x0001ae6c:    6861        ah      LDR      r1,[r4,#4]
        0x0001ae6e:    f8d40874    ..t.    LDR      r0,[r4,#0x874]
        0x0001ae72:    0309        ..      LSLS     r1,r1,#12
        0x0001ae74:    f1014180    ...A    ADD      r1,r1,#0x40000000
        0x0001ae78:    f50121a0    ...!    ADD      r1,r1,#0x50000
        0x0001ae7c:    f8c10118    ....    STR      r0,[r1,#0x118]
        0x0001ae80:    6861        ah      LDR      r1,[r4,#4]
        0x0001ae82:    f8d40880    ....    LDR      r0,[r4,#0x880]
        0x0001ae86:    0309        ..      LSLS     r1,r1,#12
        0x0001ae88:    f1014180    ...A    ADD      r1,r1,#0x40000000
        0x0001ae8c:    f50121a0    ...!    ADD      r1,r1,#0x50000
        0x0001ae90:    f8c1022c    ..,.    STR      r0,[r1,#0x22c]
        0x0001ae94:    6861        ah      LDR      r1,[r4,#4]
        0x0001ae96:    f8d40884    ....    LDR      r0,[r4,#0x884]
        0x0001ae9a:    0309        ..      LSLS     r1,r1,#12
        0x0001ae9c:    f1014180    ...A    ADD      r1,r1,#0x40000000
        0x0001aea0:    f50121a0    ...!    ADD      r1,r1,#0x50000
        0x0001aea4:    f8c10234    ..4.    STR      r0,[r1,#0x234]
        0x0001aea8:    6861        ah      LDR      r1,[r4,#4]
        0x0001aeaa:    f8d40888    ....    LDR      r0,[r4,#0x888]
        0x0001aeae:    0309        ..      LSLS     r1,r1,#12
        0x0001aeb0:    f1014180    ...A    ADD      r1,r1,#0x40000000
        0x0001aeb4:    f50121a0    ...!    ADD      r1,r1,#0x50000
        0x0001aeb8:    f8c1023c    ..<.    STR      r0,[r1,#0x23c]
        0x0001aebc:    6861        ah      LDR      r1,[r4,#4]
        0x0001aebe:    f8d4088c    ....    LDR      r0,[r4,#0x88c]
        0x0001aec2:    0309        ..      LSLS     r1,r1,#12
        0x0001aec4:    f1014180    ...A    ADD      r1,r1,#0x40000000
        0x0001aec8:    f50121a0    ...!    ADD      r1,r1,#0x50000
        0x0001aecc:    f8c10240    ..@.    STR      r0,[r1,#0x240]
        0x0001aed0:    6861        ah      LDR      r1,[r4,#4]
        0x0001aed2:    f8d40890    ....    LDR      r0,[r4,#0x890]
        0x0001aed6:    0309        ..      LSLS     r1,r1,#12
        0x0001aed8:    f1014180    ...A    ADD      r1,r1,#0x40000000
        0x0001aedc:    f50121a0    ...!    ADD      r1,r1,#0x50000
        0x0001aee0:    f8c10244    ..D.    STR      r0,[r1,#0x244]
        0x0001aee4:    6861        ah      LDR      r1,[r4,#4]
        0x0001aee6:    f8d40894    ....    LDR      r0,[r4,#0x894]
        0x0001aeea:    0309        ..      LSLS     r1,r1,#12
        0x0001aeec:    f1014180    ...A    ADD      r1,r1,#0x40000000
        0x0001aef0:    f50121a0    ...!    ADD      r1,r1,#0x50000
        0x0001aef4:    f8c10280    ....    STR      r0,[r1,#0x280]
        0x0001aef8:    6861        ah      LDR      r1,[r4,#4]
        0x0001aefa:    f8d40898    ....    LDR      r0,[r4,#0x898]
        0x0001aefe:    0309        ..      LSLS     r1,r1,#12
        0x0001af00:    f1014180    ...A    ADD      r1,r1,#0x40000000
        0x0001af04:    f50121a0    ...!    ADD      r1,r1,#0x50000
        0x0001af08:    f8c102c0    ....    STR      r0,[r1,#0x2c0]
        0x0001af0c:    6861        ah      LDR      r1,[r4,#4]
        0x0001af0e:    f8d4089c    ....    LDR      r0,[r4,#0x89c]
        0x0001af12:    0309        ..      LSLS     r1,r1,#12
        0x0001af14:    f1014180    ...A    ADD      r1,r1,#0x40000000
        0x0001af18:    f50121a0    ...!    ADD      r1,r1,#0x50000
        0x0001af1c:    f8c10200    ....    STR      r0,[r1,#0x200]
        0x0001af20:    6861        ah      LDR      r1,[r4,#4]
        0x0001af22:    f8d40870    ..p.    LDR      r0,[r4,#0x870]
        0x0001af26:    0309        ..      LSLS     r1,r1,#12
        0x0001af28:    f1014180    ...A    ADD      r1,r1,#0x40000000
        0x0001af2c:    f50121a0    ...!    ADD      r1,r1,#0x50000
        0x0001af30:    f8c10210    ....    STR      r0,[r1,#0x210]
        0x0001af34:    6861        ah      LDR      r1,[r4,#4]
        0x0001af36:    f8d4087c    ..|.    LDR      r0,[r4,#0x87c]
        0x0001af3a:    0309        ..      LSLS     r1,r1,#12
        0x0001af3c:    f1014180    ...A    ADD      r1,r1,#0x40000000
        0x0001af40:    f50121a0    ...!    ADD      r1,r1,#0x50000
        0x0001af44:    f0200001     ...    BIC      r0,r0,#1
        0x0001af48:    f8c10228    ..(.    STR      r0,[r1,#0x228]
        0x0001af4c:    6861        ah      LDR      r1,[r4,#4]
        0x0001af4e:    f8d40878    ..x.    LDR      r0,[r4,#0x878]
        0x0001af52:    0309        ..      LSLS     r1,r1,#12
        0x0001af54:    f1014180    ...A    ADD      r1,r1,#0x40000000
        0x0001af58:    f50121a0    ...!    ADD      r1,r1,#0x50000
        0x0001af5c:    f8c1011c    ....    STR      r0,[r1,#0x11c]
        0x0001af60:    f894087c    ..|.    LDRB     r0,[r4,#0x87c]
        0x0001af64:    f0100f01    ....    TST      r0,#1
        0x0001af68:    d012        ..      BEQ      0x1af90 ; am_hal_iom_power_ctrl + 764
        0x0001af6a:    6a60        `j      LDR      r0,[r4,#0x24]
        0x0001af6c:    b960        `.      CBNZ     r0,0x1af88 ; am_hal_iom_power_ctrl + 756
        0x0001af6e:    6861        ah      LDR      r1,[r4,#4]
        0x0001af70:    0308        ..      LSLS     r0,r1,#12
        0x0001af72:    f1004080    ...@    ADD      r0,r0,#0x40000000
        0x0001af76:    f50020a0    ...     ADD      r0,r0,#0x50000
        0x0001af7a:    f8d0022c    ..,.    LDR      r0,[r0,#0x22c]
        0x0001af7e:    4a07        .J      LDR      r2,[pc,#28] ; [0x1af9c] = 0x4005022c
        0x0001af80:    eb023101    ...1    ADD      r1,r2,r1,LSL #12
        0x0001af84:    e9c01000    ....    STRD     r1,r0,[r0,#0]
        0x0001af88:    f8d40828    ..(.    LDR      r0,[r4,#0x828]
        0x0001af8c:    f7fef8ce    ....    BL       am_hal_cmdq_enable ; 0x1912c
        0x0001af90:    2000        .       MOVS     r0,#0
        0x0001af92:    f8840868    ..h.    STRB     r0,[r4,#0x868]
        0x0001af96:    e74f        O.      B        0x1ae38 ; am_hal_iom_power_ctrl + 420
    $d
        0x0001af98:    00123456    V4..    DCD    1193046
        0x0001af9c:    4005022c    ,..@    DCD    1074070060
    $t
    i.am_hal_iom_uninitialize
    am_hal_iom_uninitialize
        0x0001afa0:    e92d41f0    -..A    PUSH     {r4-r8,lr}
        0x0001afa4:    2700        .'      MOVS     r7,#0
        0x0001afa6:    1e06        ..      SUBS     r6,r0,#0
        0x0001afa8:    bf1c        ..      ITT      NE
        0x0001afaa:    6801        .h      LDRNE    r1,[r0,#0]
        0x0001afac:    f0117f80    ....    TSTNE    r1,#0x1000000
        0x0001afb0:    d004        ..      BEQ      0x1afbc ; am_hal_iom_uninitialize + 28
        0x0001afb2:    4b1d        .K      LDR      r3,[pc,#116] ; [0x1b028] = 0x123456
        0x0001afb4:    f021427f    !..B    BIC      r2,r1,#0xff000000
        0x0001afb8:    429a        .B      CMP      r2,r3
        0x0001afba:    d002        ..      BEQ      0x1afc2 ; am_hal_iom_uninitialize + 34
        0x0001afbc:    2002        .       MOVS     r0,#2
        0x0001afbe:    e8bd81f0    ....    POP      {r4-r8,pc}
        0x0001afc2:    f0117f00    ....    TST      r1,#0x2000000
        0x0001afc6:    d028        (.      BEQ      0x1b01a ; am_hal_iom_uninitialize + 122
        0x0001afc8:    6a70        pj      LDR      r0,[r6,#0x24]
        0x0001afca:    4634        4F      MOV      r4,r6
        0x0001afcc:    bb28        (.      CBNZ     r0,0x1b01a ; am_hal_iom_uninitialize + 122
        0x0001afce:    6860        `h      LDR      r0,[r4,#4]
        0x0001afd0:    0300        ..      LSLS     r0,r0,#12
        0x0001afd2:    f1004080    ...@    ADD      r0,r0,#0x40000000
        0x0001afd6:    f50020a0    ...     ADD      r0,r0,#0x50000
        0x0001afda:    f8d0111c    ....    LDR      r1,[r0,#0x11c]
        0x0001afde:    f0210101    !...    BIC      r1,r1,#1
        0x0001afe2:    f8c0111c    ....    STR      r1,[r0,#0x11c]
        0x0001afe6:    6860        `h      LDR      r0,[r4,#4]
        0x0001afe8:    0300        ..      LSLS     r0,r0,#12
        0x0001afea:    f1004080    ...@    ADD      r0,r0,#0x40000000
        0x0001afee:    f50020a0    ...     ADD      r0,r0,#0x50000
        0x0001aff2:    f8d0111c    ....    LDR      r1,[r0,#0x11c]
        0x0001aff6:    f0210110    !...    BIC      r1,r1,#0x10
        0x0001affa:    f8c0111c    ....    STR      r1,[r0,#0x11c]
        0x0001affe:    f8d40828    ..(.    LDR      r0,[r4,#0x828]
        0x0001b002:    4625        %F      MOV      r5,r4
        0x0001b004:    b128        (.      CBZ      r0,0x1b012 ; am_hal_iom_uninitialize + 114
        0x0001b006:    2101        .!      MOVS     r1,#1
        0x0001b008:    f7fefa56    ..V.    BL       am_hal_cmdq_term ; 0x194b8
        0x0001b00c:    2000        .       MOVS     r0,#0
        0x0001b00e:    f8c50828    ..(.    STR      r0,[r5,#0x828]
        0x0001b012:    6820         h      LDR      r0,[r4,#0]
        0x0001b014:    f0207000     ..p    BIC      r0,r0,#0x2000000
        0x0001b018:    6020         `      STR      r0,[r4,#0]
        0x0001b01a:    6830        0h      LDR      r0,[r6,#0]
        0x0001b01c:    f0207080     ..p    BIC      r0,r0,#0x1000000
        0x0001b020:    6030        0`      STR      r0,[r6,#0]
        0x0001b022:    4638        8F      MOV      r0,r7
        0x0001b024:    e8bd81f0    ....    POP      {r4-r8,pc}
    $d
        0x0001b028:    00123456    V4..    DCD    1193046
    $t
    i.am_hal_itm_enable
    am_hal_itm_enable
        0x0001b02c:    480a        .H      LDR      r0,[pc,#40] ; [0x1b058] = 0xe000edfc
        0x0001b02e:    6801        .h      LDR      r1,[r0,#0]
        0x0001b030:    f0417180    A..q    ORR      r1,r1,#0x1000000
        0x0001b034:    6001        .`      STR      r1,[r0,#0]
        0x0001b036:    6801        .h      LDR      r1,[r0,#0]
        0x0001b038:    f0117f80    ....    TST      r1,#0x1000000
        0x0001b03c:    d0fb        ..      BEQ      0x1b036 ; am_hal_itm_enable + 10
        0x0001b03e:    4908        .I      LDR      r1,[pc,#32] ; [0x1b060] = 0xe0000fb0
        0x0001b040:    4806        .H      LDR      r0,[pc,#24] ; [0x1b05c] = 0xc5acce55
        0x0001b042:    6008        .`      STR      r0,[r1,#0]
        0x0001b044:    4907        .I      LDR      r1,[pc,#28] ; [0x1b064] = 0xe0000e40
        0x0001b046:    200f        .       MOVS     r0,#0xf
        0x0001b048:    6008        .`      STR      r0,[r1,#0]
        0x0001b04a:    1748        H.      ASRS     r0,r1,#29
        0x0001b04c:    4906        .I      LDR      r1,[pc,#24] ; [0x1b068] = 0xe0000e00
        0x0001b04e:    6008        .`      STR      r0,[r1,#0]
        0x0001b050:    4907        .I      LDR      r1,[pc,#28] ; [0x1b070] = 0xe0000e80
        0x0001b052:    4806        .H      LDR      r0,[pc,#24] ; [0x1b06c] = 0x150511
        0x0001b054:    6008        .`      STR      r0,[r1,#0]
        0x0001b056:    4770        pG      BX       lr
    $d
        0x0001b058:    e000edfc    ....    DCD    3758157308
        0x0001b05c:    c5acce55    U...    DCD    3316436565
        0x0001b060:    e0000fb0    ....    DCD    3758100400
        0x0001b064:    e0000e40    @...    DCD    3758100032
        0x0001b068:    e0000e00    ....    DCD    3758099968
        0x0001b06c:    00150511    ....    DCD    1377553
        0x0001b070:    e0000e80    ....    DCD    3758100096
    $t
    i.am_hal_itm_print
    am_hal_itm_print
        0x0001b074:    7802        .x      LDRB     r2,[r0,#0]
        0x0001b076:    2100        .!      MOVS     r1,#0
        0x0001b078:    2a00        .*      CMP      r2,#0
        0x0001b07a:    bf08        ..      IT       EQ
        0x0001b07c:    4770        pG      BXEQ     lr
        0x0001b07e:    1c49        I.      ADDS     r1,r1,#1
        0x0001b080:    5c42        B\      LDRB     r2,[r0,r1]
        0x0001b082:    2a00        .*      CMP      r2,#0
        0x0001b084:    d1fb        ..      BNE      0x1b07e ; am_hal_itm_print + 10
        0x0001b086:    2900        .)      CMP      r1,#0
        0x0001b088:    bf08        ..      IT       EQ
        0x0001b08a:    4770        pG      BXEQ     lr
        0x0001b08c:    f810cb01    ....    LDRB     r12,[r0],#1
        0x0001b090:    f04f4260    O.`B    MOV      r2,#0xe0000000
        0x0001b094:    6813        .h      LDR      r3,[r2,#0]
        0x0001b096:    2b00        .+      CMP      r3,#0
        0x0001b098:    d0fc        ..      BEQ      0x1b094 ; am_hal_itm_print + 32
        0x0001b09a:    f882c000    ....    STRB     r12,[r2,#0]
        0x0001b09e:    1e49        I.      SUBS     r1,r1,#1
        0x0001b0a0:    d1f4        ..      BNE      0x1b08c ; am_hal_itm_print + 24
        0x0001b0a2:    4770        pG      BX       lr
    i.am_hal_load_ui32
    am_hal_load_ui32
        0x0001b0a4:    4901        .I      LDR      r1,[pc,#4] ; [0x1b0ac] = 0x1d160
        0x0001b0a6:    6949        Ii      LDR      r1,[r1,#0x14]
        0x0001b0a8:    4708        .G      BX       r1
    $d
        0x0001b0aa:    0000        ..      DCW    0
        0x0001b0ac:    0001d160    `...    DCD    119136
    $t
    i.am_hal_mram_info_read
    am_hal_mram_info_read
        0x0001b0b0:    e92d43f8    -..C    PUSH     {r3-r9,lr}
        0x0001b0b4:    4617        .F      MOV      r7,r2
        0x0001b0b6:    0002        ..      MOVS     r2,r0
        0x0001b0b8:    461d        .F      MOV      r5,r3
        0x0001b0ba:    f04f0800    O...    MOV      r8,#0
        0x0001b0be:    eb010007    ....    ADD      r0,r1,r7
        0x0001b0c2:    d011        ..      BEQ      0x1b0e8 ; am_hal_mram_info_read + 56
        0x0001b0c4:    2a01        .*      CMP      r2,#1
        0x0001b0c6:    bf1c        ..      ITT      NE
        0x0001b0c8:    2001        .       MOVNE    r0,#1
        0x0001b0ca:    e8bd83f8    ....    POPNE    {r3-r9,pc}
        0x0001b0ce:    f5a16290    ...b    SUB      r2,r1,#0x480
        0x0001b0d2:    f5b27fc0    ....    CMP      r2,#0x180
        0x0001b0d6:    d204        ..      BCS      0x1b0e2 ; am_hal_mram_info_read + 50
        0x0001b0d8:    f5b06fc0    ...o    CMP      r0,#0x600
        0x0001b0dc:    bf98        ..      IT       LS
        0x0001b0de:    4817        .H      LDRLS    r0,[pc,#92] ; [0x1b13c] = 0x42002000
        0x0001b0e0:    d90b        ..      BLS      0x1b0fa ; am_hal_mram_info_read + 74
        0x0001b0e2:    2002        .       MOVS     r0,#2
        0x0001b0e4:    e8bd83f8    ....    POP      {r3-r9,pc}
        0x0001b0e8:    f5b17f00    ....    CMP      r1,#0x200
        0x0001b0ec:    d2f9        ..      BCS      0x1b0e2 ; am_hal_mram_info_read + 50
        0x0001b0ee:    f5b07f00    ....    CMP      r0,#0x200
        0x0001b0f2:    bf98        ..      IT       LS
        0x0001b0f4:    f04f4084    O..@    MOVLS    r0,#0x42000000
        0x0001b0f8:    d8f3        ..      BHI      0x1b0e2 ; am_hal_mram_info_read + 50
        0x0001b0fa:    f8df9044    ..D.    LDR      r9,[pc,#68] ; [0x1b140] = 0x10000244
        0x0001b0fe:    eb000481    ....    ADD      r4,r0,r1,LSL #2
        0x0001b102:    2001        .       MOVS     r0,#1
        0x0001b104:    f8d91000    ....    LDR      r1,[r9,#0]
        0x0001b108:    4788        .G      BLX      r1
        0x0001b10a:    f7fdf929    ..).    BL       am_hal_interrupt_master_disable ; 0x18360
        0x0001b10e:    2600        .&      MOVS     r6,#0
        0x0001b110:    9000        ..      STR      r0,[sp,#0]
        0x0001b112:    2f00        ./      CMP      r7,#0
        0x0001b114:    d908        ..      BLS      0x1b128 ; am_hal_mram_info_read + 120
        0x0001b116:    4620         F      MOV      r0,r4
        0x0001b118:    1d24        $.      ADDS     r4,r4,#4
        0x0001b11a:    f7ffffc3    ....    BL       am_hal_load_ui32 ; 0x1b0a4
        0x0001b11e:    1c76        v.      ADDS     r6,r6,#1
        0x0001b120:    f8450b04    E...    STR      r0,[r5],#4
        0x0001b124:    42b7        .B      CMP      r7,r6
        0x0001b126:    d8f6        ..      BHI      0x1b116 ; am_hal_mram_info_read + 102
        0x0001b128:    9800        ..      LDR      r0,[sp,#0]
        0x0001b12a:    f7fdf91d    ....    BL       am_hal_interrupt_master_set ; 0x18368
        0x0001b12e:    f8d91000    ....    LDR      r1,[r9,#0]
        0x0001b132:    2000        .       MOVS     r0,#0
        0x0001b134:    4788        .G      BLX      r1
        0x0001b136:    4640        @F      MOV      r0,r8
        0x0001b138:    e8bd83f8    ....    POP      {r3-r9,pc}
    $d
        0x0001b13c:    42002000    . .B    DCD    1107304448
        0x0001b140:    10000244    D...    DCD    268436036
    $t
    i.am_hal_pwrctrl_control
    am_hal_pwrctrl_control
        0x0001b144:    e92d43f8    -..C    PUSH     {r3-r9,lr}
        0x0001b148:    2700        .'      MOVS     r7,#0
        0x0001b14a:    f8df8154    ..T.    LDR      r8,[pc,#340] ; [0x1b2a0] = 0x40021000
        0x0001b14e:    4c55        UL      LDR      r4,[pc,#340] ; [0x1b2a4] = 0x40020000
        0x0001b150:    2601        .&      MOVS     r6,#1
        0x0001b152:    46b9        .F      MOV      r9,r7
        0x0001b154:    b158        X.      CBZ      r0,0x1b16e ; am_hal_pwrctrl_control + 42
        0x0001b156:    2801        .(      CMP      r0,#1
        0x0001b158:    d05d        ].      BEQ      0x1b216 ; am_hal_pwrctrl_control + 210
        0x0001b15a:    2802        .(      CMP      r0,#2
        0x0001b15c:    d07e        ~.      BEQ      0x1b25c ; am_hal_pwrctrl_control + 280
        0x0001b15e:    2803        .(      CMP      r0,#3
        0x0001b160:    bf0c        ..      ITE      EQ
        0x0001b162:    f8c89004    ....    STREQ    r9,[r8,#4]
        0x0001b166:    2706        .'      MOVNE    r7,#6
        0x0001b168:    4638        8F      MOV      r0,r7
        0x0001b16a:    e8bd83f8    ....    POP      {r3-r9,pc}
        0x0001b16e:    2007        .       MOVS     r0,#7
        0x0001b170:    f8c4033c    ..<.    STR      r0,[r4,#0x33c]
        0x0001b174:    f8d40378    ..x.    LDR      r0,[r4,#0x378]
        0x0001b178:    f02050f8     ..P    BIC      r0,r0,#0x1f000000
        0x0001b17c:    f8c40378    ..x.    STR      r0,[r4,#0x378]
        0x0001b180:    f8d40358    ..X.    LDR      r0,[r4,#0x358]
        0x0001b184:    f42000f8     ...    BIC      r0,r0,#0x7c0000
        0x0001b188:    f8c40358    ..X.    STR      r0,[r4,#0x358]
        0x0001b18c:    4d46        FM      LDR      r5,[pc,#280] ; [0x1b2a8] = 0x10000148
        0x0001b18e:    6868        hh      LDR      r0,[r5,#4]
        0x0001b190:    f1b03fff    ...?    CMP      r0,#0xffffffff
        0x0001b194:    d10d        ..      BNE      0x1b1b2 ; am_hal_pwrctrl_control + 110
        0x0001b196:    2201        ."      MOVS     r2,#1
        0x0001b198:    1d2b        +.      ADDS     r3,r5,#4
        0x0001b19a:    f24041c4    @..A    MOV      r1,#0x4c4
        0x0001b19e:    4610        .F      MOV      r0,r2
        0x0001b1a0:    f7ffff86    ....    BL       am_hal_mram_info_read ; 0x1b0b0
        0x0001b1a4:    b918        ..      CBNZ     r0,0x1b1ae ; am_hal_pwrctrl_control + 106
        0x0001b1a6:    6868        hh      LDR      r0,[r5,#4]
        0x0001b1a8:    f1b03fff    ...?    CMP      r0,#0xffffffff
        0x0001b1ac:    d101        ..      BNE      0x1b1b2 ; am_hal_pwrctrl_control + 110
        0x0001b1ae:    f8c59004    ....    STR      r9,[r5,#4]
        0x0001b1b2:    6868        hh      LDR      r0,[r5,#4]
        0x0001b1b4:    68e1        .h      LDR      r1,[r4,#0xc]
        0x0001b1b6:    b2c9        ..      UXTB     r1,r1
        0x0001b1b8:    2922        ")      CMP      r1,#0x22
        0x0001b1ba:    bf22        ".      ITTT     CS
        0x0001b1bc:    2806        .(      CMPCS    r0,#6
        0x0001b1be:    7868        hx      LDRBCS   r0,[r5,#1]
        0x0001b1c0:    2800        .(      CMPCS    r0,#0
        0x0001b1c2:    d121        !.      BNE      0x1b208 ; am_hal_pwrctrl_control + 196
        0x0001b1c4:    706e        np      STRB     r6,[r5,#1]
        0x0001b1c6:    6c60        `l      LDR      r0,[r4,#0x44]
        0x0001b1c8:    68e9        .h      LDR      r1,[r5,#0xc]
        0x0001b1ca:    f3c010c6    ....    UBFX     r0,r0,#7,#7
        0x0001b1ce:    f1b13fff    ...?    CMP      r1,#0xffffffff
        0x0001b1d2:    bf08        ..      IT       EQ
        0x0001b1d4:    60e8        .`      STREQ    r0,[r5,#0xc]
        0x0001b1d6:    f8d41378    ..x.    LDR      r1,[r4,#0x378]
        0x0001b1da:    f0414100    A..A    ORR      r1,r1,#0x80000000
        0x0001b1de:    f8c41378    ..x.    STR      r1,[r4,#0x378]
        0x0001b1e2:    f1100f18    ....    CMN      r0,#0x18
        0x0001b1e6:    bf94        ..      ITE      LS
        0x0001b1e8:    f1000518    ....    ADDLS    r5,r0,#0x18
        0x0001b1ec:    2500        .%      MOVHI    r5,#0
        0x0001b1ee:    f7fdf8b7    ....    BL       am_hal_interrupt_master_disable ; 0x18360
        0x0001b1f2:    9000        ..      STR      r0,[sp,#0]
        0x0001b1f4:    6c60        `l      LDR      r0,[r4,#0x44]
        0x0001b1f6:    f36510cd    e...    BFI      r0,r5,#7,#7
        0x0001b1fa:    6460        `d      STR      r0,[r4,#0x44]
        0x0001b1fc:    2014        .       MOVS     r0,#0x14
        0x0001b1fe:    f7fefa81    ....    BL       am_hal_delay_us ; 0x19704
        0x0001b202:    9800        ..      LDR      r0,[sp,#0]
        0x0001b204:    f7fdf8b0    ....    BL       am_hal_interrupt_master_set ; 0x18368
        0x0001b208:    f8d80100    ....    LDR      r0,[r8,#0x100]
        0x0001b20c:    f0400001    @...    ORR      r0,r0,#1
        0x0001b210:    f8c80100    ....    STR      r0,[r8,#0x100]
        0x0001b214:    e7a8        ..      B        0x1b168 ; am_hal_pwrctrl_control + 36
        0x0001b216:    4825        %H      LDR      r0,[pc,#148] ; [0x1b2ac] = 0x1d360
        0x0001b218:    f50074a0    ...t    ADD      r4,r0,#0x140
        0x0001b21c:    f8d00148    ..H.    LDR      r0,[r0,#0x148]
        0x0001b220:    68e1        .h      LDR      r1,[r4,#0xc]
        0x0001b222:    6800        .h      LDR      r0,[r0,#0]
        0x0001b224:    4008        .@      ANDS     r0,r0,r1
        0x0001b226:    bf18        ..      IT       NE
        0x0001b228:    2001        .       MOVNE    r0,#1
        0x0001b22a:    2800        .(      CMP      r0,#0
        0x0001b22c:    d09c        ..      BEQ      0x1b168 ; am_hal_pwrctrl_control + 36
        0x0001b22e:    2301        .#      MOVS     r3,#1
        0x0001b230:    461a        .F      MOV      r2,r3
        0x0001b232:    491f        .I      LDR      r1,[pc,#124] ; [0x1b2b0] = 0x400c0a7c
        0x0001b234:    2064        d       MOVS     r0,#0x64
        0x0001b236:    f7fefa7b    ..{.    BL       am_hal_delay_us_status_change ; 0x19730
        0x0001b23a:    2800        .(      CMP      r0,#0
        0x0001b23c:    bf18        ..      IT       NE
        0x0001b23e:    e8bd83f8    ....    POPNE    {r3-r9,pc}
        0x0001b242:    2301        .#      MOVS     r3,#1
        0x0001b244:    461a        .F      MOV      r2,r3
        0x0001b246:    491b        .I      LDR      r1,[pc,#108] ; [0x1b2b4] = 0x400c1f10
        0x0001b248:    2064        d       MOVS     r0,#0x64
        0x0001b24a:    f7fefa71    ..q.    BL       am_hal_delay_us_status_change ; 0x19730
        0x0001b24e:    2800        .(      CMP      r0,#0
        0x0001b250:    bf18        ..      IT       NE
        0x0001b252:    e8bd83f8    ....    POPNE    {r3-r9,pc}
        0x0001b256:    4818        .H      LDR      r0,[pc,#96] ; [0x1b2b8] = 0x400c0a80
        0x0001b258:    6801        .h      LDR      r1,[r0,#0]
        0x0001b25a:    e000        ..      B        0x1b25e ; am_hal_pwrctrl_control + 282
        0x0001b25c:    e016        ..      B        0x1b28c ; am_hal_pwrctrl_control + 328
        0x0001b25e:    f0410101    A...    ORR      r1,r1,#1
        0x0001b262:    6001        .`      STR      r1,[r0,#0]
        0x0001b264:    200f        .       MOVS     r0,#0xf
        0x0001b266:    f7fefa4d    ..M.    BL       am_hal_delay_us ; 0x19704
        0x0001b26a:    2310        .#      MOVS     r3,#0x10
        0x0001b26c:    2200        ."      MOVS     r2,#0
        0x0001b26e:    0419        ..      LSLS     r1,r3,#16
        0x0001b270:    4812        .H      LDR      r0,[pc,#72] ; [0x1b2bc] = 0x40021004
        0x0001b272:    f000fb55    ..U.    BL       am_hal_util_write_and_wait ; 0x1b920
        0x0001b276:    480d        .H      LDR      r0,[pc,#52] ; [0x1b2ac] = 0x1d360
        0x0001b278:    68e1        .h      LDR      r1,[r4,#0xc]
        0x0001b27a:    f8d00148    ..H.    LDR      r0,[r0,#0x148]
        0x0001b27e:    6800        .h      LDR      r0,[r0,#0]
        0x0001b280:    4208        .B      TST      r0,r1
        0x0001b282:    bf1c        ..      ITT      NE
        0x0001b284:    4630        0F      MOVNE    r0,r6
        0x0001b286:    e8bd83f8    ....    POPNE    {r3-r9,pc}
        0x0001b28a:    e76d        m.      B        0x1b168 ; am_hal_pwrctrl_control + 36
        0x0001b28c:    f8d40124    ..$.    LDR      r0,[r4,#0x124]
        0x0001b290:    f02000fc     ...    BIC      r0,r0,#0xfc
        0x0001b294:    3080        .0      ADDS     r0,r0,#0x80
        0x0001b296:    f8c40124    ..$.    STR      r0,[r4,#0x124]
        0x0001b29a:    f8c46120    .. a    STR      r6,[r4,#0x120]
        0x0001b29e:    e763        c.      B        0x1b168 ; am_hal_pwrctrl_control + 36
    $d
        0x0001b2a0:    40021000    ...@    DCD    1073876992
        0x0001b2a4:    40020000    ...@    DCD    1073872896
        0x0001b2a8:    10000148    H...    DCD    268435784
        0x0001b2ac:    0001d360    `...    DCD    119648
        0x0001b2b0:    400c0a7c    |..@    DCD    1074530940
        0x0001b2b4:    400c1f10    ...@    DCD    1074536208
        0x0001b2b8:    400c0a80    ...@    DCD    1074530944
        0x0001b2bc:    40021004    ...@    DCD    1073876996
    $t
    i.am_hal_pwrctrl_low_power_init
    am_hal_pwrctrl_low_power_init
        0x0001b2c0:    b5f8        ..      PUSH     {r3-r7,lr}
        0x0001b2c2:    4862        bH      LDR      r0,[pc,#392] ; [0x1b44c] = 0x1d358
        0x0001b2c4:    f000f8d0    ....    BL       am_hal_pwrctrl_mcu_memory_config ; 0x1b468
        0x0001b2c8:    4d61        aM      LDR      r5,[pc,#388] ; [0x1b450] = 0x1d354
        0x0001b2ca:    4c62        bL      LDR      r4,[pc,#392] ; [0x1b454] = 0x40021000
        0x0001b2cc:    7829        )x      LDRB     r1,[r5,#0]
        0x0001b2ce:    6a60        `j      LDR      r0,[r4,#0x24]
        0x0001b2d0:    f3610001    a...    BFI      r0,r1,#0,#2
        0x0001b2d4:    6260        `b      STR      r0,[r4,#0x24]
        0x0001b2d6:    2601        .&      MOVS     r6,#1
        0x0001b2d8:    9600        ..      STR      r6,[sp,#0]
        0x0001b2da:    6a63        cj      LDR      r3,[r4,#0x24]
        0x0001b2dc:    2203        ."      MOVS     r2,#3
        0x0001b2de:    495e        ^I      LDR      r1,[pc,#376] ; [0x1b458] = 0x40021028
        0x0001b2e0:    2005        .       MOVS     r0,#5
        0x0001b2e2:    f7fefa51    ..Q.    BL       am_hal_delay_us_status_check ; 0x19788
        0x0001b2e6:    2800        .(      CMP      r0,#0
        0x0001b2e8:    d12f        /.      BNE      0x1b34a ; am_hal_pwrctrl_low_power_init + 138
        0x0001b2ea:    6aa0        .j      LDR      r0,[r4,#0x28]
        0x0001b2ec:    6a61        aj      LDR      r1,[r4,#0x24]
        0x0001b2ee:    f0000003    ....    AND      r0,r0,#3
        0x0001b2f2:    f0010103    ....    AND      r1,r1,#3
        0x0001b2f6:    4288        .B      CMP      r0,r1
        0x0001b2f8:    d127        '.      BNE      0x1b34a ; am_hal_pwrctrl_low_power_init + 138
        0x0001b2fa:    7869        ix      LDRB     r1,[r5,#1]
        0x0001b2fc:    6ae0        .j      LDR      r0,[r4,#0x2c]
        0x0001b2fe:    f3610083    a...    BFI      r0,r1,#2,#2
        0x0001b302:    62e0        .b      STR      r0,[r4,#0x2c]
        0x0001b304:    78a9        .x      LDRB     r1,[r5,#2]
        0x0001b306:    6ae0        .j      LDR      r0,[r4,#0x2c]
        0x0001b308:    f3611005    a...    BFI      r0,r1,#4,#2
        0x0001b30c:    62e0        .b      STR      r0,[r4,#0x2c]
        0x0001b30e:    6ae0        .j      LDR      r0,[r4,#0x2c]
        0x0001b310:    f02000c0     ...    BIC      r0,r0,#0xc0
        0x0001b314:    62e0        .b      STR      r0,[r4,#0x2c]
        0x0001b316:    6ae0        .j      LDR      r0,[r4,#0x2c]
        0x0001b318:    f4207040     .@p    BIC      r0,r0,#0x300
        0x0001b31c:    62e0        .b      STR      r0,[r4,#0x2c]
        0x0001b31e:    78e8        .x      LDRB     r0,[r5,#3]
        0x0001b320:    2800        .(      CMP      r0,#0
        0x0001b322:    bf04        ..      ITT      EQ
        0x0001b324:    6ae0        .j      LDREQ    r0,[r4,#0x2c]
        0x0001b326:    f0400003    @...    ORREQ    r0,r0,#3
        0x0001b32a:    d008        ..      BEQ      0x1b33e ; am_hal_pwrctrl_low_power_init + 126
        0x0001b32c:    2801        .(      CMP      r0,#1
        0x0001b32e:    d002        ..      BEQ      0x1b336 ; am_hal_pwrctrl_low_power_init + 118
        0x0001b330:    2803        .(      CMP      r0,#3
        0x0001b332:    d006        ..      BEQ      0x1b342 ; am_hal_pwrctrl_low_power_init + 130
        0x0001b334:    e009        ..      B        0x1b34a ; am_hal_pwrctrl_low_power_init + 138
        0x0001b336:    6ae0        .j      LDR      r0,[r4,#0x2c]
        0x0001b338:    f0200003     ...    BIC      r0,r0,#3
        0x0001b33c:    1c80        ..      ADDS     r0,r0,#2
        0x0001b33e:    62e0        .b      STR      r0,[r4,#0x2c]
        0x0001b340:    e003        ..      B        0x1b34a ; am_hal_pwrctrl_low_power_init + 138
        0x0001b342:    6ae0        .j      LDR      r0,[r4,#0x2c]
        0x0001b344:    f0200003     ...    BIC      r0,r0,#3
        0x0001b348:    62e0        .b      STR      r0,[r4,#0x2c]
        0x0001b34a:    f04f2040    O.@     MOV      r0,#0x40004000
        0x0001b34e:    6c41        Al      LDR      r1,[r0,#0x44]
        0x0001b350:    f021717f    !..q    BIC      r1,r1,#0x3fc0000
        0x0001b354:    f5010178    ..x.    ADD      r1,r1,#0xf80000
        0x0001b358:    6441        Ad      STR      r1,[r0,#0x44]
        0x0001b35a:    2500        .%      MOVS     r5,#0
        0x0001b35c:    f8c45140    ..@Q    STR      r5,[r4,#0x140]
        0x0001b360:    f8c45144    ..DQ    STR      r5,[r4,#0x144]
        0x0001b364:    f8c45148    ..HQ    STR      r5,[r4,#0x148]
        0x0001b368:    f8c4514c    ..LQ    STR      r5,[r4,#0x14c]
        0x0001b36c:    f8c45150    ..PQ    STR      r5,[r4,#0x150]
        0x0001b370:    f8c45154    ..TQ    STR      r5,[r4,#0x154]
        0x0001b374:    f8c45158    ..XQ    STR      r5,[r4,#0x158]
        0x0001b378:    f8c4515c    ..\Q    STR      r5,[r4,#0x15c]
        0x0001b37c:    f8c45160    ..`Q    STR      r5,[r4,#0x160]
        0x0001b380:    f8c45164    ..dQ    STR      r5,[r4,#0x164]
        0x0001b384:    f8c45168    ..hQ    STR      r5,[r4,#0x168]
        0x0001b388:    f8c4516c    ..lQ    STR      r5,[r4,#0x16c]
        0x0001b38c:    f8c45170    ..pQ    STR      r5,[r4,#0x170]
        0x0001b390:    f8c45174    ..tQ    STR      r5,[r4,#0x174]
        0x0001b394:    f8c45178    ..xQ    STR      r5,[r4,#0x178]
        0x0001b398:    f8c4517c    ..|Q    STR      r5,[r4,#0x17c]
        0x0001b39c:    f8c45180    ...Q    STR      r5,[r4,#0x180]
        0x0001b3a0:    f8c45184    ...Q    STR      r5,[r4,#0x184]
        0x0001b3a4:    f8c45188    ...Q    STR      r5,[r4,#0x188]
        0x0001b3a8:    482c        ,H      LDR      r0,[pc,#176] ; [0x1b45c] = 0x1d15b
        0x0001b3aa:    f7fef8c9    ....    BL       am_hal_daxi_config ; 0x19540
        0x0001b3ae:    2100        .!      MOVS     r1,#0
        0x0001b3b0:    2002        .       MOVS     r0,#2
        0x0001b3b2:    f7fef8da    ....    BL       am_hal_daxi_control ; 0x1956a
        0x0001b3b6:    2100        .!      MOVS     r1,#0
        0x0001b3b8:    2001        .       MOVS     r0,#1
        0x0001b3ba:    f7fef8d6    ....    BL       am_hal_daxi_control ; 0x1956a
        0x0001b3be:    2064        d       MOVS     r0,#0x64
        0x0001b3c0:    f7fef9a0    ....    BL       am_hal_delay_us ; 0x19704
        0x0001b3c4:    f8d40108    ....    LDR      r0,[r4,#0x108]
        0x0001b3c8:    f3c01001    ....    UBFX     r0,r0,#4,#2
        0x0001b3cc:    2803        .(      CMP      r0,#3
        0x0001b3ce:    d03a        :.      BEQ      0x1b446 ; am_hal_pwrctrl_low_power_init + 390
        0x0001b3d0:    4c23        #L      LDR      r4,[pc,#140] ; [0x1b460] = 0x10000148
        0x0001b3d2:    6860        `h      LDR      r0,[r4,#4]
        0x0001b3d4:    f1b03fff    ...?    CMP      r0,#0xffffffff
        0x0001b3d8:    d10c        ..      BNE      0x1b3f4 ; am_hal_pwrctrl_low_power_init + 308
        0x0001b3da:    2201        ."      MOVS     r2,#1
        0x0001b3dc:    1d23        #.      ADDS     r3,r4,#4
        0x0001b3de:    f24041c4    @..A    MOV      r1,#0x4c4
        0x0001b3e2:    4610        .F      MOV      r0,r2
        0x0001b3e4:    f7fffe64    ..d.    BL       am_hal_mram_info_read ; 0x1b0b0
        0x0001b3e8:    b918        ..      CBNZ     r0,0x1b3f2 ; am_hal_pwrctrl_low_power_init + 306
        0x0001b3ea:    6860        `h      LDR      r0,[r4,#4]
        0x0001b3ec:    f1b03fff    ...?    CMP      r0,#0xffffffff
        0x0001b3f0:    d100        ..      BNE      0x1b3f4 ; am_hal_pwrctrl_low_power_init + 308
        0x0001b3f2:    6065        e`      STR      r5,[r4,#4]
        0x0001b3f4:    4d1b        .M      LDR      r5,[pc,#108] ; [0x1b464] = 0x40020000
        0x0001b3f6:    6860        `h      LDR      r0,[r4,#4]
        0x0001b3f8:    68e9        .h      LDR      r1,[r5,#0xc]
        0x0001b3fa:    b2c9        ..      UXTB     r1,r1
        0x0001b3fc:    2922        ")      CMP      r1,#0x22
        0x0001b3fe:    bf22        ".      ITTT     CS
        0x0001b400:    2806        .(      CMPCS    r0,#6
        0x0001b402:    78a0        .x      LDRBCS   r0,[r4,#2]
        0x0001b404:    2800        .(      CMPCS    r0,#0
        0x0001b406:    d11e        ..      BNE      0x1b446 ; am_hal_pwrctrl_low_power_init + 390
        0x0001b408:    70a6        .p      STRB     r6,[r4,#2]
        0x0001b40a:    f8d50080    ....    LDR      r0,[r5,#0x80]
        0x0001b40e:    6921        !i      LDR      r1,[r4,#0x10]
        0x0001b410:    f3c00009    ....    UBFX     r0,r0,#0,#10
        0x0001b414:    f1b13fff    ...?    CMP      r1,#0xffffffff
        0x0001b418:    bf08        ..      IT       EQ
        0x0001b41a:    6120         a      STREQ    r0,[r4,#0x10]
        0x0001b41c:    f1100f0a    ....    CMN      r0,#0xa
        0x0001b420:    bf94        ..      ITE      LS
        0x0001b422:    f100040a    ....    ADDLS    r4,r0,#0xa
        0x0001b426:    2400        .$      MOVHI    r4,#0
        0x0001b428:    f7fcff9a    ....    BL       am_hal_interrupt_master_disable ; 0x18360
        0x0001b42c:    9000        ..      STR      r0,[sp,#0]
        0x0001b42e:    f8d50080    ....    LDR      r0,[r5,#0x80]
        0x0001b432:    f3640009    d...    BFI      r0,r4,#0,#10
        0x0001b436:    f8c50080    ....    STR      r0,[r5,#0x80]
        0x0001b43a:    2014        .       MOVS     r0,#0x14
        0x0001b43c:    f7fef962    ..b.    BL       am_hal_delay_us ; 0x19704
        0x0001b440:    9800        ..      LDR      r0,[sp,#0]
        0x0001b442:    f7fcff91    ....    BL       am_hal_interrupt_master_set ; 0x18368
        0x0001b446:    2000        .       MOVS     r0,#0
        0x0001b448:    bdf8        ..      POP      {r3-r7,pc}
    $d
        0x0001b44a:    0000        ..      DCW    0
        0x0001b44c:    0001d358    X...    DCD    119640
        0x0001b450:    0001d354    T...    DCD    119636
        0x0001b454:    40021000    ...@    DCD    1073876992
        0x0001b458:    40021028    (..@    DCD    1073877032
        0x0001b45c:    0001d15b    [...    DCD    119131
        0x0001b460:    10000148    H...    DCD    268435784
        0x0001b464:    40020000    ...@    DCD    1073872896
    $t
    i.am_hal_pwrctrl_mcu_memory_config
    am_hal_pwrctrl_mcu_memory_config
        0x0001b468:    b538        8.      PUSH     {r3-r5,lr}
        0x0001b46a:    4605        .F      MOV      r5,r0
        0x0001b46c:    7800        .x      LDRB     r0,[r0,#0]
        0x0001b46e:    4c43        CL      LDR      r4,[pc,#268] ; [0x1b57c] = 0x40021000
        0x0001b470:    b120         .      CBZ      r0,0x1b47c ; am_hal_pwrctrl_mcu_memory_config + 20
        0x0001b472:    2801        .(      CMP      r0,#1
        0x0001b474:    d00a        ..      BEQ      0x1b48c ; am_hal_pwrctrl_mcu_memory_config + 36
        0x0001b476:    2802        .(      CMP      r0,#2
        0x0001b478:    d011        ..      BEQ      0x1b49e ; am_hal_pwrctrl_mcu_memory_config + 54
        0x0001b47a:    e018        ..      B        0x1b4ae ; am_hal_pwrctrl_mcu_memory_config + 70
        0x0001b47c:    6960        `i      LDR      r0,[r4,#0x14]
        0x0001b47e:    f0200010     ...    BIC      r0,r0,#0x10
        0x0001b482:    6160        `a      STR      r0,[r4,#0x14]
        0x0001b484:    6960        `i      LDR      r0,[r4,#0x14]
        0x0001b486:    f0200020     . .    BIC      r0,r0,#0x20
        0x0001b48a:    e00f        ..      B        0x1b4ac ; am_hal_pwrctrl_mcu_memory_config + 68
        0x0001b48c:    6960        `i      LDR      r0,[r4,#0x14]
        0x0001b48e:    f0400010    @...    ORR      r0,r0,#0x10
        0x0001b492:    6160        `a      STR      r0,[r4,#0x14]
        0x0001b494:    6960        `i      LDR      r0,[r4,#0x14]
        0x0001b496:    f0200020     . .    BIC      r0,r0,#0x20
        0x0001b49a:    6160        `a      STR      r0,[r4,#0x14]
        0x0001b49c:    e007        ..      B        0x1b4ae ; am_hal_pwrctrl_mcu_memory_config + 70
        0x0001b49e:    6960        `i      LDR      r0,[r4,#0x14]
        0x0001b4a0:    f0400010    @...    ORR      r0,r0,#0x10
        0x0001b4a4:    6160        `a      STR      r0,[r4,#0x14]
        0x0001b4a6:    6960        `i      LDR      r0,[r4,#0x14]
        0x0001b4a8:    f0400020    @. .    ORR      r0,r0,#0x20
        0x0001b4ac:    6160        `a      STR      r0,[r4,#0x14]
        0x0001b4ae:    78a9        .x      LDRB     r1,[r5,#2]
        0x0001b4b0:    6960        `i      LDR      r0,[r4,#0x14]
        0x0001b4b2:    f3610002    a...    BFI      r0,r1,#0,#3
        0x0001b4b6:    6160        `a      STR      r0,[r4,#0x14]
        0x0001b4b8:    7929        )y      LDRB     r1,[r5,#4]
        0x0001b4ba:    6960        `i      LDR      r0,[r4,#0x14]
        0x0001b4bc:    f36100c3    a...    BFI      r0,r1,#3,#1
        0x0001b4c0:    6160        `a      STR      r0,[r4,#0x14]
        0x0001b4c2:    2001        .       MOVS     r0,#1
        0x0001b4c4:    9000        ..      STR      r0,[sp,#0]
        0x0001b4c6:    6963        ci      LDR      r3,[r4,#0x14]
        0x0001b4c8:    223f        ?"      MOVS     r2,#0x3f
        0x0001b4ca:    492d        -I      LDR      r1,[pc,#180] ; [0x1b580] = 0x40021018
        0x0001b4cc:    2005        .       MOVS     r0,#5
        0x0001b4ce:    f7fef95b    ..[.    BL       am_hal_delay_us_status_check ; 0x19788
        0x0001b4d2:    2800        .(      CMP      r0,#0
        0x0001b4d4:    bf18        ..      IT       NE
        0x0001b4d6:    bd38        8.      POPNE    {r3-r5,pc}
        0x0001b4d8:    69a0        .i      LDR      r0,[r4,#0x18]
        0x0001b4da:    6961        ai      LDR      r1,[r4,#0x14]
        0x0001b4dc:    f3c01000    ....    UBFX     r0,r0,#4,#1
        0x0001b4e0:    f3c11100    ....    UBFX     r1,r1,#4,#1
        0x0001b4e4:    4288        .B      CMP      r0,r1
        0x0001b4e6:    d117        ..      BNE      0x1b518 ; am_hal_pwrctrl_mcu_memory_config + 176
        0x0001b4e8:    69a0        .i      LDR      r0,[r4,#0x18]
        0x0001b4ea:    6961        ai      LDR      r1,[r4,#0x14]
        0x0001b4ec:    f3c01040    ..@.    UBFX     r0,r0,#5,#1
        0x0001b4f0:    f3c11140    ..@.    UBFX     r1,r1,#5,#1
        0x0001b4f4:    4288        .B      CMP      r0,r1
        0x0001b4f6:    d10f        ..      BNE      0x1b518 ; am_hal_pwrctrl_mcu_memory_config + 176
        0x0001b4f8:    69a0        .i      LDR      r0,[r4,#0x18]
        0x0001b4fa:    6961        ai      LDR      r1,[r4,#0x14]
        0x0001b4fc:    f0000007    ....    AND      r0,r0,#7
        0x0001b500:    f0010107    ....    AND      r1,r1,#7
        0x0001b504:    4288        .B      CMP      r0,r1
        0x0001b506:    d107        ..      BNE      0x1b518 ; am_hal_pwrctrl_mcu_memory_config + 176
        0x0001b508:    69a0        .i      LDR      r0,[r4,#0x18]
        0x0001b50a:    6961        ai      LDR      r1,[r4,#0x14]
        0x0001b50c:    f3c000c0    ....    UBFX     r0,r0,#3,#1
        0x0001b510:    f3c101c0    ....    UBFX     r1,r1,#3,#1
        0x0001b514:    4288        .B      CMP      r0,r1
        0x0001b516:    d001        ..      BEQ      0x1b51c ; am_hal_pwrctrl_mcu_memory_config + 180
        0x0001b518:    2001        .       MOVS     r0,#1
        0x0001b51a:    bd38        8.      POP      {r3-r5,pc}
        0x0001b51c:    7868        hx      LDRB     r0,[r5,#1]
        0x0001b51e:    2800        .(      CMP      r0,#0
        0x0001b520:    69e0        .i      LDR      r0,[r4,#0x1c]
        0x0001b522:    bf14        ..      ITE      NE
        0x0001b524:    f0200010     ...    BICNE    r0,r0,#0x10
        0x0001b528:    f0400010    @...    ORREQ    r0,r0,#0x10
        0x0001b52c:    61e0        .a      STR      r0,[r4,#0x1c]
        0x0001b52e:    7968        hy      LDRB     r0,[r5,#5]
        0x0001b530:    2800        .(      CMP      r0,#0
        0x0001b532:    69e0        .i      LDR      r0,[r4,#0x1c]
        0x0001b534:    bf14        ..      ITE      NE
        0x0001b536:    f0200008     ...    BICNE    r0,r0,#8
        0x0001b53a:    f0400008    @...    ORREQ    r0,r0,#8
        0x0001b53e:    61e0        .a      STR      r0,[r4,#0x1c]
        0x0001b540:    78e8        .x      LDRB     r0,[r5,#3]
        0x0001b542:    2800        .(      CMP      r0,#0
        0x0001b544:    bf04        ..      ITT      EQ
        0x0001b546:    69e0        .i      LDREQ    r0,[r4,#0x1c]
        0x0001b548:    f0400007    @...    ORREQ    r0,r0,#7
        0x0001b54c:    d013        ..      BEQ      0x1b576 ; am_hal_pwrctrl_mcu_memory_config + 270
        0x0001b54e:    2801        .(      CMP      r0,#1
        0x0001b550:    d008        ..      BEQ      0x1b564 ; am_hal_pwrctrl_mcu_memory_config + 252
        0x0001b552:    2803        .(      CMP      r0,#3
        0x0001b554:    d00b        ..      BEQ      0x1b56e ; am_hal_pwrctrl_mcu_memory_config + 262
        0x0001b556:    2807        .(      CMP      r0,#7
        0x0001b558:    bf04        ..      ITT      EQ
        0x0001b55a:    69e0        .i      LDREQ    r0,[r4,#0x1c]
        0x0001b55c:    f0200007     ...    BICEQ    r0,r0,#7
        0x0001b560:    d009        ..      BEQ      0x1b576 ; am_hal_pwrctrl_mcu_memory_config + 270
        0x0001b562:    e009        ..      B        0x1b578 ; am_hal_pwrctrl_mcu_memory_config + 272
        0x0001b564:    69e0        .i      LDR      r0,[r4,#0x1c]
        0x0001b566:    f0200007     ...    BIC      r0,r0,#7
        0x0001b56a:    1d80        ..      ADDS     r0,r0,#6
        0x0001b56c:    e003        ..      B        0x1b576 ; am_hal_pwrctrl_mcu_memory_config + 270
        0x0001b56e:    69e0        .i      LDR      r0,[r4,#0x1c]
        0x0001b570:    f0200007     ...    BIC      r0,r0,#7
        0x0001b574:    1d00        ..      ADDS     r0,r0,#4
        0x0001b576:    61e0        .a      STR      r0,[r4,#0x1c]
        0x0001b578:    2000        .       MOVS     r0,#0
        0x0001b57a:    bd38        8.      POP      {r3-r5,pc}
    $d
        0x0001b57c:    40021000    ...@    DCD    1073876992
        0x0001b580:    40021018    ...@    DCD    1073877016
    $t
    i.am_hal_pwrctrl_periph_disable
    am_hal_pwrctrl_periph_disable
        0x0001b584:    b538        8.      PUSH     {r3-r5,lr}
        0x0001b586:    4914        .I      LDR      r1,[pc,#80] ; [0x1b5d8] = 0x1d360
        0x0001b588:    2814        .(      CMP      r0,#0x14
        0x0001b58a:    eb011400    ....    ADD      r4,r1,r0,LSL #4
        0x0001b58e:    d01c        ..      BEQ      0x1b5ca ; am_hal_pwrctrl_periph_disable + 70
        0x0001b590:    f7fcfee6    ....    BL       am_hal_interrupt_master_disable ; 0x18360
        0x0001b594:    9000        ..      STR      r0,[sp,#0]
        0x0001b596:    6820         h      LDR      r0,[r4,#0]
        0x0001b598:    6862        bh      LDR      r2,[r4,#4]
        0x0001b59a:    6801        .h      LDR      r1,[r0,#0]
        0x0001b59c:    4391        .C      BICS     r1,r1,r2
        0x0001b59e:    6001        .`      STR      r1,[r0,#0]
        0x0001b5a0:    9800        ..      LDR      r0,[sp,#0]
        0x0001b5a2:    f7fcfee1    ....    BL       am_hal_interrupt_master_set ; 0x18368
        0x0001b5a6:    2000        .       MOVS     r0,#0
        0x0001b5a8:    9000        ..      STR      r0,[sp,#0]
        0x0001b5aa:    e9d41202    ....    LDRD     r1,r2,[r4,#8]
        0x0001b5ae:    4613        .F      MOV      r3,r2
        0x0001b5b0:    2005        .       MOVS     r0,#5
        0x0001b5b2:    f7fef8e9    ....    BL       am_hal_delay_us_status_check ; 0x19788
        0x0001b5b6:    2800        .(      CMP      r0,#0
        0x0001b5b8:    bf18        ..      IT       NE
        0x0001b5ba:    bd38        8.      POPNE    {r3-r5,pc}
        0x0001b5bc:    68a0        .h      LDR      r0,[r4,#8]
        0x0001b5be:    68e1        .h      LDR      r1,[r4,#0xc]
        0x0001b5c0:    6800        .h      LDR      r0,[r0,#0]
        0x0001b5c2:    4008        .@      ANDS     r0,r0,r1
        0x0001b5c4:    bf18        ..      IT       NE
        0x0001b5c6:    2001        .       MOVNE    r0,#1
        0x0001b5c8:    bd38        8.      POP      {r3-r5,pc}
        0x0001b5ca:    2310        .#      MOVS     r3,#0x10
        0x0001b5cc:    2200        ."      MOVS     r2,#0
        0x0001b5ce:    0419        ..      LSLS     r1,r3,#16
        0x0001b5d0:    4802        .H      LDR      r0,[pc,#8] ; [0x1b5dc] = 0x40021004
        0x0001b5d2:    f000f9a5    ....    BL       am_hal_util_write_and_wait ; 0x1b920
        0x0001b5d6:    e7f1        ..      B        0x1b5bc ; am_hal_pwrctrl_periph_disable + 56
    $d
        0x0001b5d8:    0001d360    `...    DCD    119648
        0x0001b5dc:    40021004    ...@    DCD    1073876996
    $t
    i.am_hal_pwrctrl_periph_enable
    am_hal_pwrctrl_periph_enable
        0x0001b5e0:    b538        8.      PUSH     {r3-r5,lr}
        0x0001b5e2:    4915        .I      LDR      r1,[pc,#84] ; [0x1b638] = 0x1d360
        0x0001b5e4:    2814        .(      CMP      r0,#0x14
        0x0001b5e6:    eb011400    ....    ADD      r4,r1,r0,LSL #4
        0x0001b5ea:    d01d        ..      BEQ      0x1b628 ; am_hal_pwrctrl_periph_enable + 72
        0x0001b5ec:    f7fcfeb8    ....    BL       am_hal_interrupt_master_disable ; 0x18360
        0x0001b5f0:    9000        ..      STR      r0,[sp,#0]
        0x0001b5f2:    6820         h      LDR      r0,[r4,#0]
        0x0001b5f4:    6862        bh      LDR      r2,[r4,#4]
        0x0001b5f6:    6801        .h      LDR      r1,[r0,#0]
        0x0001b5f8:    4311        .C      ORRS     r1,r1,r2
        0x0001b5fa:    6001        .`      STR      r1,[r0,#0]
        0x0001b5fc:    9800        ..      LDR      r0,[sp,#0]
        0x0001b5fe:    f7fcfeb3    ....    BL       am_hal_interrupt_master_set ; 0x18368
        0x0001b602:    2001        .       MOVS     r0,#1
        0x0001b604:    9000        ..      STR      r0,[sp,#0]
        0x0001b606:    e9d41202    ....    LDRD     r1,r2,[r4,#8]
        0x0001b60a:    4613        .F      MOV      r3,r2
        0x0001b60c:    2005        .       MOVS     r0,#5
        0x0001b60e:    f7fef8bb    ....    BL       am_hal_delay_us_status_check ; 0x19788
        0x0001b612:    2800        .(      CMP      r0,#0
        0x0001b614:    bf18        ..      IT       NE
        0x0001b616:    bd38        8.      POPNE    {r3-r5,pc}
        0x0001b618:    68a0        .h      LDR      r0,[r4,#8]
        0x0001b61a:    68e1        .h      LDR      r1,[r4,#0xc]
        0x0001b61c:    6800        .h      LDR      r0,[r0,#0]
        0x0001b61e:    4208        .B      TST      r0,r1
        0x0001b620:    bf14        ..      ITE      NE
        0x0001b622:    2000        .       MOVNE    r0,#0
        0x0001b624:    2001        .       MOVEQ    r0,#1
        0x0001b626:    bd38        8.      POP      {r3-r5,pc}
        0x0001b628:    2310        .#      MOVS     r3,#0x10
        0x0001b62a:    041a        ..      LSLS     r2,r3,#16
        0x0001b62c:    4611        .F      MOV      r1,r2
        0x0001b62e:    4803        .H      LDR      r0,[pc,#12] ; [0x1b63c] = 0x40021004
        0x0001b630:    f000f976    ..v.    BL       am_hal_util_write_and_wait ; 0x1b920
        0x0001b634:    e7f0        ..      B        0x1b618 ; am_hal_pwrctrl_periph_enable + 56
    $d
        0x0001b636:    0000        ..      DCW    0
        0x0001b638:    0001d360    `...    DCD    119648
        0x0001b63c:    40021004    ...@    DCD    1073876996
    $t
    i.am_hal_rtc_osc_disable
    am_hal_rtc_osc_disable
        0x0001b640:    4803        .H      LDR      r0,[pc,#12] ; [0x1b650] = 0x40004800
        0x0001b642:    6801        .h      LDR      r1,[r0,#0]
        0x0001b644:    f0410110    A...    ORR      r1,r1,#0x10
        0x0001b648:    6001        .`      STR      r1,[r0,#0]
        0x0001b64a:    2000        .       MOVS     r0,#0
        0x0001b64c:    4770        pG      BX       lr
    $d
        0x0001b64e:    0000        ..      DCW    0
        0x0001b650:    40004800    .H.@    DCD    1073760256
    $t
    i.am_hal_sysctrl_sleep
    am_hal_sysctrl_sleep
        0x0001b654:    e92d43f8    -..C    PUSH     {r3-r9,lr}
        0x0001b658:    4604        .F      MOV      r4,r0
        0x0001b65a:    f04f0800    O...    MOV      r8,#0
        0x0001b65e:    f04f37ff    O..7    MOV      r7,#0xffffffff
        0x0001b662:    f7fcfe7d    ..}.    BL       am_hal_interrupt_master_disable ; 0x18360
        0x0001b666:    4e2e        .N      LDR      r6,[pc,#184] ; [0x1b720] = 0xe000ed10
        0x0001b668:    9000        ..      STR      r0,[sp,#0]
        0x0001b66a:    b12c        ,.      CBZ      r4,0x1b678 ; am_hal_sysctrl_sleep + 36
        0x0001b66c:    4d2d        -M      LDR      r5,[pc,#180] ; [0x1b724] = 0x40020000
        0x0001b66e:    f8d50250    ..P.    LDR      r0,[r5,#0x250]
        0x0001b672:    f0100f10    ....    TST      r0,#0x10
        0x0001b676:    d009        ..      BEQ      0x1b68c ; am_hal_sysctrl_sleep + 56
        0x0001b678:    6830        0h      LDR      r0,[r6,#0]
        0x0001b67a:    f0200004     ...    BIC      r0,r0,#4
        0x0001b67e:    6030        0`      STR      r0,[r6,#0]
        0x0001b680:    f3bf8f4f    ..O.    DSB      
        0x0001b684:    bf30        0.      WFI      
        0x0001b686:    f3bf8f6f    ..o.    ISB      
        0x0001b68a:    e043        C.      B        0x1b714 ; am_hal_sysctrl_sleep + 192
        0x0001b68c:    4c26        &L      LDR      r4,[pc,#152] ; [0x1b728] = 0x40021000
        0x0001b68e:    68a0        .h      LDR      r0,[r4,#8]
        0x0001b690:    f4101f80    ....    TST      r0,#0x100000
        0x0001b694:    bf1c        ..      ITT      NE
        0x0001b696:    69e0        .i      LDRNE    r0,[r4,#0x1c]
        0x0001b698:    f0100f08    ....    TSTNE    r0,#8
        0x0001b69c:    d005        ..      BEQ      0x1b6aa ; am_hal_sysctrl_sleep + 86
        0x0001b69e:    69e0        .i      LDR      r0,[r4,#0x1c]
        0x0001b6a0:    f0200008     ...    BIC      r0,r0,#8
        0x0001b6a4:    61e0        .a      STR      r0,[r4,#0x1c]
        0x0001b6a6:    f04f0801    O...    MOV      r8,#1
        0x0001b6aa:    4820         H      LDR      r0,[pc,#128] ; [0x1b72c] = 0x10000149
        0x0001b6ac:    7800        .x      LDRB     r0,[r0,#0]
        0x0001b6ae:    b188        ..      CBZ      r0,0x1b6d4 ; am_hal_sysctrl_sleep + 128
        0x0001b6b0:    f8d50378    ..x.    LDR      r0,[r5,#0x378]
        0x0001b6b4:    f0404000    @..@    ORR      r0,r0,#0x80000000
        0x0001b6b8:    f8c50378    ..x.    STR      r0,[r5,#0x378]
        0x0001b6bc:    6c68        hl      LDR      r0,[r5,#0x44]
        0x0001b6be:    f3c017c6    ....    UBFX     r7,r0,#7,#7
        0x0001b6c2:    481b        .H      LDR      r0,[pc,#108] ; [0x1b730] = 0x10000154
        0x0001b6c4:    7801        .x      LDRB     r1,[r0,#0]
        0x0001b6c6:    6c68        hl      LDR      r0,[r5,#0x44]
        0x0001b6c8:    f36110cd    a...    BFI      r0,r1,#7,#7
        0x0001b6cc:    6468        hd      STR      r0,[r5,#0x44]
        0x0001b6ce:    2014        .       MOVS     r0,#0x14
        0x0001b6d0:    f7fef818    ....    BL       am_hal_delay_us ; 0x19704
        0x0001b6d4:    6830        0h      LDR      r0,[r6,#0]
        0x0001b6d6:    f0400004    @...    ORR      r0,r0,#4
        0x0001b6da:    6030        0`      STR      r0,[r6,#0]
        0x0001b6dc:    f3bf8f4f    ..O.    DSB      
        0x0001b6e0:    bf30        0.      WFI      
        0x0001b6e2:    f3bf8f6f    ..o.    ISB      
        0x0001b6e6:    f1b73fff    ...?    CMP      r7,#0xffffffff
        0x0001b6ea:    d00c        ..      BEQ      0x1b706 ; am_hal_sysctrl_sleep + 178
        0x0001b6ec:    f8d50378    ..x.    LDR      r0,[r5,#0x378]
        0x0001b6f0:    f0404000    @..@    ORR      r0,r0,#0x80000000
        0x0001b6f4:    f8c50378    ..x.    STR      r0,[r5,#0x378]
        0x0001b6f8:    6c68        hl      LDR      r0,[r5,#0x44]
        0x0001b6fa:    f36710cd    g...    BFI      r0,r7,#7,#7
        0x0001b6fe:    6468        hd      STR      r0,[r5,#0x44]
        0x0001b700:    2014        .       MOVS     r0,#0x14
        0x0001b702:    f7fdffff    ....    BL       am_hal_delay_us ; 0x19704
        0x0001b706:    f1b80f00    ....    CMP      r8,#0
        0x0001b70a:    d003        ..      BEQ      0x1b714 ; am_hal_sysctrl_sleep + 192
        0x0001b70c:    69e0        .i      LDR      r0,[r4,#0x1c]
        0x0001b70e:    f0400008    @...    ORR      r0,r0,#8
        0x0001b712:    61e0        .a      STR      r0,[r4,#0x1c]
        0x0001b714:    9800        ..      LDR      r0,[sp,#0]
        0x0001b716:    e8bd43f8    ...C    POP      {r3-r9,lr}
        0x0001b71a:    f7fcbe25    ..%.    B        am_hal_interrupt_master_set ; 0x18368
    $d
        0x0001b71e:    0000        ..      DCW    0
        0x0001b720:    e000ed10    ....    DCD    3758157072
        0x0001b724:    40020000    ...@    DCD    1073872896
        0x0001b728:    40021000    ...@    DCD    1073876992
        0x0001b72c:    10000149    I...    DCD    268435785
        0x0001b730:    10000154    T...    DCD    268435796
    $t
    i.am_hal_timer_clear
    am_hal_timer_clear
        0x0001b734:    b538        8.      PUSH     {r3-r5,lr}
        0x0001b736:    4604        .F      MOV      r4,r0
        0x0001b738:    f7fcfe12    ....    BL       am_hal_interrupt_master_disable ; 0x18360
        0x0001b73c:    4914        .I      LDR      r1,[pc,#80] ; [0x1b790] = 0x40008000
        0x0001b73e:    9000        ..      STR      r0,[sp,#0]
        0x0001b740:    f8d13104    ...1    LDR      r3,[r1,#0x104]
        0x0001b744:    2001        .       MOVS     r0,#1
        0x0001b746:    fa00f204    ....    LSL      r2,r0,r4
        0x0001b74a:    ea230002    #...    BIC      r0,r3,r2
        0x0001b74e:    f8c10104    ....    STR      r0,[r1,#0x104]
        0x0001b752:    0160        `.      LSLS     r0,r4,#5
        0x0001b754:    4408        .D      ADD      r0,r0,r1
        0x0001b756:    f8d03200    ...2    LDR      r3,[r0,#0x200]
        0x0001b75a:    f0230301    #...    BIC      r3,r3,#1
        0x0001b75e:    f8c03200    ...2    STR      r3,[r0,#0x200]
        0x0001b762:    f8d03200    ...2    LDR      r3,[r0,#0x200]
        0x0001b766:    f0430302    C...    ORR      r3,r3,#2
        0x0001b76a:    f8c03200    ...2    STR      r3,[r0,#0x200]
        0x0001b76e:    f8d03200    ...2    LDR      r3,[r0,#0x200]
        0x0001b772:    f0430301    C...    ORR      r3,r3,#1
        0x0001b776:    f8c03200    ...2    STR      r3,[r0,#0x200]
        0x0001b77a:    f8d10104    ....    LDR      r0,[r1,#0x104]
        0x0001b77e:    4310        .C      ORRS     r0,r0,r2
        0x0001b780:    f8c10104    ....    STR      r0,[r1,#0x104]
        0x0001b784:    9800        ..      LDR      r0,[sp,#0]
        0x0001b786:    f7fcfdef    ....    BL       am_hal_interrupt_master_set ; 0x18368
        0x0001b78a:    2000        .       MOVS     r0,#0
        0x0001b78c:    bd38        8.      POP      {r3-r5,pc}
    $d
        0x0001b78e:    0000        ..      DCW    0
        0x0001b790:    40008000    ...@    DCD    1073774592
    $t
    i.am_hal_timer_config
    am_hal_timer_config
        0x0001b794:    280d        .(      CMP      r0,#0xd
        0x0001b796:    bf04        ..      ITT      EQ
        0x0001b798:    2006        .       MOVEQ    r0,#6
        0x0001b79a:    4770        pG      BXEQ     lr
        0x0001b79c:    f000be4a    ..J.    B.W      internal_timer_config ; 0x1c434
    i.am_hal_timer_default_config_set
    am_hal_timer_default_config_set
        0x0001b7a0:    2201        ."      MOVS     r2,#1
        0x0001b7a2:    7002        .p      STRB     r2,[r0,#0]
        0x0001b7a4:    7042        Bp      STRB     r2,[r0,#1]
        0x0001b7a6:    1e91        ..      SUBS     r1,r2,#2
        0x0001b7a8:    60c1        .`      STR      r1,[r0,#0xc]
        0x0001b7aa:    6101        .a      STR      r1,[r0,#0x10]
        0x0001b7ac:    2100        .!      MOVS     r1,#0
        0x0001b7ae:    7081        .p      STRB     r1,[r0,#2]
        0x0001b7b0:    70c1        .p      STRB     r1,[r0,#3]
        0x0001b7b2:    7101        .q      STRB     r1,[r0,#4]
        0x0001b7b4:    7142        Bq      STRB     r2,[r0,#5]
        0x0001b7b6:    6081        .`      STR      r1,[r0,#8]
        0x0001b7b8:    4608        .F      MOV      r0,r1
        0x0001b7ba:    4770        pG      BX       lr
    i.am_hal_timer_interrupt_clear
    am_hal_timer_interrupt_clear
        0x0001b7bc:    4901        .I      LDR      r1,[pc,#4] ; [0x1b7c4] = 0x40008000
        0x0001b7be:    6688        .f      STR      r0,[r1,#0x68]
        0x0001b7c0:    2000        .       MOVS     r0,#0
        0x0001b7c2:    4770        pG      BX       lr
    $d
        0x0001b7c4:    40008000    ...@    DCD    1073774592
    $t
    i.am_hal_timer_interrupt_disable
    am_hal_timer_interrupt_disable
        0x0001b7c8:    4903        .I      LDR      r1,[pc,#12] ; [0x1b7d8] = 0x40008000
        0x0001b7ca:    6e0a        .n      LDR      r2,[r1,#0x60]
        0x0001b7cc:    ea220000    "...    BIC      r0,r2,r0
        0x0001b7d0:    6608        .f      STR      r0,[r1,#0x60]
        0x0001b7d2:    2000        .       MOVS     r0,#0
        0x0001b7d4:    4770        pG      BX       lr
    $d
        0x0001b7d6:    0000        ..      DCW    0
        0x0001b7d8:    40008000    ...@    DCD    1073774592
    $t
    i.am_hal_timer_interrupt_enable
    am_hal_timer_interrupt_enable
        0x0001b7dc:    4a14        .J      LDR      r2,[pc,#80] ; [0x1b830] = 0x40020000
        0x0001b7de:    4601        .F      MOV      r1,r0
        0x0001b7e0:    68d2        .h      LDR      r2,[r2,#0xc]
        0x0001b7e2:    b2d2        ..      UXTB     r2,r2
        0x0001b7e4:    2a22        "*      CMP      r2,#0x22
        0x0001b7e6:    bf24        $.      ITT      CS
        0x0001b7e8:    2200        ."      MOVCS    r2,#0
        0x0001b7ea:    4b12        .K      LDRCS    r3,[pc,#72] ; [0x1b834] = 0x100089ec
        0x0001b7ec:    d318        ..      BCC      0x1b820 ; am_hal_timer_interrupt_enable + 68
        0x0001b7ee:    bf00        ..      NOP      
        0x0001b7f0:    f0110f01    ....    TST      r1,#1
        0x0001b7f4:    d006        ..      BEQ      0x1b804 ; am_hal_timer_interrupt_enable + 40
        0x0001b7f6:    eb030c82    ....    ADD      r12,r3,r2,LSL #2
        0x0001b7fa:    f89cc001    ....    LDRB     r12,[r12,#1]
        0x0001b7fe:    f1bc0f00    ....    CMP      r12,#0
        0x0001b802:    d013        ..      BEQ      0x1b82c ; am_hal_timer_interrupt_enable + 80
        0x0001b804:    f0110f02    ....    TST      r1,#2
        0x0001b808:    d006        ..      BEQ      0x1b818 ; am_hal_timer_interrupt_enable + 60
        0x0001b80a:    eb030c82    ....    ADD      r12,r3,r2,LSL #2
        0x0001b80e:    f89cc003    ....    LDRB     r12,[r12,#3]
        0x0001b812:    f1bc0f00    ....    CMP      r12,#0
        0x0001b816:    d009        ..      BEQ      0x1b82c ; am_hal_timer_interrupt_enable + 80
        0x0001b818:    0889        ..      LSRS     r1,r1,#2
        0x0001b81a:    1c52        R.      ADDS     r2,r2,#1
        0x0001b81c:    2a10        .*      CMP      r2,#0x10
        0x0001b81e:    d3e7        ..      BCC      0x1b7f0 ; am_hal_timer_interrupt_enable + 20
        0x0001b820:    4905        .I      LDR      r1,[pc,#20] ; [0x1b838] = 0x40008000
        0x0001b822:    6e0a        .n      LDR      r2,[r1,#0x60]
        0x0001b824:    4310        .C      ORRS     r0,r0,r2
        0x0001b826:    6608        .f      STR      r0,[r1,#0x60]
        0x0001b828:    2000        .       MOVS     r0,#0
        0x0001b82a:    4770        pG      BX       lr
        0x0001b82c:    2006        .       MOVS     r0,#6
        0x0001b82e:    4770        pG      BX       lr
    $d
        0x0001b830:    40020000    ...@    DCD    1073872896
        0x0001b834:    100089ec    ....    DCD    268470764
        0x0001b838:    40008000    ...@    DCD    1073774592
    $t
    i.am_hal_timer_interrupt_status_get
    am_hal_timer_interrupt_status_get
        0x0001b83c:    4a04        .J      LDR      r2,[pc,#16] ; [0x1b850] = 0x40008000
        0x0001b83e:    2800        .(      CMP      r0,#0
        0x0001b840:    6e50        Pn      LDR      r0,[r2,#0x64]
        0x0001b842:    bf1c        ..      ITT      NE
        0x0001b844:    6e12        .n      LDRNE    r2,[r2,#0x60]
        0x0001b846:    4010        .@      ANDNE    r0,r0,r2
        0x0001b848:    6008        .`      STR      r0,[r1,#0]
        0x0001b84a:    2000        .       MOVS     r0,#0
        0x0001b84c:    4770        pG      BX       lr
    $d
        0x0001b84e:    0000        ..      DCW    0
        0x0001b850:    40008000    ...@    DCD    1073774592
    $t
    i.am_hal_timer_start
    am_hal_timer_start
        0x0001b854:    b538        8.      PUSH     {r3-r5,lr}
        0x0001b856:    4604        .F      MOV      r4,r0
        0x0001b858:    f7fcfd82    ....    BL       am_hal_interrupt_master_disable ; 0x18360
        0x0001b85c:    490d        .I      LDR      r1,[pc,#52] ; [0x1b894] = 0x40008000
        0x0001b85e:    9000        ..      STR      r0,[sp,#0]
        0x0001b860:    f8d12104    ...!    LDR      r2,[r1,#0x104]
        0x0001b864:    2001        .       MOVS     r0,#1
        0x0001b866:    40a0        .@      LSLS     r0,r0,r4
        0x0001b868:    4382        .C      BICS     r2,r2,r0
        0x0001b86a:    f8c12104    ...!    STR      r2,[r1,#0x104]
        0x0001b86e:    0162        b.      LSLS     r2,r4,#5
        0x0001b870:    440a        .D      ADD      r2,r2,r1
        0x0001b872:    f8d23200    ...2    LDR      r3,[r2,#0x200]
        0x0001b876:    f0430301    C...    ORR      r3,r3,#1
        0x0001b87a:    f8c23200    ...2    STR      r3,[r2,#0x200]
        0x0001b87e:    f8d12104    ...!    LDR      r2,[r1,#0x104]
        0x0001b882:    4310        .C      ORRS     r0,r0,r2
        0x0001b884:    f8c10104    ....    STR      r0,[r1,#0x104]
        0x0001b888:    9800        ..      LDR      r0,[sp,#0]
        0x0001b88a:    f7fcfd6d    ..m.    BL       am_hal_interrupt_master_set ; 0x18368
        0x0001b88e:    2000        .       MOVS     r0,#0
        0x0001b890:    bd38        8.      POP      {r3-r5,pc}
    $d
        0x0001b892:    0000        ..      DCW    0
        0x0001b894:    40008000    ...@    DCD    1073774592
    $t
    i.am_hal_timer_stop
    am_hal_timer_stop
        0x0001b898:    b538        8.      PUSH     {r3-r5,lr}
        0x0001b89a:    4604        .F      MOV      r4,r0
        0x0001b89c:    f7fcfd60    ..`.    BL       am_hal_interrupt_master_disable ; 0x18360
        0x0001b8a0:    9000        ..      STR      r0,[sp,#0]
        0x0001b8a2:    480c        .H      LDR      r0,[pc,#48] ; [0x1b8d4] = 0x40008000
        0x0001b8a4:    f8d01104    ....    LDR      r1,[r0,#0x104]
        0x0001b8a8:    2201        ."      MOVS     r2,#1
        0x0001b8aa:    40a2        .@      LSLS     r2,r2,r4
        0x0001b8ac:    4391        .C      BICS     r1,r1,r2
        0x0001b8ae:    f8c01104    ....    STR      r1,[r0,#0x104]
        0x0001b8b2:    0160        `.      LSLS     r0,r4,#5
        0x0001b8b4:    f1004080    ...@    ADD      r0,r0,#0x40000000
        0x0001b8b8:    f5004000    ...@    ADD      r0,r0,#0x8000
        0x0001b8bc:    f8d01200    ....    LDR      r1,[r0,#0x200]
        0x0001b8c0:    f0210101    !...    BIC      r1,r1,#1
        0x0001b8c4:    f8c01200    ....    STR      r1,[r0,#0x200]
        0x0001b8c8:    9800        ..      LDR      r0,[sp,#0]
        0x0001b8ca:    f7fcfd4d    ..M.    BL       am_hal_interrupt_master_set ; 0x18368
        0x0001b8ce:    2000        .       MOVS     r0,#0
        0x0001b8d0:    bd38        8.      POP      {r3-r5,pc}
    $d
        0x0001b8d2:    0000        ..      DCW    0
        0x0001b8d4:    40008000    ...@    DCD    1073774592
    $t
    i.am_hal_tpiu_enable
    am_hal_tpiu_enable
        0x0001b8d8:    480e        .H      LDR      r0,[pc,#56] ; [0x1b914] = 0xe0040000
        0x0001b8da:    2100        .!      MOVS     r1,#0
        0x0001b8dc:    f8c01304    ....    STR      r1,[r0,#0x304]
        0x0001b8e0:    2201        ."      MOVS     r2,#1
        0x0001b8e2:    6042        B`      STR      r2,[r0,#4]
        0x0001b8e4:    2217        ."      MOVS     r2,#0x17
        0x0001b8e6:    6102        .a      STR      r2,[r0,#0x10]
        0x0001b8e8:    2202        ."      MOVS     r2,#2
        0x0001b8ea:    f8c020f0    ...     STR      r2,[r0,#0xf0]
        0x0001b8ee:    480a        .H      LDR      r0,[pc,#40] ; [0x1b918] = 0xe0040f00
        0x0001b8f0:    6001        .`      STR      r1,[r0,#0]
        0x0001b8f2:    480a        .H      LDR      r0,[pc,#40] ; [0x1b91c] = 0x40020000
        0x0001b8f4:    f8d01250    ..P.    LDR      r1,[r0,#0x250]
        0x0001b8f8:    f021010e    !...    BIC      r1,r1,#0xe
        0x0001b8fc:    1c89        ..      ADDS     r1,r1,#2
        0x0001b8fe:    f8c01250    ..P.    STR      r1,[r0,#0x250]
        0x0001b902:    f8d01250    ..P.    LDR      r1,[r0,#0x250]
        0x0001b906:    f0410101    A...    ORR      r1,r1,#1
        0x0001b90a:    f8c01250    ..P.    STR      r1,[r0,#0x250]
        0x0001b90e:    2032        2       MOVS     r0,#0x32
        0x0001b910:    f7fdbef8    ....    B        am_hal_delay_us ; 0x19704
    $d
        0x0001b914:    e0040000    ....    DCD    3758358528
        0x0001b918:    e0040f00    ....    DCD    3758362368
        0x0001b91c:    40020000    ...@    DCD    1073872896
    $t
    i.am_hal_util_write_and_wait
    am_hal_util_write_and_wait
        0x0001b920:    e92d4fff    -..O    PUSH     {r0-r11,lr}
        0x0001b924:    b089        ..      SUB      sp,sp,#0x24
        0x0001b926:    4f46        FO      LDR      r7,[pc,#280] ; [0x1ba40] = 0x10000148
        0x0001b928:    2000        .       MOVS     r0,#0
        0x0001b92a:    9000        ..      STR      r0,[sp,#0]
        0x0001b92c:    6978        xi      LDR      r0,[r7,#0x14]
        0x0001b92e:    f8dfb114    ....    LDR      r11,[pc,#276] ; [0x1ba44] = 0xe000e008
        0x0001b932:    4615        .F      MOV      r5,r2
        0x0001b934:    460e        .F      MOV      r6,r1
        0x0001b936:    f44f3a80    O..:    MOV      r10,#0x10000
        0x0001b93a:    f04f0801    O...    MOV      r8,#1
        0x0001b93e:    4283        .B      CMP      r3,r0
        0x0001b940:    d038        8.      BEQ      0x1b9b4 ; am_hal_util_write_and_wait + 148
        0x0001b942:    461c        .F      MOV      r4,r3
        0x0001b944:    a802        ..      ADD      r0,sp,#8
        0x0001b946:    f7ffff2b    ..+.    BL       am_hal_timer_default_config_set ; 0x1b7a0
        0x0001b94a:    f04f30ff    O..0    MOV      r0,#0xffffffff
        0x0001b94e:    f04f0900    O...    MOV      r9,#0
        0x0001b952:    e9cd9004    ....    STRD     r9,r0,[sp,#0x10]
        0x0001b956:    483c        <H      LDR      r0,[pc,#240] ; [0x1ba48] = 0x5b8d80
        0x0001b958:    493c        <I      LDR      r1,[pc,#240] ; [0x1ba4c] = 0xf4240
        0x0001b95a:    4360        `C      MULS     r0,r4,r0
        0x0001b95c:    fbb0f0f1    ....    UDIV     r0,r0,r1
        0x0001b960:    9006        ..      STR      r0,[sp,#0x18]
        0x0001b962:    f88d8009    ....    STRB     r8,[sp,#9]
        0x0001b966:    a902        ..      ADD      r1,sp,#8
        0x0001b968:    200d        .       MOVS     r0,#0xd
        0x0001b96a:    f000fd63    ..c.    BL       internal_timer_config ; 0x1c434
        0x0001b96e:    2800        .(      CMP      r0,#0
        0x0001b970:    bf1c        ..      ITT      NE
        0x0001b972:    b00d        ..      ADDNE    sp,sp,#0x34
        0x0001b974:    e8bd8ff0    ....    POPNE    {r4-r11,pc}
        0x0001b978:    200d        .       MOVS     r0,#0xd
        0x0001b97a:    f7fffedb    ....    BL       am_hal_timer_clear ; 0x1b734
        0x0001b97e:    200d        .       MOVS     r0,#0xd
        0x0001b980:    f7ffff8a    ....    BL       am_hal_timer_stop ; 0x1b898
        0x0001b984:    f04f6000    O..`    MOV      r0,#0x8000000
        0x0001b988:    f7ffff18    ....    BL       am_hal_timer_interrupt_clear ; 0x1b7bc
        0x0001b98c:    2800        .(      CMP      r0,#0
        0x0001b98e:    bf1c        ..      ITT      NE
        0x0001b990:    b00d        ..      ADDNE    sp,sp,#0x34
        0x0001b992:    e8bd8ff0    ....    POPNE    {r4-r11,pc}
        0x0001b996:    f04f6000    O..`    MOV      r0,#0x8000000
        0x0001b99a:    f7ffff1f    ....    BL       am_hal_timer_interrupt_enable ; 0x1b7dc
        0x0001b99e:    2800        .(      CMP      r0,#0
        0x0001b9a0:    bf1c        ..      ITT      NE
        0x0001b9a2:    b00d        ..      ADDNE    sp,sp,#0x34
        0x0001b9a4:    e8bd8ff0    ....    POPNE    {r4-r11,pc}
        0x0001b9a8:    4829        )H      LDR      r0,[pc,#164] ; [0x1ba50] = 0xe000e050
        0x0001b9aa:    f8809400    ....    STRB     r9,[r0,#0x400]
        0x0001b9ae:    f8cba100    ....    STR      r10,[r11,#0x100]
        0x0001b9b2:    617c        |a      STR      r4,[r7,#0x14]
        0x0001b9b4:    4827        'H      LDR      r0,[pc,#156] ; [0x1ba54] = 0xe000ed0c
        0x0001b9b6:    6800        .h      LDR      r0,[r0,#0]
        0x0001b9b8:    f3c02902    ...)    UBFX     r9,r0,#8,#3
        0x0001b9bc:    f1b90f07    ....    CMP      r9,#7
        0x0001b9c0:    bf02        ..      ITTT     EQ
        0x0001b9c2:    2001        .       MOVEQ    r0,#1
        0x0001b9c4:    b00d        ..      ADDEQ    sp,sp,#0x34
        0x0001b9c6:    e8bd8ff0    ....    POPEQ    {r4-r11,pc}
        0x0001b9ca:    f7fcfcc9    ....    BL       am_hal_interrupt_master_disable ; 0x18360
        0x0001b9ce:    f3ef8411    ....    MRS      r4,BASEPRI
        0x0001b9d2:    9002        ..      STR      r0,[sp,#8]
        0x0001b9d4:    f1b90f05    ....    CMP      r9,#5
        0x0001b9d8:    bf23        #.      ITTTE    CS
        0x0001b9da:    f1090001    ....    ADDCS    r0,r9,#1
        0x0001b9de:    fa08f000    ....    LSLCS    r0,r8,r0
        0x0001b9e2:    b2c0        ..      UXTBCS   r0,r0
        0x0001b9e4:    2020                MOVCC    r0,#0x20
        0x0001b9e6:    f3808811    ....    MSR      BASEPRI,r0
        0x0001b9ea:    f1b63fff    ...?    CMP      r6,#0xffffffff
        0x0001b9ee:    d003        ..      BEQ      0x1b9f8 ; am_hal_util_write_and_wait + 216
        0x0001b9f0:    9809        ..      LDR      r0,[sp,#0x24]
        0x0001b9f2:    6800        .h      LDR      r0,[r0,#0]
        0x0001b9f4:    43b0        .C      BICS     r0,r0,r6
        0x0001b9f6:    4305        .C      ORRS     r5,r5,r0
        0x0001b9f8:    200d        .       MOVS     r0,#0xd
        0x0001b9fa:    f7fffe9b    ....    BL       am_hal_timer_clear ; 0x1b734
        0x0001b9fe:    4816        .H      LDR      r0,[pc,#88] ; [0x1ba58] = 0xe000ed10
        0x0001ba00:    6801        .h      LDR      r1,[r0,#0]
        0x0001ba02:    f0210104    !...    BIC      r1,r1,#4
        0x0001ba06:    6001        .`      STR      r1,[r0,#0]
        0x0001ba08:    69ba        .i      LDR      r2,[r7,#0x18]
        0x0001ba0a:    4628        (F      MOV      r0,r5
        0x0001ba0c:    9909        ..      LDR      r1,[sp,#0x24]
        0x0001ba0e:    4790        .G      BLX      r2
        0x0001ba10:    200d        .       MOVS     r0,#0xd
        0x0001ba12:    f7ffff41    ..A.    BL       am_hal_timer_stop ; 0x1b898
        0x0001ba16:    f04f6000    O..`    MOV      r0,#0x8000000
        0x0001ba1a:    f7fffecf    ....    BL       am_hal_timer_interrupt_clear ; 0x1b7bc
        0x0001ba1e:    a904        ..      ADD      r1,sp,#0x10
        0x0001ba20:    2000        .       MOVS     r0,#0
        0x0001ba22:    f7ffff0b    ....    BL       am_hal_timer_interrupt_status_get ; 0x1b83c
        0x0001ba26:    f8cba280    ....    STR      r10,[r11,#0x280]
        0x0001ba2a:    b2e0        ..      UXTB     r0,r4
        0x0001ba2c:    f3808811    ....    MSR      BASEPRI,r0
        0x0001ba30:    9802        ..      LDR      r0,[sp,#8]
        0x0001ba32:    f7fcfc99    ....    BL       am_hal_interrupt_master_set ; 0x18368
        0x0001ba36:    9800        ..      LDR      r0,[sp,#0]
        0x0001ba38:    b00d        ..      ADD      sp,sp,#0x34
        0x0001ba3a:    e8bd8ff0    ....    POP      {r4-r11,pc}
    $d
        0x0001ba3e:    0000        ..      DCW    0
        0x0001ba40:    10000148    H...    DCD    268435784
        0x0001ba44:    e000e008    ....    DCD    3758153736
        0x0001ba48:    005b8d80    ..[.    DCD    6000000
        0x0001ba4c:    000f4240    @B..    DCD    1000000
        0x0001ba50:    e000e050    P...    DCD    3758153808
        0x0001ba54:    e000ed0c    ....    DCD    3758157068
        0x0001ba58:    e000ed10    ....    DCD    3758157072
    $t
    i.am_iomaster0_isr
    am_iomaster0_isr
        0x0001ba5c:    b508        ..      PUSH     {r3,lr}
        0x0001ba5e:    466a        jF      MOV      r2,sp
        0x0001ba60:    2101        .!      MOVS     r1,#1
        0x0001ba62:    4809        .H      LDR      r0,[pc,#36] ; [0x1ba88] = 0x10000008
        0x0001ba64:    6800        .h      LDR      r0,[r0,#0]
        0x0001ba66:    f7fff8f1    ....    BL       am_hal_iom_interrupt_status_get ; 0x1ac4c
        0x0001ba6a:    b958        X.      CBNZ     r0,0x1ba84 ; am_iomaster0_isr + 40
        0x0001ba6c:    9800        ..      LDR      r0,[sp,#0]
        0x0001ba6e:    b148        H.      CBZ      r0,0x1ba84 ; am_iomaster0_isr + 40
        0x0001ba70:    4805        .H      LDR      r0,[pc,#20] ; [0x1ba88] = 0x10000008
        0x0001ba72:    9900        ..      LDR      r1,[sp,#0]
        0x0001ba74:    6800        .h      LDR      r0,[r0,#0]
        0x0001ba76:    f7feff4d    ..M.    BL       am_hal_iom_interrupt_clear ; 0x1a914
        0x0001ba7a:    4803        .H      LDR      r0,[pc,#12] ; [0x1ba88] = 0x10000008
        0x0001ba7c:    9900        ..      LDR      r1,[sp,#0]
        0x0001ba7e:    6800        .h      LDR      r0,[r0,#0]
        0x0001ba80:    f7feff62    ..b.    BL       am_hal_iom_interrupt_service ; 0x1a948
        0x0001ba84:    bd08        ..      POP      {r3,pc}
    $d
        0x0001ba86:    0000        ..      DCW    0
        0x0001ba88:    10000008    ....    DCD    268435464
    $t
    i.am_util_delay_us
    am_util_delay_us
        0x0001ba8c:    b510        ..      PUSH     {r4,lr}
        0x0001ba8e:    4604        .F      MOV      r4,r0
        0x0001ba90:    4620         F      MOV      r0,r4
        0x0001ba92:    f7fdfe37    ..7.    BL       am_hal_delay_us ; 0x19704
        0x0001ba96:    bd10        ..      POP      {r4,pc}
    i.am_util_faultisr_collect_data
    am_util_faultisr_collect_data
        0x0001ba98:    b092        ..      SUB      sp,sp,#0x48
        0x0001ba9a:    4604        .F      MOV      r4,r0
        0x0001ba9c:    2118        .!      MOVS     r1,#0x18
        0x0001ba9e:    4668        hF      MOV      r0,sp
        0x0001baa0:    f7fcfcca    ....    BL       __aeabi_memclr4 ; 0x18438
        0x0001baa4:    2500        .%      MOVS     r5,#0
        0x0001baa6:    9510        ..      STR      r5,[sp,#0x40]
        0x0001baa8:    4828        (H      LDR      r0,[pc,#160] ; [0x1bb4c] = 0xe000ed28
        0x0001baaa:    6800        .h      LDR      r0,[r0,#0]
        0x0001baac:    9010        ..      STR      r0,[sp,#0x40]
        0x0001baae:    9810        ..      LDR      r0,[sp,#0x40]
        0x0001bab0:    b2c0        ..      UXTB     r0,r0
        0x0001bab2:    f88d0044    ..D.    STRB     r0,[sp,#0x44]
        0x0001bab6:    9810        ..      LDR      r0,[sp,#0x40]
        0x0001bab8:    0a00        ..      LSRS     r0,r0,#8
        0x0001baba:    f88d0045    ..E.    STRB     r0,[sp,#0x45]
        0x0001babe:    9810        ..      LDR      r0,[sp,#0x40]
        0x0001bac0:    f64f71ff    O..q    MOV      r1,#0xffff
        0x0001bac4:    ea014010    ...@    AND      r0,r1,r0,LSR #16
        0x0001bac8:    f8ad0046    ..F.    STRH     r0,[sp,#0x46]
        0x0001bacc:    481f        .H      LDR      r0,[pc,#124] ; [0x1bb4c] = 0xe000ed28
        0x0001bace:    3010        .0      ADDS     r0,r0,#0x10
        0x0001bad0:    6800        .h      LDR      r0,[r0,#0]
        0x0001bad2:    900f        ..      STR      r0,[sp,#0x3c]
        0x0001bad4:    f89d0045    ..E.    LDRB     r0,[sp,#0x45]
        0x0001bad8:    f0000002    ....    AND      r0,r0,#2
        0x0001badc:    b120         .      CBZ      r0,0x1bae8 ; am_util_faultisr_collect_data + 80
        0x0001bade:    4621        !F      MOV      r1,r4
        0x0001bae0:    2006        .       MOVS     r0,#6
        0x0001bae2:    f7fcfc34    ..4.    BL       getStackedReg ; 0x1834e
        0x0001bae6:    e001        ..      B        0x1baec ; am_util_faultisr_collect_data + 84
        0x0001bae8:    f04f30ff    O..0    MOV      r0,#0xffffffff
        0x0001baec:    900e        ..      STR      r0,[sp,#0x38]
        0x0001baee:    4621        !F      MOV      r1,r4
        0x0001baf0:    2000        .       MOVS     r0,#0
        0x0001baf2:    f7fcfc2c    ..,.    BL       getStackedReg ; 0x1834e
        0x0001baf6:    9006        ..      STR      r0,[sp,#0x18]
        0x0001baf8:    4621        !F      MOV      r1,r4
        0x0001bafa:    2001        .       MOVS     r0,#1
        0x0001bafc:    f7fcfc27    ..'.    BL       getStackedReg ; 0x1834e
        0x0001bb00:    9007        ..      STR      r0,[sp,#0x1c]
        0x0001bb02:    4621        !F      MOV      r1,r4
        0x0001bb04:    2002        .       MOVS     r0,#2
        0x0001bb06:    f7fcfc22    ..".    BL       getStackedReg ; 0x1834e
        0x0001bb0a:    9008        ..      STR      r0,[sp,#0x20]
        0x0001bb0c:    4621        !F      MOV      r1,r4
        0x0001bb0e:    2003        .       MOVS     r0,#3
        0x0001bb10:    f7fcfc1d    ....    BL       getStackedReg ; 0x1834e
        0x0001bb14:    9009        ..      STR      r0,[sp,#0x24]
        0x0001bb16:    4621        !F      MOV      r1,r4
        0x0001bb18:    2004        .       MOVS     r0,#4
        0x0001bb1a:    f7fcfc18    ....    BL       getStackedReg ; 0x1834e
        0x0001bb1e:    900a        ..      STR      r0,[sp,#0x28]
        0x0001bb20:    4621        !F      MOV      r1,r4
        0x0001bb22:    2005        .       MOVS     r0,#5
        0x0001bb24:    f7fcfc13    ....    BL       getStackedReg ; 0x1834e
        0x0001bb28:    900b        ..      STR      r0,[sp,#0x2c]
        0x0001bb2a:    4621        !F      MOV      r1,r4
        0x0001bb2c:    2006        .       MOVS     r0,#6
        0x0001bb2e:    f7fcfc0e    ....    BL       getStackedReg ; 0x1834e
        0x0001bb32:    900c        ..      STR      r0,[sp,#0x30]
        0x0001bb34:    4621        !F      MOV      r1,r4
        0x0001bb36:    2007        .       MOVS     r0,#7
        0x0001bb38:    f7fcfc09    ....    BL       getStackedReg ; 0x1834e
        0x0001bb3c:    900d        ..      STR      r0,[sp,#0x34]
        0x0001bb3e:    4668        hF      MOV      r0,sp
        0x0001bb40:    f7fdfe5d    ..].    BL       am_hal_fault_status_get ; 0x197fe
        0x0001bb44:    bf00        ..      NOP      
        0x0001bb46:    bf00        ..      NOP      
        0x0001bb48:    e7fe        ..      B        0x1bb48 ; am_util_faultisr_collect_data + 176
    $d
        0x0001bb4a:    0000        ..      DCW    0
        0x0001bb4c:    e000ed28    (...    DCD    3758157096
    $t
    i.am_util_stdio_printf
    am_util_stdio_printf
        0x0001bb50:    b40f        ..      PUSH     {r0-r3}
        0x0001bb52:    b538        8.      PUSH     {r3-r5,lr}
        0x0001bb54:    480b        .H      LDR      r0,[pc,#44] ; [0x1bb84] = 0x10000050
        0x0001bb56:    6800        .h      LDR      r0,[r0,#0]
        0x0001bb58:    b918        ..      CBNZ     r0,0x1bb62 ; am_util_stdio_printf + 18
        0x0001bb5a:    2000        .       MOVS     r0,#0
        0x0001bb5c:    bc38        8.      POP      {r3-r5}
        0x0001bb5e:    f85dfb14    ]...    LDR      pc,[sp],#0x14
        0x0001bb62:    a805        ..      ADD      r0,sp,#0x14
        0x0001bb64:    9000        ..      STR      r0,[sp,#0]
        0x0001bb66:    4808        .H      LDR      r0,[pc,#32] ; [0x1bb88] = 0x100043cc
        0x0001bb68:    9a00        ..      LDR      r2,[sp,#0]
        0x0001bb6a:    9904        ..      LDR      r1,[sp,#0x10]
        0x0001bb6c:    f000f824    ..$.    BL       am_util_stdio_vsprintf ; 0x1bbb8
        0x0001bb70:    4604        .F      MOV      r4,r0
        0x0001bb72:    2000        .       MOVS     r0,#0
        0x0001bb74:    9000        ..      STR      r0,[sp,#0]
        0x0001bb76:    4804        .H      LDR      r0,[pc,#16] ; [0x1bb88] = 0x100043cc
        0x0001bb78:    4902        .I      LDR      r1,[pc,#8] ; [0x1bb84] = 0x10000050
        0x0001bb7a:    6809        .h      LDR      r1,[r1,#0]
        0x0001bb7c:    4788        .G      BLX      r1
        0x0001bb7e:    4620         F      MOV      r0,r4
        0x0001bb80:    e7ec        ..      B        0x1bb5c ; am_util_stdio_printf + 12
    $d
        0x0001bb82:    0000        ..      DCW    0
        0x0001bb84:    10000050    P...    DCD    268435536
        0x0001bb88:    100043cc    .C..    DCD    268452812
    $t
    i.am_util_stdio_printf_init
    am_util_stdio_printf_init
        0x0001bb8c:    4901        .I      LDR      r1,[pc,#4] ; [0x1bb94] = 0x10000050
        0x0001bb8e:    6008        .`      STR      r0,[r1,#0]
        0x0001bb90:    4770        pG      BX       lr
    $d
        0x0001bb92:    0000        ..      DCW    0
        0x0001bb94:    10000050    P...    DCD    268435536
    $t
    i.am_util_stdio_terminal_clear
    am_util_stdio_terminal_clear
        0x0001bb98:    b510        ..      PUSH     {r4,lr}
        0x0001bb9a:    a002        ..      ADR      r0,{pc}+0xa ; 0x1bba4
        0x0001bb9c:    f7ffffd8    ....    BL       am_util_stdio_printf ; 0x1bb50
        0x0001bba0:    bd10        ..      POP      {r4,pc}
    $d
        0x0001bba2:    0000        ..      DCW    0
        0x0001bba4:    0a0a0a0a    ....    DCD    168430090
        0x0001bba8:    0a0a0a0a    ....    DCD    168430090
        0x0001bbac:    0a0a0a0a    ....    DCD    168430090
        0x0001bbb0:    0a0a0a0a    ....    DCD    168430090
        0x0001bbb4:    00000a0a    ....    DCD    2570
    $t
    i.am_util_stdio_vsprintf
    am_util_stdio_vsprintf
        0x0001bbb8:    e92d4ff7    -..O    PUSH     {r0-r2,r4-r11,lr}
        0x0001bbbc:    ed2d8b02    -...    VPUSH    {d8}
        0x0001bbc0:    b08a        ..      SUB      sp,sp,#0x28
        0x0001bbc2:    4604        .F      MOV      r4,r0
        0x0001bbc4:    460d        .F      MOV      r5,r1
        0x0001bbc6:    f04f0900    O...    MOV      r9,#0
        0x0001bbca:    2000        .       MOVS     r0,#0
        0x0001bbcc:    9000        ..      STR      r0,[sp,#0]
        0x0001bbce:    e1b9        ..      B        0x1bf44 ; am_util_stdio_vsprintf + 908
        0x0001bbd0:    2006        .       MOVS     r0,#6
        0x0001bbd2:    9006        ..      STR      r0,[sp,#0x18]
        0x0001bbd4:    7828        (x      LDRB     r0,[r5,#0]
        0x0001bbd6:    2825        %(      CMP      r0,#0x25
        0x0001bbd8:    d012        ..      BEQ      0x1bc00 ; am_util_stdio_vsprintf + 72
        0x0001bbda:    b16c        l.      CBZ      r4,0x1bbf8 ; am_util_stdio_vsprintf + 64
        0x0001bbdc:    7828        (x      LDRB     r0,[r5,#0]
        0x0001bbde:    280a        .(      CMP      r0,#0xa
        0x0001bbe0:    d107        ..      BNE      0x1bbf2 ; am_util_stdio_vsprintf + 58
        0x0001bbe2:    48de        .H      LDR      r0,[pc,#888] ; [0x1bf5c] = 0x10000054
        0x0001bbe4:    7800        .x      LDRB     r0,[r0,#0]
        0x0001bbe6:    b120         .      CBZ      r0,0x1bbf2 ; am_util_stdio_vsprintf + 58
        0x0001bbe8:    200d        .       MOVS     r0,#0xd
        0x0001bbea:    f8040b01    ....    STRB     r0,[r4],#1
        0x0001bbee:    f1090901    ....    ADD      r9,r9,#1
        0x0001bbf2:    7828        (x      LDRB     r0,[r5,#0]
        0x0001bbf4:    f8040b01    ....    STRB     r0,[r4],#1
        0x0001bbf8:    1c6d        m.      ADDS     r5,r5,#1
        0x0001bbfa:    f1090901    ....    ADD      r9,r9,#1
        0x0001bbfe:    e1a1        ..      B        0x1bf44 ; am_util_stdio_vsprintf + 908
        0x0001bc00:    1c6d        m.      ADDS     r5,r5,#1
        0x0001bc02:    2000        .       MOVS     r0,#0
        0x0001bc04:    9002        ..      STR      r0,[sp,#8]
        0x0001bc06:    9003        ..      STR      r0,[sp,#0xc]
        0x0001bc08:    2020                MOVS     r0,#0x20
        0x0001bc0a:    9004        ..      STR      r0,[sp,#0x10]
        0x0001bc0c:    7828        (x      LDRB     r0,[r5,#0]
        0x0001bc0e:    2830        0(      CMP      r0,#0x30
        0x0001bc10:    d101        ..      BNE      0x1bc16 ; am_util_stdio_vsprintf + 94
        0x0001bc12:    9004        ..      STR      r0,[sp,#0x10]
        0x0001bc14:    1c6d        m.      ADDS     r5,r5,#1
        0x0001bc16:    a907        ..      ADD      r1,sp,#0x1c
        0x0001bc18:    4628        (F      MOV      r0,r5
        0x0001bc1a:    f000fa25    ..%.    BL       decstr_to_int ; 0x1c068
        0x0001bc1e:    4606        .F      MOV      r6,r0
        0x0001bc20:    9807        ..      LDR      r0,[sp,#0x1c]
        0x0001bc22:    4405        .D      ADD      r5,r5,r0
        0x0001bc24:    7828        (x      LDRB     r0,[r5,#0]
        0x0001bc26:    2873        s(      CMP      r0,#0x73
        0x0001bc28:    d002        ..      BEQ      0x1bc30 ; am_util_stdio_vsprintf + 120
        0x0001bc2a:    2e00        ..      CMP      r6,#0
        0x0001bc2c:    da00        ..      BGE      0x1bc30 ; am_util_stdio_vsprintf + 120
        0x0001bc2e:    4276        vB      RSBS     r6,r6,#0
        0x0001bc30:    7828        (x      LDRB     r0,[r5,#0]
        0x0001bc32:    282e        .(      CMP      r0,#0x2e
        0x0001bc34:    d107        ..      BNE      0x1bc46 ; am_util_stdio_vsprintf + 142
        0x0001bc36:    1c6d        m.      ADDS     r5,r5,#1
        0x0001bc38:    a907        ..      ADD      r1,sp,#0x1c
        0x0001bc3a:    4628        (F      MOV      r0,r5
        0x0001bc3c:    f000fa14    ....    BL       decstr_to_int ; 0x1c068
        0x0001bc40:    9006        ..      STR      r0,[sp,#0x18]
        0x0001bc42:    9807        ..      LDR      r0,[sp,#0x1c]
        0x0001bc44:    4405        .D      ADD      r5,r5,r0
        0x0001bc46:    7828        (x      LDRB     r0,[r5,#0]
        0x0001bc48:    286c        l(      CMP      r0,#0x6c
        0x0001bc4a:    d106        ..      BNE      0x1bc5a ; am_util_stdio_vsprintf + 162
        0x0001bc4c:    1c6d        m.      ADDS     r5,r5,#1
        0x0001bc4e:    7828        (x      LDRB     r0,[r5,#0]
        0x0001bc50:    286c        l(      CMP      r0,#0x6c
        0x0001bc52:    d102        ..      BNE      0x1bc5a ; am_util_stdio_vsprintf + 162
        0x0001bc54:    1c6d        m.      ADDS     r5,r5,#1
        0x0001bc56:    2001        .       MOVS     r0,#1
        0x0001bc58:    9002        ..      STR      r0,[sp,#8]
        0x0001bc5a:    7828        (x      LDRB     r0,[r5,#0]
        0x0001bc5c:    2866        f(      CMP      r0,#0x66
        0x0001bc5e:    d06f        o.      BEQ      0x1bd40 ; am_util_stdio_vsprintf + 392
        0x0001bc60:    dc08        ..      BGT      0x1bc74 ; am_util_stdio_vsprintf + 188
        0x0001bc62:    2846        F(      CMP      r0,#0x46
        0x0001bc64:    d06d        m.      BEQ      0x1bd42 ; am_util_stdio_vsprintf + 394
        0x0001bc66:    2858        X(      CMP      r0,#0x58
        0x0001bc68:    d05c        \.      BEQ      0x1bd24 ; am_util_stdio_vsprintf + 364
        0x0001bc6a:    2863        c(      CMP      r0,#0x63
        0x0001bc6c:    d00b        ..      BEQ      0x1bc86 ; am_util_stdio_vsprintf + 206
        0x0001bc6e:    2864        d(      CMP      r0,#0x64
        0x0001bc70:    d168        h.      BNE      0x1bd44 ; am_util_stdio_vsprintf + 396
        0x0001bc72:    e0c3        ..      B        0x1bdfc ; am_util_stdio_vsprintf + 580
        0x0001bc74:    2869        i(      CMP      r0,#0x69
        0x0001bc76:    d07d        }.      BEQ      0x1bd74 ; am_util_stdio_vsprintf + 444
        0x0001bc78:    2873        s(      CMP      r0,#0x73
        0x0001bc7a:    d011        ..      BEQ      0x1bca0 ; am_util_stdio_vsprintf + 232
        0x0001bc7c:    2875        u(      CMP      r0,#0x75
        0x0001bc7e:    d07a        z.      BEQ      0x1bd76 ; am_util_stdio_vsprintf + 446
        0x0001bc80:    2878        x(      CMP      r0,#0x78
        0x0001bc82:    d1f5        ..      BNE      0x1bc70 ; am_util_stdio_vsprintf + 184
        0x0001bc84:    e04b        K.      B        0x1bd1e ; am_util_stdio_vsprintf + 358
        0x0001bc86:    980e        ..      LDR      r0,[sp,#0x38]
        0x0001bc88:    f8101b04    ....    LDRB     r1,[r0],#4
        0x0001bc8c:    900e        ..      STR      r0,[sp,#0x38]
        0x0001bc8e:    b2c8        ..      UXTB     r0,r1
        0x0001bc90:    9005        ..      STR      r0,[sp,#0x14]
        0x0001bc92:    b114        ..      CBZ      r4,0x1bc9a ; am_util_stdio_vsprintf + 226
        0x0001bc94:    9805        ..      LDR      r0,[sp,#0x14]
        0x0001bc96:    f8040b01    ....    STRB     r0,[r4],#1
        0x0001bc9a:    f1090901    ....    ADD      r9,r9,#1
        0x0001bc9e:    e14e        N.      B        0x1bf3e ; am_util_stdio_vsprintf + 902
        0x0001bca0:    980e        ..      LDR      r0,[sp,#0x38]
        0x0001bca2:    f850bb04    P...    LDR      r11,[r0],#4
        0x0001bca6:    900e        ..      STR      r0,[sp,#0x38]
        0x0001bca8:    4658        XF      MOV      r0,r11
        0x0001bcaa:    f000ff0d    ....    BL       simple_strlen ; 0x1cac8
        0x0001bcae:    9000        ..      STR      r0,[sp,#0]
        0x0001bcb0:    2e00        ..      CMP      r6,#0
        0x0001bcb2:    dd11        ..      BLE      0x1bcd8 ; am_util_stdio_vsprintf + 288
        0x0001bcb4:    9800        ..      LDR      r0,[sp,#0]
        0x0001bcb6:    42b0        .B      CMP      r0,r6
        0x0001bcb8:    d20e        ..      BCS      0x1bcd8 ; am_util_stdio_vsprintf + 288
        0x0001bcba:    9800        ..      LDR      r0,[sp,#0]
        0x0001bcbc:    1a36        6.      SUBS     r6,r6,r0
        0x0001bcbe:    4632        2F      MOV      r2,r6
        0x0001bcc0:    4620         F      MOV      r0,r4
        0x0001bcc2:    9904        ..      LDR      r1,[sp,#0x10]
        0x0001bcc4:    f000fda3    ....    BL       padbuffer ; 0x1c80e
        0x0001bcc8:    4606        .F      MOV      r6,r0
        0x0001bcca:    b10c        ..      CBZ      r4,0x1bcd0 ; am_util_stdio_vsprintf + 280
        0x0001bccc:    4630        0F      MOV      r0,r6
        0x0001bcce:    e000        ..      B        0x1bcd2 ; am_util_stdio_vsprintf + 282
        0x0001bcd0:    2000        .       MOVS     r0,#0
        0x0001bcd2:    4404        .D      ADD      r4,r4,r0
        0x0001bcd4:    44b1        .D      ADD      r9,r9,r6
        0x0001bcd6:    2600        .&      MOVS     r6,#0
        0x0001bcd8:    e008        ..      B        0x1bcec ; am_util_stdio_vsprintf + 308
        0x0001bcda:    b11c        ..      CBZ      r4,0x1bce4 ; am_util_stdio_vsprintf + 300
        0x0001bcdc:    f89b0000    ....    LDRB     r0,[r11,#0]
        0x0001bce0:    f8040b01    ....    STRB     r0,[r4],#1
        0x0001bce4:    f10b0b01    ....    ADD      r11,r11,#1
        0x0001bce8:    f1090901    ....    ADD      r9,r9,#1
        0x0001bcec:    f89b0000    ....    LDRB     r0,[r11,#0]
        0x0001bcf0:    2800        .(      CMP      r0,#0
        0x0001bcf2:    d1f2        ..      BNE      0x1bcda ; am_util_stdio_vsprintf + 290
        0x0001bcf4:    b196        ..      CBZ      r6,0x1bd1c ; am_util_stdio_vsprintf + 356
        0x0001bcf6:    4276        vB      RSBS     r6,r6,#0
        0x0001bcf8:    9800        ..      LDR      r0,[sp,#0]
        0x0001bcfa:    42b0        .B      CMP      r0,r6
        0x0001bcfc:    d20e        ..      BCS      0x1bd1c ; am_util_stdio_vsprintf + 356
        0x0001bcfe:    9800        ..      LDR      r0,[sp,#0]
        0x0001bd00:    1a36        6.      SUBS     r6,r6,r0
        0x0001bd02:    4632        2F      MOV      r2,r6
        0x0001bd04:    4620         F      MOV      r0,r4
        0x0001bd06:    9904        ..      LDR      r1,[sp,#0x10]
        0x0001bd08:    f000fd81    ....    BL       padbuffer ; 0x1c80e
        0x0001bd0c:    4606        .F      MOV      r6,r0
        0x0001bd0e:    b10c        ..      CBZ      r4,0x1bd14 ; am_util_stdio_vsprintf + 348
        0x0001bd10:    4630        0F      MOV      r0,r6
        0x0001bd12:    e000        ..      B        0x1bd16 ; am_util_stdio_vsprintf + 350
        0x0001bd14:    2000        .       MOVS     r0,#0
        0x0001bd16:    4404        .D      ADD      r4,r4,r0
        0x0001bd18:    44b1        .D      ADD      r9,r9,r6
        0x0001bd1a:    2600        .&      MOVS     r6,#0
        0x0001bd1c:    e10f        ..      B        0x1bf3e ; am_util_stdio_vsprintf + 902
        0x0001bd1e:    2001        .       MOVS     r0,#1
        0x0001bd20:    9003        ..      STR      r0,[sp,#0xc]
        0x0001bd22:    bf00        ..      NOP      
        0x0001bd24:    9802        ..      LDR      r0,[sp,#8]
        0x0001bd26:    b170        p.      CBZ      r0,0x1bd46 ; am_util_stdio_vsprintf + 398
        0x0001bd28:    980e        ..      LDR      r0,[sp,#0x38]
        0x0001bd2a:    1dc0        ..      ADDS     r0,r0,#7
        0x0001bd2c:    f0200007     ...    BIC      r0,r0,#7
        0x0001bd30:    4601        .F      MOV      r1,r0
        0x0001bd32:    900e        ..      STR      r0,[sp,#0x38]
        0x0001bd34:    6800        .h      LDR      r0,[r0,#0]
        0x0001bd36:    6849        Ih      LDR      r1,[r1,#4]
        0x0001bd38:    9a0e        ..      LDR      r2,[sp,#0x38]
        0x0001bd3a:    3208        .2      ADDS     r2,r2,#8
        0x0001bd3c:    920e        ..      STR      r2,[sp,#0x38]
        0x0001bd3e:    e008        ..      B        0x1bd52 ; am_util_stdio_vsprintf + 410
        0x0001bd40:    e0c3        ..      B        0x1beca ; am_util_stdio_vsprintf + 786
        0x0001bd42:    e0c3        ..      B        0x1becc ; am_util_stdio_vsprintf + 788
        0x0001bd44:    e0f4        ..      B        0x1bf30 ; am_util_stdio_vsprintf + 888
        0x0001bd46:    980e        ..      LDR      r0,[sp,#0x38]
        0x0001bd48:    6800        .h      LDR      r0,[r0,#0]
        0x0001bd4a:    990e        ..      LDR      r1,[sp,#0x38]
        0x0001bd4c:    1d09        ..      ADDS     r1,r1,#4
        0x0001bd4e:    910e        ..      STR      r1,[sp,#0x38]
        0x0001bd50:    2100        .!      MOVS     r1,#0
        0x0001bd52:    4607        .F      MOV      r7,r0
        0x0001bd54:    4688        .F      MOV      r8,r1
        0x0001bd56:    b19e        ..      CBZ      r6,0x1bd80 ; am_util_stdio_vsprintf + 456
        0x0001bd58:    4638        8F      MOV      r0,r7
        0x0001bd5a:    4641        AF      MOV      r1,r8
        0x0001bd5c:    f000fd0e    ....    BL       ndigits_in_hex ; 0x1c77c
        0x0001bd60:    1a36        6.      SUBS     r6,r6,r0
        0x0001bd62:    4632        2F      MOV      r2,r6
        0x0001bd64:    4620         F      MOV      r0,r4
        0x0001bd66:    9904        ..      LDR      r1,[sp,#0x10]
        0x0001bd68:    f000fd51    ..Q.    BL       padbuffer ; 0x1c80e
        0x0001bd6c:    4606        .F      MOV      r6,r0
        0x0001bd6e:    b11c        ..      CBZ      r4,0x1bd78 ; am_util_stdio_vsprintf + 448
        0x0001bd70:    4630        0F      MOV      r0,r6
        0x0001bd72:    e002        ..      B        0x1bd7a ; am_util_stdio_vsprintf + 450
        0x0001bd74:    e043        C.      B        0x1bdfe ; am_util_stdio_vsprintf + 582
        0x0001bd76:    e00e        ..      B        0x1bd96 ; am_util_stdio_vsprintf + 478
        0x0001bd78:    2000        .       MOVS     r0,#0
        0x0001bd7a:    4404        .D      ADD      r4,r4,r0
        0x0001bd7c:    44b1        .D      ADD      r9,r9,r6
        0x0001bd7e:    2600        .&      MOVS     r6,#0
        0x0001bd80:    4622        "F      MOV      r2,r4
        0x0001bd82:    4638        8F      MOV      r0,r7
        0x0001bd84:    4641        AF      MOV      r1,r8
        0x0001bd86:    9b03        ..      LDR      r3,[sp,#0xc]
        0x0001bd88:    f001f826    ..&.    BL       uint64_to_hexstr ; 0x1cdd8
        0x0001bd8c:    4682        .F      MOV      r10,r0
        0x0001bd8e:    b104        ..      CBZ      r4,0x1bd92 ; am_util_stdio_vsprintf + 474
        0x0001bd90:    4454        TD      ADD      r4,r4,r10
        0x0001bd92:    44d1        .D      ADD      r9,r9,r10
        0x0001bd94:    e0d3        ..      B        0x1bf3e ; am_util_stdio_vsprintf + 902
        0x0001bd96:    9802        ..      LDR      r0,[sp,#8]
        0x0001bd98:    b158        X.      CBZ      r0,0x1bdb2 ; am_util_stdio_vsprintf + 506
        0x0001bd9a:    980e        ..      LDR      r0,[sp,#0x38]
        0x0001bd9c:    1dc0        ..      ADDS     r0,r0,#7
        0x0001bd9e:    f0200007     ...    BIC      r0,r0,#7
        0x0001bda2:    4601        .F      MOV      r1,r0
        0x0001bda4:    900e        ..      STR      r0,[sp,#0x38]
        0x0001bda6:    6800        .h      LDR      r0,[r0,#0]
        0x0001bda8:    6849        Ih      LDR      r1,[r1,#4]
        0x0001bdaa:    9a0e        ..      LDR      r2,[sp,#0x38]
        0x0001bdac:    3208        .2      ADDS     r2,r2,#8
        0x0001bdae:    920e        ..      STR      r2,[sp,#0x38]
        0x0001bdb0:    e005        ..      B        0x1bdbe ; am_util_stdio_vsprintf + 518
        0x0001bdb2:    980e        ..      LDR      r0,[sp,#0x38]
        0x0001bdb4:    6800        .h      LDR      r0,[r0,#0]
        0x0001bdb6:    990e        ..      LDR      r1,[sp,#0x38]
        0x0001bdb8:    1d09        ..      ADDS     r1,r1,#4
        0x0001bdba:    910e        ..      STR      r1,[sp,#0x38]
        0x0001bdbc:    2100        .!      MOVS     r1,#0
        0x0001bdbe:    4607        .F      MOV      r7,r0
        0x0001bdc0:    4688        .F      MOV      r8,r1
        0x0001bdc2:    b18e        ..      CBZ      r6,0x1bde8 ; am_util_stdio_vsprintf + 560
        0x0001bdc4:    4638        8F      MOV      r0,r7
        0x0001bdc6:    4641        AF      MOV      r1,r8
        0x0001bdc8:    f000fd04    ....    BL       ndigits_in_u64 ; 0x1c7d4
        0x0001bdcc:    1a36        6.      SUBS     r6,r6,r0
        0x0001bdce:    4632        2F      MOV      r2,r6
        0x0001bdd0:    4620         F      MOV      r0,r4
        0x0001bdd2:    9904        ..      LDR      r1,[sp,#0x10]
        0x0001bdd4:    f000fd1b    ....    BL       padbuffer ; 0x1c80e
        0x0001bdd8:    4606        .F      MOV      r6,r0
        0x0001bdda:    b10c        ..      CBZ      r4,0x1bde0 ; am_util_stdio_vsprintf + 552
        0x0001bddc:    4630        0F      MOV      r0,r6
        0x0001bdde:    e000        ..      B        0x1bde2 ; am_util_stdio_vsprintf + 554
        0x0001bde0:    2000        .       MOVS     r0,#0
        0x0001bde2:    4404        .D      ADD      r4,r4,r0
        0x0001bde4:    44b1        .D      ADD      r9,r9,r6
        0x0001bde6:    2600        .&      MOVS     r6,#0
        0x0001bde8:    4622        "F      MOV      r2,r4
        0x0001bdea:    4638        8F      MOV      r0,r7
        0x0001bdec:    4641        AF      MOV      r1,r8
        0x0001bdee:    f001f838    ..8.    BL       uint64_to_str ; 0x1ce62
        0x0001bdf2:    4682        .F      MOV      r10,r0
        0x0001bdf4:    b104        ..      CBZ      r4,0x1bdf8 ; am_util_stdio_vsprintf + 576
        0x0001bdf6:    4454        TD      ADD      r4,r4,r10
        0x0001bdf8:    44d1        .D      ADD      r9,r9,r10
        0x0001bdfa:    e0a0        ..      B        0x1bf3e ; am_util_stdio_vsprintf + 902
        0x0001bdfc:    bf00        ..      NOP      
        0x0001bdfe:    9802        ..      LDR      r0,[sp,#8]
        0x0001be00:    b158        X.      CBZ      r0,0x1be1a ; am_util_stdio_vsprintf + 610
        0x0001be02:    980e        ..      LDR      r0,[sp,#0x38]
        0x0001be04:    1dc0        ..      ADDS     r0,r0,#7
        0x0001be06:    f0200007     ...    BIC      r0,r0,#7
        0x0001be0a:    4601        .F      MOV      r1,r0
        0x0001be0c:    900e        ..      STR      r0,[sp,#0x38]
        0x0001be0e:    6800        .h      LDR      r0,[r0,#0]
        0x0001be10:    6849        Ih      LDR      r1,[r1,#4]
        0x0001be12:    9a0e        ..      LDR      r2,[sp,#0x38]
        0x0001be14:    3208        .2      ADDS     r2,r2,#8
        0x0001be16:    920e        ..      STR      r2,[sp,#0x38]
        0x0001be18:    e005        ..      B        0x1be26 ; am_util_stdio_vsprintf + 622
        0x0001be1a:    980e        ..      LDR      r0,[sp,#0x38]
        0x0001be1c:    6800        .h      LDR      r0,[r0,#0]
        0x0001be1e:    990e        ..      LDR      r1,[sp,#0x38]
        0x0001be20:    1d09        ..      ADDS     r1,r1,#4
        0x0001be22:    910e        ..      STR      r1,[sp,#0x38]
        0x0001be24:    17c1        ..      ASRS     r1,r0,#31
        0x0001be26:    e9cd0108    ....    STRD     r0,r1,[sp,#0x20]
        0x0001be2a:    2300        .#      MOVS     r3,#0
        0x0001be2c:    e9dd0108    ....    LDRD     r0,r1,[sp,#0x20]
        0x0001be30:    1ac0        ..      SUBS     r0,r0,r3
        0x0001be32:    4199        .A      SBCS     r1,r1,r3
        0x0001be34:    da08        ..      BGE      0x1be48 ; am_util_stdio_vsprintf + 656
        0x0001be36:    2200        ."      MOVS     r2,#0
        0x0001be38:    e9dd1008    ....    LDRD     r1,r0,[sp,#0x20]
        0x0001be3c:    424f        OB      RSBS     r7,r1,#0
        0x0001be3e:    eb620800    b...    SBC      r8,r2,r0
        0x0001be42:    2001        .       MOVS     r0,#1
        0x0001be44:    9001        ..      STR      r0,[sp,#4]
        0x0001be46:    e003        ..      B        0x1be50 ; am_util_stdio_vsprintf + 664
        0x0001be48:    e9dd7808    ...x    LDRD     r7,r8,[sp,#0x20]
        0x0001be4c:    2000        .       MOVS     r0,#0
        0x0001be4e:    9001        ..      STR      r0,[sp,#4]
        0x0001be50:    b34e        N.      CBZ      r6,0x1bea6 ; am_util_stdio_vsprintf + 750
        0x0001be52:    4638        8F      MOV      r0,r7
        0x0001be54:    4641        AF      MOV      r1,r8
        0x0001be56:    f000fcab    ....    BL       ndigits_in_i64 ; 0x1c7b0
        0x0001be5a:    1a36        6.      SUBS     r6,r6,r0
        0x0001be5c:    9801        ..      LDR      r0,[sp,#4]
        0x0001be5e:    b148        H.      CBZ      r0,0x1be74 ; am_util_stdio_vsprintf + 700
        0x0001be60:    1e76        v.      SUBS     r6,r6,#1
        0x0001be62:    9804        ..      LDR      r0,[sp,#0x10]
        0x0001be64:    2830        0(      CMP      r0,#0x30
        0x0001be66:    d105        ..      BNE      0x1be74 ; am_util_stdio_vsprintf + 700
        0x0001be68:    b114        ..      CBZ      r4,0x1be70 ; am_util_stdio_vsprintf + 696
        0x0001be6a:    202d        -       MOVS     r0,#0x2d
        0x0001be6c:    f8040b01    ....    STRB     r0,[r4],#1
        0x0001be70:    f1090901    ....    ADD      r9,r9,#1
        0x0001be74:    4632        2F      MOV      r2,r6
        0x0001be76:    4620         F      MOV      r0,r4
        0x0001be78:    9904        ..      LDR      r1,[sp,#0x10]
        0x0001be7a:    f000fcc8    ....    BL       padbuffer ; 0x1c80e
        0x0001be7e:    4606        .F      MOV      r6,r0
        0x0001be80:    b10c        ..      CBZ      r4,0x1be86 ; am_util_stdio_vsprintf + 718
        0x0001be82:    4630        0F      MOV      r0,r6
        0x0001be84:    e000        ..      B        0x1be88 ; am_util_stdio_vsprintf + 720
        0x0001be86:    2000        .       MOVS     r0,#0
        0x0001be88:    4404        .D      ADD      r4,r4,r0
        0x0001be8a:    44b1        .D      ADD      r9,r9,r6
        0x0001be8c:    2600        .&      MOVS     r6,#0
        0x0001be8e:    9801        ..      LDR      r0,[sp,#4]
        0x0001be90:    b188        ..      CBZ      r0,0x1beb6 ; am_util_stdio_vsprintf + 766
        0x0001be92:    9804        ..      LDR      r0,[sp,#0x10]
        0x0001be94:    2820         (      CMP      r0,#0x20
        0x0001be96:    d10e        ..      BNE      0x1beb6 ; am_util_stdio_vsprintf + 766
        0x0001be98:    b114        ..      CBZ      r4,0x1bea0 ; am_util_stdio_vsprintf + 744
        0x0001be9a:    202d        -       MOVS     r0,#0x2d
        0x0001be9c:    f8040b01    ....    STRB     r0,[r4],#1
        0x0001bea0:    f1090901    ....    ADD      r9,r9,#1
        0x0001bea4:    e007        ..      B        0x1beb6 ; am_util_stdio_vsprintf + 766
        0x0001bea6:    9801        ..      LDR      r0,[sp,#4]
        0x0001bea8:    b128        (.      CBZ      r0,0x1beb6 ; am_util_stdio_vsprintf + 766
        0x0001beaa:    b114        ..      CBZ      r4,0x1beb2 ; am_util_stdio_vsprintf + 762
        0x0001beac:    202d        -       MOVS     r0,#0x2d
        0x0001beae:    f8040b01    ....    STRB     r0,[r4],#1
        0x0001beb2:    f1090901    ....    ADD      r9,r9,#1
        0x0001beb6:    4622        "F      MOV      r2,r4
        0x0001beb8:    4638        8F      MOV      r0,r7
        0x0001beba:    4641        AF      MOV      r1,r8
        0x0001bebc:    f000ffd1    ....    BL       uint64_to_str ; 0x1ce62
        0x0001bec0:    4682        .F      MOV      r10,r0
        0x0001bec2:    b104        ..      CBZ      r4,0x1bec6 ; am_util_stdio_vsprintf + 782
        0x0001bec4:    4454        TD      ADD      r4,r4,r10
        0x0001bec6:    44d1        .D      ADD      r9,r9,r10
        0x0001bec8:    e039        9.      B        0x1bf3e ; am_util_stdio_vsprintf + 902
        0x0001beca:    bf00        ..      NOP      
        0x0001becc:    b37c        |.      CBZ      r4,0x1bf2e ; am_util_stdio_vsprintf + 886
        0x0001bece:    980e        ..      LDR      r0,[sp,#0x38]
        0x0001bed0:    1dc0        ..      ADDS     r0,r0,#7
        0x0001bed2:    f0200007     ...    BIC      r0,r0,#7
        0x0001bed6:    900e        ..      STR      r0,[sp,#0x38]
        0x0001bed8:    ecb01b02    ....    VLDM     r0!,{d1}
        0x0001bedc:    eeb00a41    ..A.    VMOV.F32 s0,s2
        0x0001bee0:    eef00a61    ..a.    VMOV.F32 s1,s3
        0x0001bee4:    900e        ..      STR      r0,[sp,#0x38]
        0x0001bee6:    ec510b10    Q...    VMOV     r0,r1,d0
        0x0001beea:    f001f861    ..a.    BL       __aeabi_d2f ; 0x1cfb0
        0x0001beee:    ee080a10    ....    VMOV     s16,r0
        0x0001bef2:    2014        .       MOVS     r0,#0x14
        0x0001bef4:    6020         `      STR      r0,[r4,#0]
        0x0001bef6:    4620         F      MOV      r0,r4
        0x0001bef8:    eeb00a48    ..H.    VMOV.F32 s0,s16
        0x0001befc:    9906        ..      LDR      r1,[sp,#0x18]
        0x0001befe:    f000f93b    ..;.    BL       ftoa ; 0x1c178
        0x0001bf02:    4682        .F      MOV      r10,r0
        0x0001bf04:    f1ba0f00    ....    CMP      r10,#0
        0x0001bf08:    da0e        ..      BGE      0x1bf28 ; am_util_stdio_vsprintf + 880
        0x0001bf0a:    f10a0101    ....    ADD      r1,r10,#1
        0x0001bf0e:    b909        ..      CBNZ     r1,0x1bf14 ; am_util_stdio_vsprintf + 860
        0x0001bf10:    4813        .H      LDR      r0,[pc,#76] ; [0x1bf60] = 0x302e30
        0x0001bf12:    e005        ..      B        0x1bf20 ; am_util_stdio_vsprintf + 872
        0x0001bf14:    f10a0102    ....    ADD      r1,r10,#2
        0x0001bf18:    b909        ..      CBNZ     r1,0x1bf1e ; am_util_stdio_vsprintf + 870
        0x0001bf1a:    4812        .H      LDR      r0,[pc,#72] ; [0x1bf64] = 0x232e23
        0x0001bf1c:    e000        ..      B        0x1bf20 ; am_util_stdio_vsprintf + 872
        0x0001bf1e:    4812        .H      LDR      r0,[pc,#72] ; [0x1bf68] = 0x3f2e3f
        0x0001bf20:    6020         `      STR      r0,[r4,#0]
        0x0001bf22:    f04f0a03    O...    MOV      r10,#3
        0x0001bf26:    bf00        ..      NOP      
        0x0001bf28:    44d1        .D      ADD      r9,r9,r10
        0x0001bf2a:    4454        TD      ADD      r4,r4,r10
        0x0001bf2c:    bf00        ..      NOP      
        0x0001bf2e:    e006        ..      B        0x1bf3e ; am_util_stdio_vsprintf + 902
        0x0001bf30:    b114        ..      CBZ      r4,0x1bf38 ; am_util_stdio_vsprintf + 896
        0x0001bf32:    7828        (x      LDRB     r0,[r5,#0]
        0x0001bf34:    f8040b01    ....    STRB     r0,[r4],#1
        0x0001bf38:    f1090901    ....    ADD      r9,r9,#1
        0x0001bf3c:    bf00        ..      NOP      
        0x0001bf3e:    bf00        ..      NOP      
        0x0001bf40:    1c6d        m.      ADDS     r5,r5,#1
        0x0001bf42:    bf00        ..      NOP      
        0x0001bf44:    7828        (x      LDRB     r0,[r5,#0]
        0x0001bf46:    2800        .(      CMP      r0,#0
        0x0001bf48:    f47fae42    ..B.    BNE      0x1bbd0 ; am_util_stdio_vsprintf + 24
        0x0001bf4c:    b104        ..      CBZ      r4,0x1bf50 ; am_util_stdio_vsprintf + 920
        0x0001bf4e:    7020         p      STRB     r0,[r4,#0]
        0x0001bf50:    4648        HF      MOV      r0,r9
        0x0001bf52:    b00a        ..      ADD      sp,sp,#0x28
        0x0001bf54:    ecbd8b02    ....    VPOP     {d8}
        0x0001bf58:    e8bd8ffe    ....    POP      {r1-r11,pc}
    $d
        0x0001bf5c:    10000054    T...    DCD    268435540
        0x0001bf60:    00302e30    0.0.    DCD    3157552
        0x0001bf64:    00232e23    #.#.    DCD    2305571
        0x0001bf68:    003f2e3f    ?.?.    DCD    4140607
    $t
    i.build_iom_cmd
    build_iom_cmd
        0x0001bf6c:    b5f0        ..      PUSH     {r4-r7,lr}
        0x0001bf6e:    4604        .F      MOV      r4,r0
        0x0001bf70:    e9dd5605    ...V    LDRD     r5,r6,[sp,#0x14]
        0x0001bf74:    2000        .       MOVS     r0,#0
        0x0001bf76:    f44f1740    O.@.    MOV      r7,#0x300000
        0x0001bf7a:    ea075704    ...W    AND      r7,r7,r4,LSL #20
        0x0001bf7e:    4338        8C      ORRS     r0,r0,r7
        0x0001bf80:    4f0c        .O      LDR      r7,[pc,#48] ; [0x1bfb4] = 0xfff00
        0x0001bf82:    ea072706    ...'    AND      r7,r7,r6,LSL #8
        0x0001bf86:    4338        8C      ORRS     r0,r0,r7
        0x0001bf88:    2901        .)      CMP      r1,#1
        0x0001bf8a:    d102        ..      BNE      0x1bf92 ; build_iom_cmd + 38
        0x0001bf8c:    f0400002    @...    ORR      r0,r0,#2
        0x0001bf90:    e001        ..      B        0x1bf96 ; build_iom_cmd + 42
        0x0001bf92:    f0400001    @...    ORR      r0,r0,#1
        0x0001bf96:    2780        .'      MOVS     r7,#0x80
        0x0001bf98:    ea0717c2    ....    AND      r7,r7,r2,LSL #7
        0x0001bf9c:    4338        8C      ORRS     r0,r0,r7
        0x0001bf9e:    f04f477f    O..G    MOV      r7,#0xff000000
        0x0001bfa2:    ea076703    ...g    AND      r7,r7,r3,LSL #24
        0x0001bfa6:    4338        8C      ORRS     r0,r0,r7
        0x0001bfa8:    2770        p'      MOVS     r7,#0x70
        0x0001bfaa:    ea071705    ....    AND      r7,r7,r5,LSL #4
        0x0001bfae:    4338        8C      ORRS     r0,r0,r7
        0x0001bfb0:    bdf0        ..      POP      {r4-r7,pc}
    $d
        0x0001bfb2:    0000        ..      DCW    0
        0x0001bfb4:    000fff00    ....    DCD    1048320
    $t
    i.copy_words
    copy_words
        0x0001bfb8:    b430        0.      PUSH     {r4,r5}
        0x0001bfba:    2301        .#      MOVS     r3,#1
        0x0001bfbc:    f05f0403    _...    MOVS.W   r4,#3
        0x0001bfc0:    f1a20c01    ....    SUB      r12,r2,#1
        0x0001bfc4:    f851502c    Q.,P    LDR      r5,[r1,r12,LSL #2]
        0x0001bfc8:    f840502c    @.,P    STR      r5,[r0,r12,LSL #2]
        0x0001bfcc:    1e92        ..      SUBS     r2,r2,#2
        0x0001bfce:    f851c022    Q.".    LDR      r12,[r1,r2,LSL #2]
        0x0001bfd2:    f840c022    @.".    STR      r12,[r0,r2,LSL #2]
        0x0001bfd6:    1c9b        ..      ADDS     r3,r3,#2
        0x0001bfd8:    42a3        .B      CMP      r3,r4
        0x0001bfda:    dbf1        ..      BLT      0x1bfc0 ; copy_words + 8
        0x0001bfdc:    bc30        0.      POP      {r4,r5}
        0x0001bfde:    4770        pG      BX       lr
    i.create_iom_read_transaction
    create_iom_read_transaction
        0x0001bfe0:    e92d47fc    -..G    PUSH     {r2-r10,lr}
        0x0001bfe4:    4604        .F      MOV      r4,r0
        0x0001bfe6:    460e        .F      MOV      r6,r1
        0x0001bfe8:    4617        .F      MOV      r7,r2
        0x0001bfea:    461d        .F      MOV      r5,r3
        0x0001bfec:    46a1        .F      MOV      r9,r4
        0x0001bfee:    f027407f    '..@    BIC      r0,r7,#0xff000000
        0x0001bff2:    f0406030    @.0`    ORR      r0,r0,#0xb000000
        0x0001bff6:    490a        .I      LDR      r1,[pc,#40] ; [0x1c020] = 0x1000435c
        0x0001bff8:    6048        H`      STR      r0,[r1,#4]
        0x0001bffa:    4608        .F      MOV      r0,r1
        0x0001bffc:    6246        Fb      STR      r6,[r0,#0x24]
        0x0001bffe:    2005        .       MOVS     r0,#5
        0x0001c000:    e9cd0500    ....    STRD     r0,r5,[sp,#0]
        0x0001c004:    2300        .#      MOVS     r3,#0
        0x0001c006:    461a        .F      MOV      r2,r3
        0x0001c008:    2101        .!      MOVS     r1,#1
        0x0001c00a:    f8d90004    ....    LDR      r0,[r9,#4]
        0x0001c00e:    f7ffffad    ....    BL       build_iom_cmd ; 0x1bf6c
        0x0001c012:    4680        .F      MOV      r8,r0
        0x0001c014:    4802        .H      LDR      r0,[pc,#8] ; [0x1c020] = 0x1000435c
        0x0001c016:    61c5        .a      STR      r5,[r0,#0x1c]
        0x0001c018:    f8c08034    ..4.    STR      r8,[r0,#0x34]
        0x0001c01c:    e8bd87fc    ....    POP      {r2-r10,pc}
    $d
        0x0001c020:    1000435c    \C..    DCD    268452700
    $t
    i.create_iom_write_transaction
    create_iom_write_transaction
        0x0001c024:    e92d47fc    -..G    PUSH     {r2-r10,lr}
        0x0001c028:    4604        .F      MOV      r4,r0
        0x0001c02a:    460f        .F      MOV      r7,r1
        0x0001c02c:    4615        .F      MOV      r5,r2
        0x0001c02e:    461e        .F      MOV      r6,r3
        0x0001c030:    46a0        .F      MOV      r8,r4
        0x0001c032:    f3c5200f    ...     UBFX     r0,r5,#8,#16
        0x0001c036:    f4403000    @..0    ORR      r0,r0,#0x20000
        0x0001c03a:    490a        .I      LDR      r1,[pc,#40] ; [0x1c064] = 0x10004394
        0x0001c03c:    6048        H`      STR      r0,[r1,#4]
        0x0001c03e:    4608        .F      MOV      r0,r1
        0x0001c040:    6247        Gb      STR      r7,[r0,#0x24]
        0x0001c042:    2004        .       MOVS     r0,#4
        0x0001c044:    b2eb        ..      UXTB     r3,r5
        0x0001c046:    e9cd0600    ....    STRD     r0,r6,[sp,#0]
        0x0001c04a:    2200        ."      MOVS     r2,#0
        0x0001c04c:    4611        .F      MOV      r1,r2
        0x0001c04e:    f8d80004    ....    LDR      r0,[r8,#4]
        0x0001c052:    f7ffff8b    ....    BL       build_iom_cmd ; 0x1bf6c
        0x0001c056:    4681        .F      MOV      r9,r0
        0x0001c058:    4802        .H      LDR      r0,[pc,#8] ; [0x1c064] = 0x10004394
        0x0001c05a:    61c6        .a      STR      r6,[r0,#0x1c]
        0x0001c05c:    f8c09034    ..4.    STR      r9,[r0,#0x34]
        0x0001c060:    e8bd87fc    ....    POP      {r2-r10,pc}
    $d
        0x0001c064:    10004394    .C..    DCD    268452756
    $t
    i.decstr_to_int
    decstr_to_int
        0x0001c068:    b530        0.      PUSH     {r4,r5,lr}
        0x0001c06a:    4602        .F      MOV      r2,r0
        0x0001c06c:    2500        .%      MOVS     r5,#0
        0x0001c06e:    2300        .#      MOVS     r3,#0
        0x0001c070:    2400        .$      MOVS     r4,#0
        0x0001c072:    7810        .x      LDRB     r0,[r2,#0]
        0x0001c074:    282d        -(      CMP      r0,#0x2d
        0x0001c076:    d102        ..      BNE      0x1c07e ; decstr_to_int + 22
        0x0001c078:    2501        .%      MOVS     r5,#1
        0x0001c07a:    1c52        R.      ADDS     r2,r2,#1
        0x0001c07c:    1c64        d.      ADDS     r4,r4,#1
        0x0001c07e:    e007        ..      B        0x1c090 ; decstr_to_int + 40
        0x0001c080:    1c64        d.      ADDS     r4,r4,#1
        0x0001c082:    eb030083    ....    ADD      r0,r3,r3,LSL #2
        0x0001c086:    0043        C.      LSLS     r3,r0,#1
        0x0001c088:    7810        .x      LDRB     r0,[r2,#0]
        0x0001c08a:    3830        08      SUBS     r0,r0,#0x30
        0x0001c08c:    4403        .D      ADD      r3,r3,r0
        0x0001c08e:    1c52        R.      ADDS     r2,r2,#1
        0x0001c090:    7810        .x      LDRB     r0,[r2,#0]
        0x0001c092:    2830        0(      CMP      r0,#0x30
        0x0001c094:    db02        ..      BLT      0x1c09c ; decstr_to_int + 52
        0x0001c096:    7810        .x      LDRB     r0,[r2,#0]
        0x0001c098:    2839        9(      CMP      r0,#0x39
        0x0001c09a:    ddf1        ..      BLE      0x1c080 ; decstr_to_int + 24
        0x0001c09c:    b101        ..      CBZ      r1,0x1c0a0 ; decstr_to_int + 56
        0x0001c09e:    600c        .`      STR      r4,[r1,#0]
        0x0001c0a0:    b10d        ..      CBZ      r5,0x1c0a6 ; decstr_to_int + 62
        0x0001c0a2:    4258        XB      RSBS     r0,r3,#0
        0x0001c0a4:    bd30        0.      POP      {r4,r5,pc}
        0x0001c0a6:    4618        .F      MOV      r0,r3
        0x0001c0a8:    e7fc        ..      B        0x1c0a4 ; decstr_to_int + 60
    i.divu64_10
    divu64_10
        0x0001c0aa:    e92d4ff0    -..O    PUSH     {r4-r11,lr}
        0x0001c0ae:    4604        .F      MOV      r4,r0
        0x0001c0b0:    460d        .F      MOV      r5,r1
        0x0001c0b2:    2000        .       MOVS     r0,#0
        0x0001c0b4:    ea850100    ....    EOR      r1,r5,r0
        0x0001c0b8:    4040        @@      EORS     r0,r0,r0
        0x0001c0ba:    4301        .C      ORRS     r1,r1,r0
        0x0001c0bc:    d044        D.      BEQ      0x1c148 ; divu64_10 + 158
        0x0001c0be:    ea5f0a55    _.U.    LSRS     r10,r5,#1
        0x0001c0c2:    ea4f0134    O.4.    RRX      r1,r4
        0x0001c0c6:    ea4f0b94    O...    LSR      r11,r4,#2
        0x0001c0ca:    ea4b7085    K..p    ORR      r0,r11,r5,LSL #30
        0x0001c0ce:    180a        ..      ADDS     r2,r1,r0
        0x0001c0d0:    eb4a0395    J...    ADC      r3,r10,r5,LSR #2
        0x0001c0d4:    ea4f1012    O...    LSR      r0,r2,#4
        0x0001c0d8:    ea407a03    @..z    ORR      r10,r0,r3,LSL #28
        0x0001c0dc:    eb1a0202    ....    ADDS     r2,r10,r2
        0x0001c0e0:    eb431313    C...    ADC      r3,r3,r3,LSR #4
        0x0001c0e4:    ea4f2012    O..     LSR      r0,r2,#8
        0x0001c0e8:    ea406a03    @..j    ORR      r10,r0,r3,LSL #24
        0x0001c0ec:    eb1a0202    ....    ADDS     r2,r10,r2
        0x0001c0f0:    eb432313    C..#    ADC      r3,r3,r3,LSR #8
        0x0001c0f4:    ea4f4012    O..@    LSR      r0,r2,#16
        0x0001c0f8:    ea404a03    @..J    ORR      r10,r0,r3,LSL #16
        0x0001c0fc:    eb1a0202    ....    ADDS     r2,r10,r2
        0x0001c100:    eb434313    C..C    ADC      r3,r3,r3,LSR #16
        0x0001c104:    189a        ..      ADDS     r2,r3,r2
        0x0001c106:    f1430300    C...    ADC      r3,r3,#0
        0x0001c10a:    08d0        ..      LSRS     r0,r2,#3
        0x0001c10c:    ea407243    @.Cr    ORR      r2,r0,r3,LSL #29
        0x0001c110:    08db        ..      LSRS     r3,r3,#3
        0x0001c112:    210a        .!      MOVS     r1,#0xa
        0x0001c114:    f04f0a00    O...    MOV      r10,#0
        0x0001c118:    fba20b01    ....    UMULL    r0,r11,r2,r1
        0x0001c11c:    fb03b101    ....    MLA      r1,r3,r1,r11
        0x0001c120:    fb02110a    ....    MLA      r1,r2,r10,r1
        0x0001c124:    1a26        &.      SUBS     r6,r4,r0
        0x0001c126:    eb650701    e...    SBC      r7,r5,r1
        0x0001c12a:    2106        .!      MOVS     r1,#6
        0x0001c12c:    eb160a01    ....    ADDS     r10,r6,r1
        0x0001c130:    f1470100    G...    ADC      r1,r7,#0
        0x0001c134:    ea4f101a    O...    LSR      r0,r10,#4
        0x0001c138:    ea407a01    @..z    ORR      r10,r0,r1,LSL #28
        0x0001c13c:    eb1a0002    ....    ADDS     r0,r10,r2
        0x0001c140:    eb431111    C...    ADC      r1,r3,r1,LSR #4
        0x0001c144:    e8bd8ff0    ....    POP      {r4-r11,pc}
        0x0001c148:    46a0        .F      MOV      r8,r4
        0x0001c14a:    ea4f0058    O.X.    LSR      r0,r8,#1
        0x0001c14e:    eb000c98    ....    ADD      r12,r0,r8,LSR #2
        0x0001c152:    eb0c1c1c    ....    ADD      r12,r12,r12,LSR #4
        0x0001c156:    eb0c2c1c    ...,    ADD      r12,r12,r12,LSR #8
        0x0001c15a:    eb0c4c1c    ...L    ADD      r12,r12,r12,LSR #16
        0x0001c15e:    ea4f0cdc    O...    LSR      r12,r12,#3
        0x0001c162:    eb0c008c    ....    ADD      r0,r12,r12,LSL #2
        0x0001c166:    eba80940    ..@.    SUB      r9,r8,r0,LSL #1
        0x0001c16a:    f1090006    ....    ADD      r0,r9,#6
        0x0001c16e:    eb0c1010    ....    ADD      r0,r12,r0,LSR #4
        0x0001c172:    2100        .!      MOVS     r1,#0
        0x0001c174:    e7e6        ..      B        0x1c144 ; divu64_10 + 154
        0x0001c176:    0000        ..      MOVS     r0,r0
    i.ftoa
    ftoa
        0x0001c178:    e92d4ff3    -..O    PUSH     {r0,r1,r4-r11,lr}
        0x0001c17c:    ed2d0b02    -...    VPUSH    {d0}
        0x0001c180:    ed2d8b02    -...    VPUSH    {d8}
        0x0001c184:    b081        ..      SUB      sp,sp,#4
        0x0001c186:    eeb08a40    ..@.    VMOV.F32 s16,s0
        0x0001c18a:    4604        .F      MOV      r4,r0
        0x0001c18c:    f8d4b000    ....    LDR      r11,[r4,#0]
        0x0001c190:    f1bb0f04    ....    CMP      r11,#4
        0x0001c194:    da07        ..      BGE      0x1c1a6 ; ftoa + 46
        0x0001c196:    f06f0002    o...    MVN      r0,#2
        0x0001c19a:    b001        ..      ADD      sp,sp,#4
        0x0001c19c:    ecbd8b02    ....    VPOP     {d8}
        0x0001c1a0:    b004        ..      ADD      sp,sp,#0x10
        0x0001c1a2:    e8bd8ff0    ....    POP      {r4-r11,pc}
        0x0001c1a6:    eeb58ac0    ....    VCMPE.F32 s16,#0.0
        0x0001c1aa:    eef1fa10    ....    VMRS     APSR_nzcv,FPSCR
        0x0001c1ae:    d103        ..      BNE      0x1c1b8 ; ftoa + 64
        0x0001c1b0:    484e        NH      LDR      r0,[pc,#312] ; [0x1c2ec] = 0x302e30
        0x0001c1b2:    6020         `      STR      r0,[r4,#0]
        0x0001c1b4:    2003        .       MOVS     r0,#3
        0x0001c1b6:    e7f0        ..      B        0x1c19a ; ftoa + 34
        0x0001c1b8:    46a2        .F      MOV      r10,r4
        0x0001c1ba:    ed8d8a00    ....    VSTR     s16,[sp,#0]
        0x0001c1be:    9800        ..      LDR      r0,[sp,#0]
        0x0001c1c0:    f3c050c7    ...P    UBFX     r0,r0,#23,#8
        0x0001c1c4:    f1a0057f    ....    SUB      r5,r0,#0x7f
        0x0001c1c8:    9800        ..      LDR      r0,[sp,#0]
        0x0001c1ca:    f020407f     ..@    BIC      r0,r0,#0xff000000
        0x0001c1ce:    f4400900    @...    ORR      r9,r0,#0x800000
        0x0001c1d2:    f04f0800    O...    MOV      r8,#0
        0x0001c1d6:    2700        .'      MOVS     r7,#0
        0x0001c1d8:    2d1f        .-      CMP      r5,#0x1f
        0x0001c1da:    db01        ..      BLT      0x1c1e0 ; ftoa + 104
        0x0001c1dc:    1eb8        ..      SUBS     r0,r7,#2
        0x0001c1de:    e7dc        ..      B        0x1c19a ; ftoa + 34
        0x0001c1e0:    f1150f17    ....    CMN      r5,#0x17
        0x0001c1e4:    da02        ..      BGE      0x1c1ec ; ftoa + 116
        0x0001c1e6:    f04f30ff    O..0    MOV      r0,#0xffffffff
        0x0001c1ea:    e7d6        ..      B        0x1c19a ; ftoa + 34
        0x0001c1ec:    2d17        .-      CMP      r5,#0x17
        0x0001c1ee:    db04        ..      BLT      0x1c1fa ; ftoa + 130
        0x0001c1f0:    f1a50017    ....    SUB      r0,r5,#0x17
        0x0001c1f4:    fa09f700    ....    LSL      r7,r9,r0
        0x0001c1f8:    e011        ..      B        0x1c21e ; ftoa + 166
        0x0001c1fa:    2d00        .-      CMP      r5,#0
        0x0001c1fc:    db09        ..      BLT      0x1c212 ; ftoa + 154
        0x0001c1fe:    f1c50017    ....    RSB      r0,r5,#0x17
        0x0001c202:    fa49f700    I...    ASR      r7,r9,r0
        0x0001c206:    1c68        h.      ADDS     r0,r5,#1
        0x0001c208:    fa09f000    ....    LSL      r0,r9,r0
        0x0001c20c:    f020487f     ..H    BIC      r8,r0,#0xff000000
        0x0001c210:    e005        ..      B        0x1c21e ; ftoa + 166
        0x0001c212:    f029407f    )..@    BIC      r0,r9,#0xff000000
        0x0001c216:    1c69        i.      ADDS     r1,r5,#1
        0x0001c218:    4249        IB      RSBS     r1,r1,#0
        0x0001c21a:    fa40f801    @...    ASR      r8,r0,r1
        0x0001c21e:    9800        ..      LDR      r0,[sp,#0]
        0x0001c220:    2800        .(      CMP      r0,#0
        0x0001c222:    da02        ..      BGE      0x1c22a ; ftoa + 178
        0x0001c224:    202d        -       MOVS     r0,#0x2d
        0x0001c226:    f8040b01    ....    STRB     r0,[r4],#1
        0x0001c22a:    b91f        ..      CBNZ     r7,0x1c234 ; ftoa + 188
        0x0001c22c:    2030        0       MOVS     r0,#0x30
        0x0001c22e:    f8040b01    ....    STRB     r0,[r4],#1
        0x0001c232:    e014        ..      B        0x1c25e ; ftoa + 230
        0x0001c234:    2f00        ./      CMP      r7,#0
        0x0001c236:    dd05        ..      BLE      0x1c244 ; ftoa + 204
        0x0001c238:    4622        "F      MOV      r2,r4
        0x0001c23a:    4638        8F      MOV      r0,r7
        0x0001c23c:    17f9        ..      ASRS     r1,r7,#31
        0x0001c23e:    f000fe10    ....    BL       uint64_to_str ; 0x1ce62
        0x0001c242:    e007        ..      B        0x1c254 ; ftoa + 220
        0x0001c244:    202d        -       MOVS     r0,#0x2d
        0x0001c246:    f8040b01    ....    STRB     r0,[r4],#1
        0x0001c24a:    4622        "F      MOV      r2,r4
        0x0001c24c:    4278        xB      RSBS     r0,r7,#0
        0x0001c24e:    17c1        ..      ASRS     r1,r0,#31
        0x0001c250:    f000fe07    ....    BL       uint64_to_str ; 0x1ce62
        0x0001c254:    e000        ..      B        0x1c258 ; ftoa + 224
        0x0001c256:    1c64        d.      ADDS     r4,r4,#1
        0x0001c258:    7820         x      LDRB     r0,[r4,#0]
        0x0001c25a:    2800        .(      CMP      r0,#0
        0x0001c25c:    d1fb        ..      BNE      0x1c256 ; ftoa + 222
        0x0001c25e:    202e        .       MOVS     r0,#0x2e
        0x0001c260:    f8040b01    ....    STRB     r0,[r4],#1
        0x0001c264:    f1b80f00    ....    CMP      r8,#0
        0x0001c268:    d103        ..      BNE      0x1c272 ; ftoa + 250
        0x0001c26a:    2030        0       MOVS     r0,#0x30
        0x0001c26c:    f8040b01    ....    STRB     r0,[r4],#1
        0x0001c270:    e036        6.      B        0x1c2e0 ; ftoa + 360
        0x0001c272:    eba4020a    ....    SUB      r2,r4,r10
        0x0001c276:    ebab0202    ....    SUB      r2,r11,r2
        0x0001c27a:    1e51        Q.      SUBS     r1,r2,#1
        0x0001c27c:    9a06        ..      LDR      r2,[sp,#0x18]
        0x0001c27e:    4291        .B      CMP      r1,r2
        0x0001c280:    dd01        ..      BLE      0x1c286 ; ftoa + 270
        0x0001c282:    9a06        ..      LDR      r2,[sp,#0x18]
        0x0001c284:    e000        ..      B        0x1c288 ; ftoa + 272
        0x0001c286:    460a        .F      MOV      r2,r1
        0x0001c288:    4611        .F      MOV      r1,r2
        0x0001c28a:    2000        .       MOVS     r0,#0
        0x0001c28c:    e00b        ..      B        0x1c2a6 ; ftoa + 302
        0x0001c28e:    eb080288    ....    ADD      r2,r8,r8,LSL #2
        0x0001c292:    ea4f0842    O.B.    LSL      r8,r2,#1
        0x0001c296:    2230        0"      MOVS     r2,#0x30
        0x0001c298:    eb026228    ..(b    ADD      r2,r2,r8,ASR #24
        0x0001c29c:    f8042b01    ...+    STRB     r2,[r4],#1
        0x0001c2a0:    f028487f    (..H    BIC      r8,r8,#0xff000000
        0x0001c2a4:    1c40        @.      ADDS     r0,r0,#1
        0x0001c2a6:    4288        .B      CMP      r0,r1
        0x0001c2a8:    dbf1        ..      BLT      0x1c28e ; ftoa + 278
        0x0001c2aa:    eb080288    ....    ADD      r2,r8,r8,LSL #2
        0x0001c2ae:    0052        R.      LSLS     r2,r2,#1
        0x0001c2b0:    2305        .#      MOVS     r3,#5
        0x0001c2b2:    ebb36f22    .."o    CMP      r3,r2,ASR #24
        0x0001c2b6:    dc12        ..      BGT      0x1c2de ; ftoa + 358
        0x0001c2b8:    1e66        f.      SUBS     r6,r4,#1
        0x0001c2ba:    e00d        ..      B        0x1c2d8 ; ftoa + 352
        0x0001c2bc:    7832        2x      LDRB     r2,[r6,#0]
        0x0001c2be:    2a2e        .*      CMP      r2,#0x2e
        0x0001c2c0:    d009        ..      BEQ      0x1c2d6 ; ftoa + 350
        0x0001c2c2:    7832        2x      LDRB     r2,[r6,#0]
        0x0001c2c4:    2a39        9*      CMP      r2,#0x39
        0x0001c2c6:    d102        ..      BNE      0x1c2ce ; ftoa + 342
        0x0001c2c8:    2230        0"      MOVS     r2,#0x30
        0x0001c2ca:    7032        2p      STRB     r2,[r6,#0]
        0x0001c2cc:    e003        ..      B        0x1c2d6 ; ftoa + 350
        0x0001c2ce:    7832        2x      LDRB     r2,[r6,#0]
        0x0001c2d0:    1c52        R.      ADDS     r2,r2,#1
        0x0001c2d2:    7032        2p      STRB     r2,[r6,#0]
        0x0001c2d4:    e002        ..      B        0x1c2dc ; ftoa + 356
        0x0001c2d6:    1e76        v.      SUBS     r6,r6,#1
        0x0001c2d8:    4556        VE      CMP      r6,r10
        0x0001c2da:    d2ef        ..      BCS      0x1c2bc ; ftoa + 324
        0x0001c2dc:    bf00        ..      NOP      
        0x0001c2de:    bf00        ..      NOP      
        0x0001c2e0:    2000        .       MOVS     r0,#0
        0x0001c2e2:    7020         p      STRB     r0,[r4,#0]
        0x0001c2e4:    eba4000a    ....    SUB      r0,r4,r10
        0x0001c2e8:    e757        W.      B        0x1c19a ; ftoa + 34
    $d
        0x0001c2ea:    0000        ..      DCW    0
        0x0001c2ec:    00302e30    0.0.    DCD    3157552
    $t
    i.init_pattern
    init_pattern
        0x0001c2f0:    2000        .       MOVS     r0,#0
        0x0001c2f2:    e002        ..      B        0x1c2fa ; init_pattern + 10
        0x0001c2f4:    4a02        .J      LDR      r2,[pc,#8] ; [0x1c300] = 0x10000248
        0x0001c2f6:    5410        .T      STRB     r0,[r2,r0]
        0x0001c2f8:    1c40        @.      ADDS     r0,r0,#1
        0x0001c2fa:    2880        .(      CMP      r0,#0x80
        0x0001c2fc:    d3fa        ..      BCC      0x1c2f4 ; init_pattern + 4
        0x0001c2fe:    4770        pG      BX       lr
    $d
        0x0001c300:    10000248    H...    DCD    268436040
    $t
    i.internal_iom_reset_on_error
    internal_iom_reset_on_error
        0x0001c304:    b570        p.      PUSH     {r4-r6,lr}
        0x0001c306:    4602        .F      MOV      r2,r0
        0x0001c308:    f8d00864    ..d.    LDR      r0,[r0,#0x864]
        0x0001c30c:    6852        Rh      LDR      r2,[r2,#4]
        0x0001c30e:    eb000040    ..@.    ADD      r0,r0,r0,LSL #1
        0x0001c312:    0040        @.      LSLS     r0,r0,#1
        0x0001c314:    0312        ..      LSLS     r2,r2,#12
        0x0001c316:    f1024480    ...D    ADD      r4,r2,#0x40000000
        0x0001c31a:    f50424a0    ...$    ADD      r4,r4,#0x50000
        0x0001c31e:    f8d45200    ...R    LDR      r5,[r4,#0x200]
        0x0001c322:    2200        ."      MOVS     r2,#0
        0x0001c324:    f8c42200    ..."    STR      r2,[r4,#0x200]
        0x0001c328:    f4116f00    ...o    TST      r1,#0x800
        0x0001c32c:    d055        U.      BEQ      0x1c3da ; internal_iom_reset_on_error + 214
        0x0001c32e:    f8d42218    ..."    LDR      r2,[r4,#0x218]
        0x0001c332:    f0120f02    ....    TST      r2,#2
        0x0001c336:    d019        ..      BEQ      0x1c36c ; internal_iom_reset_on_error + 104
        0x0001c338:    4b3d        =K      LDR      r3,[pc,#244] ; [0x1c430] = 0xdeadbeef
        0x0001c33a:    f8d4221c    ..."    LDR      r2,[r4,#0x21c]
        0x0001c33e:    b172        r.      CBZ      r2,0x1c35e ; internal_iom_reset_on_error + 90
        0x0001c340:    f8d4c100    ....    LDR      r12,[r4,#0x100]
        0x0001c344:    f3cc2c07    ...,    UBFX     r12,r12,#8,#8
        0x0001c348:    f1bc0f04    ....    CMP      r12,#4
        0x0001c34c:    d305        ..      BCC      0x1c35a ; internal_iom_reset_on_error + 86
        0x0001c34e:    f8c4310c    ...1    STR      r3,[r4,#0x10c]
        0x0001c352:    2a04        .*      CMP      r2,#4
        0x0001c354:    bf88        ..      IT       HI
        0x0001c356:    1f12        ..      SUBHI    r2,r2,#4
        0x0001c358:    d901        ..      BLS      0x1c35e ; internal_iom_reset_on_error + 90
        0x0001c35a:    2a00        .*      CMP      r2,#0
        0x0001c35c:    d1f0        ..      BNE      0x1c340 ; internal_iom_reset_on_error + 60
        0x0001c35e:    f8d42248    ..H"    LDR      r2,[r4,#0x248]
        0x0001c362:    f0020206    ....    AND      r2,r2,#6
        0x0001c366:    2a04        .*      CMP      r2,#4
        0x0001c368:    d1f9        ..      BNE      0x1c35e ; internal_iom_reset_on_error + 90
        0x0001c36a:    e036        6.      B        0x1c3da ; internal_iom_reset_on_error + 214
        0x0001c36c:    f8d42248    ..H"    LDR      r2,[r4,#0x248]
        0x0001c370:    f0120f02    ....    TST      r2,#2
        0x0001c374:    d013        ..      BEQ      0x1c39e ; internal_iom_reset_on_error + 154
        0x0001c376:    bf00        ..      NOP      
        0x0001c378:    f8d42100    ...!    LDR      r2,[r4,#0x100]
        0x0001c37c:    f3c24207    ...B    UBFX     r2,r2,#16,#8
        0x0001c380:    2a04        .*      CMP      r2,#4
        0x0001c382:    d307        ..      BCC      0x1c394 ; internal_iom_reset_on_error + 144
        0x0001c384:    f8d42108    ...!    LDR      r2,[r4,#0x108]
        0x0001c388:    f8d42100    ...!    LDR      r2,[r4,#0x100]
        0x0001c38c:    f3c24207    ...B    UBFX     r2,r2,#16,#8
        0x0001c390:    2a04        .*      CMP      r2,#4
        0x0001c392:    d2f7        ..      BCS      0x1c384 ; internal_iom_reset_on_error + 128
        0x0001c394:    f8d42248    ..H"    LDR      r2,[r4,#0x248]
        0x0001c398:    f0120f02    ....    TST      r2,#2
        0x0001c39c:    d1ec        ..      BNE      0x1c378 ; internal_iom_reset_on_error + 116
        0x0001c39e:    f8d42248    ..H"    LDR      r2,[r4,#0x248]
        0x0001c3a2:    f0020206    ....    AND      r2,r2,#6
        0x0001c3a6:    2a04        .*      CMP      r2,#4
        0x0001c3a8:    d1f9        ..      BNE      0x1c39e ; internal_iom_reset_on_error + 154
        0x0001c3aa:    f8d42100    ...!    LDR      r2,[r4,#0x100]
        0x0001c3ae:    f4120f7f    ....    TST      r2,#0xff0000
        0x0001c3b2:    d012        ..      BEQ      0x1c3da ; internal_iom_reset_on_error + 214
        0x0001c3b4:    f8d42100    ...!    LDR      r2,[r4,#0x100]
        0x0001c3b8:    f3c24207    ...B    UBFX     r2,r2,#16,#8
        0x0001c3bc:    2a04        .*      CMP      r2,#4
        0x0001c3be:    d307        ..      BCC      0x1c3d0 ; internal_iom_reset_on_error + 204
        0x0001c3c0:    f8d42108    ...!    LDR      r2,[r4,#0x108]
        0x0001c3c4:    f8d42100    ...!    LDR      r2,[r4,#0x100]
        0x0001c3c8:    f3c24207    ...B    UBFX     r2,r2,#16,#8
        0x0001c3cc:    2a04        .*      CMP      r2,#4
        0x0001c3ce:    d2f7        ..      BCS      0x1c3c0 ; internal_iom_reset_on_error + 188
        0x0001c3d0:    f8d42100    ...!    LDR      r2,[r4,#0x100]
        0x0001c3d4:    f4120f7f    ....    TST      r2,#0xff0000
        0x0001c3d8:    d1ec        ..      BNE      0x1c3b4 ; internal_iom_reset_on_error + 176
        0x0001c3da:    f0110f10    ....    TST      r1,#0x10
        0x0001c3de:    d01f        ..      BEQ      0x1c420 ; internal_iom_reset_on_error + 284
        0x0001c3e0:    f8d41248    ..H.    LDR      r1,[r4,#0x248]
        0x0001c3e4:    f0010106    ....    AND      r1,r1,#6
        0x0001c3e8:    2904        .)      CMP      r1,#4
        0x0001c3ea:    d1f9        ..      BNE      0x1c3e0 ; internal_iom_reset_on_error + 220
        0x0001c3ec:    f8d4111c    ....    LDR      r1,[r4,#0x11c]
        0x0001c3f0:    f0210110    !...    BIC      r1,r1,#0x10
        0x0001c3f4:    f8c4111c    ....    STR      r1,[r4,#0x11c]
        0x0001c3f8:    f8d41110    ....    LDR      r1,[r4,#0x110]
        0x0001c3fc:    f0210102    !...    BIC      r1,r1,#2
        0x0001c400:    f8c41110    ....    STR      r1,[r4,#0x110]
        0x0001c404:    f7fdf97e    ..~.    BL       am_hal_delay_us ; 0x19704
        0x0001c408:    f8d40110    ....    LDR      r0,[r4,#0x110]
        0x0001c40c:    f0400002    @...    ORR      r0,r0,#2
        0x0001c410:    f8c40110    ....    STR      r0,[r4,#0x110]
        0x0001c414:    f8d4011c    ....    LDR      r0,[r4,#0x11c]
        0x0001c418:    f0400010    @...    ORR      r0,r0,#0x10
        0x0001c41c:    f8c4011c    ....    STR      r0,[r4,#0x11c]
        0x0001c420:    f04f30ff    O..0    MOV      r0,#0xffffffff
        0x0001c424:    f8c40208    ....    STR      r0,[r4,#0x208]
        0x0001c428:    f8c45200    ...R    STR      r5,[r4,#0x200]
        0x0001c42c:    bd70        p.      POP      {r4-r6,pc}
    $d
        0x0001c42e:    0000        ..      DCW    0
        0x0001c430:    deadbeef    ....    DCD    3735928559
    $t
    i.internal_timer_config
    internal_timer_config
        0x0001c434:    4a36        6J      LDR      r2,[pc,#216] ; [0x1c510] = 0x40020000
        0x0001c436:    68d3        .h      LDR      r3,[r2,#0xc]
        0x0001c438:    b2db        ..      UXTB     r3,r3
        0x0001c43a:    2b21        !+      CMP      r3,#0x21
        0x0001c43c:    d01c        ..      BEQ      0x1c478 ; internal_timer_config + 68
        0x0001c43e:    68d2        .h      LDR      r2,[r2,#0xc]
        0x0001c440:    b2d2        ..      UXTB     r2,r2
        0x0001c442:    2a22        "*      CMP      r2,#0x22
        0x0001c444:    bf3c        <.      ITT      CC
        0x0001c446:    2001        .       MOVCC    r0,#1
        0x0001c448:    4770        pG      BXCC     lr
        0x0001c44a:    2801        .(      CMP      r0,#1
        0x0001c44c:    bf18        ..      IT       NE
        0x0001c44e:    2803        .(      CMPNE    r0,#3
        0x0001c450:    d054        T.      BEQ      0x1c4fc ; internal_timer_config + 200
        0x0001c452:    280a        .(      CMP      r0,#0xa
        0x0001c454:    bf18        ..      IT       NE
        0x0001c456:    280b        .(      CMPNE    r0,#0xb
        0x0001c458:    d050        P.      BEQ      0x1c4fc ; internal_timer_config + 200
        0x0001c45a:    280c        .(      CMP      r0,#0xc
        0x0001c45c:    bf1c        ..      ITT      NE
        0x0001c45e:    280e        .(      CMPNE    r0,#0xe
        0x0001c460:    280f        .(      CMPNE    r0,#0xf
        0x0001c462:    d04b        K.      BEQ      0x1c4fc ; internal_timer_config + 200
        0x0001c464:    2805        .(      CMP      r0,#5
        0x0001c466:    bf18        ..      IT       NE
        0x0001c468:    2807        .(      CMPNE    r0,#7
        0x0001c46a:    d04a        J.      BEQ      0x1c502 ; internal_timer_config + 206
        0x0001c46c:    2808        .(      CMP      r0,#8
        0x0001c46e:    bf1c        ..      ITT      NE
        0x0001c470:    2809        .(      CMPNE    r0,#9
        0x0001c472:    280d        .(      CMPNE    r0,#0xd
        0x0001c474:    d045        E.      BEQ      0x1c502 ; internal_timer_config + 206
        0x0001c476:    e049        I.      B        0x1c50c ; internal_timer_config + 216
        0x0001c478:    784b        Kx      LDRB     r3,[r1,#1]
        0x0001c47a:    780a        .x      LDRB     r2,[r1,#0]
        0x0001c47c:    f04f0cf0    O...    MOV      r12,#0xf0
        0x0001c480:    ea0c1303    ....    AND      r3,r12,r3,LSL #4
        0x0001c484:    ea432202    C.."    ORR      r2,r3,r2,LSL #8
        0x0001c488:    78cb        .x      LDRB     r3,[r1,#3]
        0x0001c48a:    f04f0c08    O...    MOV      r12,#8
        0x0001c48e:    ea0c03c3    ....    AND      r3,r12,r3,LSL #3
        0x0001c492:    ea430202    C...    ORR      r2,r3,r2
        0x0001c496:    788b        .x      LDRB     r3,[r1,#2]
        0x0001c498:    f04f0c04    O...    MOV      r12,#4
        0x0001c49c:    ea0c0383    ....    AND      r3,r12,r3,LSL #2
        0x0001c4a0:    ea430202    C...    ORR      r2,r3,r2
        0x0001c4a4:    790b        .y      LDRB     r3,[r1,#4]
        0x0001c4a6:    f44f3c40    O.@<    MOV      r12,#0x30000
        0x0001c4aa:    ea0c4303    ...C    AND      r3,r12,r3,LSL #16
        0x0001c4ae:    ea430202    C...    ORR      r2,r3,r2
        0x0001c4b2:    7a0b        .z      LDRB     r3,[r1,#8]
        0x0001c4b4:    ea4f1040    O.@.    LSL      r0,r0,#5
        0x0001c4b8:    f1004080    ...@    ADD      r0,r0,#0x40000000
        0x0001c4bc:    ea426303    B..c    ORR      r3,r2,r3,LSL #24
        0x0001c4c0:    f5004000    ...@    ADD      r0,r0,#0x8000
        0x0001c4c4:    794a        Jy      LDRB     r2,[r1,#5]
        0x0001c4c6:    f8d0c200    ....    LDR      r12,[r0,#0x200]
        0x0001c4ca:    ea4f2202    O.."    LSL      r2,r2,#8
        0x0001c4ce:    f02c0c01    ,...    BIC      r12,r12,#1
        0x0001c4d2:    f8c0c200    ....    STR      r12,[r0,#0x200]
        0x0001c4d6:    f8c03200    ...2    STR      r3,[r0,#0x200]
        0x0001c4da:    f8c02210    ..."    STR      r2,[r0,#0x210]
        0x0001c4de:    68ca        .h      LDR      r2,[r1,#0xc]
        0x0001c4e0:    f8c02208    ..."    STR      r2,[r0,#0x208]
        0x0001c4e4:    6909        .i      LDR      r1,[r1,#0x10]
        0x0001c4e6:    f8c0120c    ....    STR      r1,[r0,#0x20c]
        0x0001c4ea:    f8d01200    ....    LDR      r1,[r0,#0x200]
        0x0001c4ee:    f0410102    A...    ORR      r1,r1,#2
        0x0001c4f2:    f8c01200    ....    STR      r1,[r0,#0x200]
        0x0001c4f6:    f04f0000    O...    MOV      r0,#0
        0x0001c4fa:    4770        pG      BX       lr
        0x0001c4fc:    f04f0006    O...    MOV      r0,#6
        0x0001c500:    4770        pG      BX       lr
        0x0001c502:    790a        .y      LDRB     r2,[r1,#4]
        0x0001c504:    2a00        .*      CMP      r2,#0
        0x0001c506:    bf1c        ..      ITT      NE
        0x0001c508:    2007        .       MOVNE    r0,#7
        0x0001c50a:    4770        pG      BXNE     lr
        0x0001c50c:    f000bb6a    ..j.    B.W      timer_config_b1 ; 0x1cbe4
    $d
        0x0001c510:    40020000    ...@    DCD    1073872896
    $t
    i.iom_dummy_callback
    iom_dummy_callback
        0x0001c514:    4770        pG      BX       lr
        0x0001c516:    0000        ..      MOVS     r0,r0
    i.iom_init_cq_element
    iom_init_cq_element
        0x0001c518:    b530        0.      PUSH     {r4,r5,lr}
        0x0001c51a:    4923        #I      LDR      r1,[pc,#140] ; [0x1c5a8] = 0x1000435c
        0x0001c51c:    4a23        #J      LDR      r2,[pc,#140] ; [0x1c5ac] = 0x10004394
        0x0001c51e:    f2401301    @...    MOV      r3,#0x101
        0x0001c522:    1c9c        ..      ADDS     r4,r3,#2
        0x0001c524:    4d22        "M      LDR      r5,[pc,#136] ; [0x1c5b0] = 0x40050000
        0x0001c526:    eb053500    ...5    ADD      r5,r5,r0,LSL #12
        0x0001c52a:    f5057594    ...u    ADD      r5,r5,#0x128
        0x0001c52e:    600d        .`      STR      r5,[r1,#0]
        0x0001c530:    6015        .`      STR      r5,[r2,#0]
        0x0001c532:    2500        .%      MOVS     r5,#0
        0x0001c534:    604d        M`      STR      r5,[r1,#4]
        0x0001c536:    6055        U`      STR      r5,[r2,#4]
        0x0001c538:    4d1d        .M      LDR      r5,[pc,#116] ; [0x1c5b0] = 0x40050000
        0x0001c53a:    eb053500    ...5    ADD      r5,r5,r0,LSL #12
        0x0001c53e:    f5057531    ..1u    ADD      r5,r5,#0x2c4
        0x0001c542:    608d        .`      STR      r5,[r1,#8]
        0x0001c544:    6095        .`      STR      r5,[r2,#8]
        0x0001c546:    2500        .%      MOVS     r5,#0
        0x0001c548:    60cd        .`      STR      r5,[r1,#0xc]
        0x0001c54a:    60d5        .`      STR      r5,[r2,#0xc]
        0x0001c54c:    4d18        .M      LDR      r5,[pc,#96] ; [0x1c5b0] = 0x40050000
        0x0001c54e:    eb053500    ...5    ADD      r5,r5,r0,LSL #12
        0x0001c552:    f5057506    ...u    ADD      r5,r5,#0x218
        0x0001c556:    610d        .a      STR      r5,[r1,#0x10]
        0x0001c558:    6115        .a      STR      r5,[r2,#0x10]
        0x0001c55a:    2500        .%      MOVS     r5,#0
        0x0001c55c:    614d        Ma      STR      r5,[r1,#0x14]
        0x0001c55e:    6155        Ua      STR      r5,[r2,#0x14]
        0x0001c560:    4d13        .M      LDR      r5,[pc,#76] ; [0x1c5b0] = 0x40050000
        0x0001c562:    eb053500    ...5    ADD      r5,r5,r0,LSL #12
        0x0001c566:    f5057507    ...u    ADD      r5,r5,#0x21c
        0x0001c56a:    618d        .a      STR      r5,[r1,#0x18]
        0x0001c56c:    6195        .a      STR      r5,[r2,#0x18]
        0x0001c56e:    4d10        .M      LDR      r5,[pc,#64] ; [0x1c5b0] = 0x40050000
        0x0001c570:    eb053500    ...5    ADD      r5,r5,r0,LSL #12
        0x0001c574:    f5057508    ...u    ADD      r5,r5,#0x220
        0x0001c578:    620d        .b      STR      r5,[r1,#0x20]
        0x0001c57a:    6215        .b      STR      r5,[r2,#0x20]
        0x0001c57c:    4d0c        .M      LDR      r5,[pc,#48] ; [0x1c5b0] = 0x40050000
        0x0001c57e:    eb053500    ...5    ADD      r5,r5,r0,LSL #12
        0x0001c582:    f5057506    ...u    ADD      r5,r5,#0x218
        0x0001c586:    628d        .b      STR      r5,[r1,#0x28]
        0x0001c588:    6295        .b      STR      r5,[r2,#0x28]
        0x0001c58a:    62d4        .b      STR      r4,[r2,#0x2c]
        0x0001c58c:    62cb        .b      STR      r3,[r1,#0x2c]
        0x0001c58e:    4d08        .M      LDR      r5,[pc,#32] ; [0x1c5b0] = 0x40050000
        0x0001c590:    eb053500    ...5    ADD      r5,r5,r0,LSL #12
        0x0001c594:    f5057590    ...u    ADD      r5,r5,#0x120
        0x0001c598:    6315        .c      STR      r5,[r2,#0x30]
        0x0001c59a:    4d05        .M      LDR      r5,[pc,#20] ; [0x1c5b0] = 0x40050000
        0x0001c59c:    eb053500    ...5    ADD      r5,r5,r0,LSL #12
        0x0001c5a0:    f5057590    ...u    ADD      r5,r5,#0x120
        0x0001c5a4:    630d        .c      STR      r5,[r1,#0x30]
        0x0001c5a6:    bd30        0.      POP      {r4,r5,pc}
    $d
        0x0001c5a8:    1000435c    \C..    DCD    268452700
        0x0001c5ac:    10004394    .C..    DCD    268452756
        0x0001c5b0:    40050000    ...@    DCD    1074069504
    $t
    i.iom_seq_loopback
    iom_seq_loopback
        0x0001c5b4:    f8d01830    ..0.    LDR      r1,[r0,#0x830]
        0x0001c5b8:    1c49        I.      ADDS     r1,r1,#1
        0x0001c5ba:    6241        Ab      STR      r1,[r0,#0x24]
        0x0001c5bc:    2100        .!      MOVS     r1,#0
        0x0001c5be:    61c1        .a      STR      r1,[r0,#0x1c]
        0x0001c5c0:    2101        .!      MOVS     r1,#1
        0x0001c5c2:    f8801834    ..4.    STRB     r1,[r0,#0x834]
        0x0001c5c6:    6840        @h      LDR      r0,[r0,#4]
        0x0001c5c8:    0589        ..      LSLS     r1,r1,#22
        0x0001c5ca:    0300        ..      LSLS     r0,r0,#12
        0x0001c5cc:    f1004080    ...@    ADD      r0,r0,#0x40000000
        0x0001c5d0:    f50020a0    ...     ADD      r0,r0,#0x50000
        0x0001c5d4:    f8c01238    ..8.    STR      r1,[r0,#0x238]
        0x0001c5d8:    4770        pG      BX       lr
        0x0001c5da:    0000        ..      MOVS     r0,r0
    i.main
    main
        0x0001c5dc:    2500        .%      MOVS     r5,#0
        0x0001c5de:    4849        IH      LDR      r0,[pc,#292] ; [0x1c704] = 0x1d158
        0x0001c5e0:    f7fcfcee    ....    BL       am_hal_cachectrl_config ; 0x18fc0
        0x0001c5e4:    f7fcfd10    ....    BL       am_hal_cachectrl_enable ; 0x19008
        0x0001c5e8:    f7fcfade    ....    BL       am_bsp_low_power_init ; 0x18ba8
        0x0001c5ec:    f7fcfaa0    ....    BL       am_bsp_itm_printf_enable ; 0x18b30
        0x0001c5f0:    f7fffad2    ....    BL       am_util_stdio_terminal_clear ; 0x1bb98
        0x0001c5f4:    a044        D.      ADR      r0,{pc}+0x114 ; 0x1c708
        0x0001c5f6:    f7fffaab    ....    BL       am_util_stdio_printf ; 0x1bb50
        0x0001c5fa:    f000fbc1    ....    BL       timer_init ; 0x1cd80
        0x0001c5fe:    2002        .       MOVS     r0,#2
        0x0001c600:    f7fff8ec    ....    BL       am_hal_timer_interrupt_enable ; 0x1b7dc
        0x0001c604:    200e        .       MOVS     r0,#0xe
        0x0001c606:    2104        .!      MOVS     r1,#4
        0x0001c608:    2800        .(      CMP      r0,#0
        0x0001c60a:    db04        ..      BLT      0x1c616 ; main + 58
        0x0001c60c:    074a        J.      LSLS     r2,r1,#29
        0x0001c60e:    0e13        ..      LSRS     r3,r2,#24
        0x0001c610:    4a42        BJ      LDR      r2,[pc,#264] ; [0x1c71c] = 0xe000e400
        0x0001c612:    5413        .T      STRB     r3,[r2,r0]
        0x0001c614:    e006        ..      B        0x1c624 ; main + 72
        0x0001c616:    074a        J.      LSLS     r2,r1,#29
        0x0001c618:    0e16        ..      LSRS     r6,r2,#24
        0x0001c61a:    4a41        AJ      LDR      r2,[pc,#260] ; [0x1c720] = 0xe000ed18
        0x0001c61c:    f000030f    ....    AND      r3,r0,#0xf
        0x0001c620:    1f1b        ..      SUBS     r3,r3,#4
        0x0001c622:    54d6        .T      STRB     r6,[r2,r3]
        0x0001c624:    bf00        ..      NOP      
        0x0001c626:    200e        .       MOVS     r0,#0xe
        0x0001c628:    f7fbff69    ..i.    BL       __NVIC_EnableIRQ ; 0x184fe
        0x0001c62c:    f7fbfe94    ....    BL       am_hal_interrupt_master_enable ; 0x18358
        0x0001c630:    2006        .       MOVS     r0,#6
        0x0001c632:    2800        .(      CMP      r0,#0
        0x0001c634:    db07        ..      BLT      0x1c646 ; main + 106
        0x0001c636:    f000021f    ....    AND      r2,r0,#0x1f
        0x0001c63a:    2101        .!      MOVS     r1,#1
        0x0001c63c:    4091        .@      LSLS     r1,r1,r2
        0x0001c63e:    4a39        9J      LDR      r2,[pc,#228] ; [0x1c724] = 0xe000e280
        0x0001c640:    0943        C.      LSRS     r3,r0,#5
        0x0001c642:    f8421023    B.#.    STR      r1,[r2,r3,LSL #2]
        0x0001c646:    bf00        ..      NOP      
        0x0001c648:    2006        .       MOVS     r0,#6
        0x0001c64a:    f7fbff58    ..X.    BL       __NVIC_EnableIRQ ; 0x184fe
        0x0001c64e:    f7fffe4f    ..O.    BL       init_pattern ; 0x1c2f0
        0x0001c652:    f000f8f1    ....    BL       psram_init ; 0x1c838
        0x0001c656:    4604        .F      MOV      r4,r0
        0x0001c658:    b124        $.      CBZ      r4,0x1c664 ; main + 136
        0x0001c65a:    a033        3.      ADR      r0,{pc}+0xce ; 0x1c728
        0x0001c65c:    f7fffa78    ..x.    BL       am_util_stdio_printf ; 0x1bb50
        0x0001c660:    bf00        ..      NOP      
        0x0001c662:    e7fe        ..      B        0x1c662 ; main + 134
        0x0001c664:    2000        .       MOVS     r0,#0
        0x0001c666:    f7fff8f5    ....    BL       am_hal_timer_start ; 0x1b854
        0x0001c66a:    2110        .!      MOVS     r1,#0x10
        0x0001c66c:    4835        5H      LDR      r0,[pc,#212] ; [0x1c744] = 0x1d590
        0x0001c66e:    f7fffa6f    ..o.    BL       am_util_stdio_printf ; 0x1bb50
        0x0001c672:    e02a        *.      B        0x1c6ca ; main + 238
        0x0001c674:    f7fbfe74    ..t.    BL       am_hal_interrupt_master_disable ; 0x18360
        0x0001c678:    4606        .F      MOV      r6,r0
        0x0001c67a:    4833        3H      LDR      r0,[pc,#204] ; [0x1c748] = 0x10000000
        0x0001c67c:    7800        .x      LDRB     r0,[r0,#0]
        0x0001c67e:    b948        H.      CBNZ     r0,0x1c694 ; main + 184
        0x0001c680:    4832        2H      LDR      r0,[pc,#200] ; [0x1c74c] = 0x10000001
        0x0001c682:    7800        .x      LDRB     r0,[r0,#0]
        0x0001c684:    b930        0.      CBNZ     r0,0x1c694 ; main + 184
        0x0001c686:    2001        .       MOVS     r0,#1
        0x0001c688:    f7feffe4    ....    BL       am_hal_sysctrl_sleep ; 0x1b654
        0x0001c68c:    4630        0F      MOV      r0,r6
        0x0001c68e:    f7fbfe6b    ..k.    BL       am_hal_interrupt_master_set ; 0x18368
        0x0001c692:    e019        ..      B        0x1c6c8 ; main + 236
        0x0001c694:    482c        ,H      LDR      r0,[pc,#176] ; [0x1c748] = 0x10000000
        0x0001c696:    7800        .x      LDRB     r0,[r0,#0]
        0x0001c698:    b128        (.      CBZ      r0,0x1c6a6 ; main + 202
        0x0001c69a:    4630        0F      MOV      r0,r6
        0x0001c69c:    f7fbfe64    ..d.    BL       am_hal_interrupt_master_set ; 0x18368
        0x0001c6a0:    f000f952    ..R.    BL       read_psram ; 0x1c948
        0x0001c6a4:    e010        ..      B        0x1c6c8 ; main + 236
        0x0001c6a6:    4829        )H      LDR      r0,[pc,#164] ; [0x1c74c] = 0x10000001
        0x0001c6a8:    7800        .x      LDRB     r0,[r0,#0]
        0x0001c6aa:    b168        h.      CBZ      r0,0x1c6c8 ; main + 236
        0x0001c6ac:    4630        0F      MOV      r0,r6
        0x0001c6ae:    f7fbfe5b    ..[.    BL       am_hal_interrupt_master_set ; 0x18368
        0x0001c6b2:    f000fc59    ..Y.    BL       verify_psram_data ; 0x1cf68
        0x0001c6b6:    1c68        h.      ADDS     r0,r5,#1
        0x0001c6b8:    4605        .F      MOV      r5,r0
        0x0001c6ba:    2810        .(      CMP      r0,#0x10
        0x0001c6bc:    d304        ..      BCC      0x1c6c8 ; main + 236
        0x0001c6be:    2110        .!      MOVS     r1,#0x10
        0x0001c6c0:    a023        #.      ADR      r0,{pc}+0x90 ; 0x1c750
        0x0001c6c2:    f7fffa45    ..E.    BL       am_util_stdio_printf ; 0x1bb50
        0x0001c6c6:    e001        ..      B        0x1c6cc ; main + 240
        0x0001c6c8:    bf00        ..      NOP      
        0x0001c6ca:    e7d3        ..      B        0x1c674 ; main + 152
        0x0001c6cc:    bf00        ..      NOP      
        0x0001c6ce:    a024        $.      ADR      r0,{pc}+0x92 ; 0x1c760
        0x0001c6d0:    f7fffa3e    ..>.    BL       am_util_stdio_printf ; 0x1bb50
        0x0001c6d4:    2000        .       MOVS     r0,#0
        0x0001c6d6:    f7fff877    ..w.    BL       am_hal_timer_interrupt_disable ; 0x1b7c8
        0x0001c6da:    200e        .       MOVS     r0,#0xe
        0x0001c6dc:    2800        .(      CMP      r0,#0
        0x0001c6de:    db0b        ..      BLT      0x1c6f8 ; main + 284
        0x0001c6e0:    f000021f    ....    AND      r2,r0,#0x1f
        0x0001c6e4:    2101        .!      MOVS     r1,#1
        0x0001c6e6:    4091        .@      LSLS     r1,r1,r2
        0x0001c6e8:    4a23        #J      LDR      r2,[pc,#140] ; [0x1c778] = 0xe000e180
        0x0001c6ea:    0943        C.      LSRS     r3,r0,#5
        0x0001c6ec:    f8421023    B.#.    STR      r1,[r2,r3,LSL #2]
        0x0001c6f0:    f3bf8f4f    ..O.    DSB      
        0x0001c6f4:    f3bf8f6f    ..o.    ISB      
        0x0001c6f8:    bf00        ..      NOP      
        0x0001c6fa:    f000f8f7    ....    BL       psram_term ; 0x1c8ec
        0x0001c6fe:    bf00        ..      NOP      
        0x0001c700:    e7fe        ..      B        0x1c700 ; main + 292
    $d
        0x0001c702:    0000        ..      DCW    0
        0x0001c704:    0001d158    X...    DCD    119128
        0x0001c708:    204d4f49    IOM     DCD    541937481
        0x0001c70c:    41525350    PSRA    DCD    1095914320
        0x0001c710:    7845204d    M Ex    DCD    2017796173
        0x0001c714:    6c706d61    ampl    DCD    1819307361
        0x0001c718:    00000a65    e...    DCD    2661
        0x0001c71c:    e000e400    ....    DCD    3758154752
        0x0001c720:    e000ed18    ....    DCD    3758157080
        0x0001c724:    e000e280    ....    DCD    3758154368
        0x0001c728:    62616e55    Unab    DCD    1650552405
        0x0001c72c:    7420656c    le t    DCD    1948280172
        0x0001c730:    6e69206f    o in    DCD    1852383343
        0x0001c734:    61697469    itia    DCD    1634301033
        0x0001c738:    657a696c    lize    DCD    1702521196
        0x0001c73c:    52535020     PSR    DCD    1381191712
        0x0001c740:    000a4d41    AM..    DCD    675137
        0x0001c744:    0001d590    ....    DCD    120208
        0x0001c748:    10000000    ....    DCD    268435456
        0x0001c74c:    10000001    ....    DCD    268435457
        0x0001c750:    2064250a    .%d     DCD    543433994
        0x0001c754:    64616552    Read    DCD    1684104530
        0x0001c758:    6f642073    s do    DCD    1868832883
        0x0001c75c:    000a656e    ne..    DCD    681326
        0x0001c760:    646e450a    .End    DCD    1684948234
        0x0001c764:    20666f20     of     DCD    543584032
        0x0001c768:    41525350    PSRA    DCD    1095914320
        0x0001c76c:    7845204d    M Ex    DCD    2017796173
        0x0001c770:    6c706d61    ampl    DCD    1819307361
        0x0001c774:    00000a65    e...    DCD    2661
        0x0001c778:    e000e180    ....    DCD    3758154112
    $t
    i.ndigits_in_hex
    ndigits_in_hex
        0x0001c77c:    b530        0.      PUSH     {r4,r5,lr}
        0x0001c77e:    4602        .F      MOV      r2,r0
        0x0001c780:    460b        .F      MOV      r3,r1
        0x0001c782:    2400        .$      MOVS     r4,#0
        0x0001c784:    ea820104    ....    EOR      r1,r2,r4
        0x0001c788:    405c        \@      EORS     r4,r4,r3
        0x0001c78a:    4321        !C      ORRS     r1,r1,r4
        0x0001c78c:    d101        ..      BNE      0x1c792 ; ndigits_in_hex + 22
        0x0001c78e:    2101        .!      MOVS     r1,#1
        0x0001c790:    e000        ..      B        0x1c794 ; ndigits_in_hex + 24
        0x0001c792:    2100        .!      MOVS     r1,#0
        0x0001c794:    4608        .F      MOV      r0,r1
        0x0001c796:    e004        ..      B        0x1c7a2 ; ndigits_in_hex + 38
        0x0001c798:    0911        ..      LSRS     r1,r2,#4
        0x0001c79a:    ea417203    A..r    ORR      r2,r1,r3,LSL #28
        0x0001c79e:    091b        ..      LSRS     r3,r3,#4
        0x0001c7a0:    1c40        @.      ADDS     r0,r0,#1
        0x0001c7a2:    2400        .$      MOVS     r4,#0
        0x0001c7a4:    ea820104    ....    EOR      r1,r2,r4
        0x0001c7a8:    405c        \@      EORS     r4,r4,r3
        0x0001c7aa:    4321        !C      ORRS     r1,r1,r4
        0x0001c7ac:    d1f4        ..      BNE      0x1c798 ; ndigits_in_hex + 28
        0x0001c7ae:    bd30        0.      POP      {r4,r5,pc}
    i.ndigits_in_i64
    ndigits_in_i64
        0x0001c7b0:    b570        p.      PUSH     {r4-r6,lr}
        0x0001c7b2:    4604        .F      MOV      r4,r0
        0x0001c7b4:    460d        .F      MOV      r5,r1
        0x0001c7b6:    2100        .!      MOVS     r1,#0
        0x0001c7b8:    4608        .F      MOV      r0,r1
        0x0001c7ba:    1a61        a.      SUBS     r1,r4,r1
        0x0001c7bc:    eb750000    u...    SBCS     r0,r5,r0
        0x0001c7c0:    da03        ..      BGE      0x1c7ca ; ndigits_in_i64 + 26
        0x0001c7c2:    2200        ."      MOVS     r2,#0
        0x0001c7c4:    4264        dB      RSBS     r4,r4,#0
        0x0001c7c6:    eb620505    b...    SBC      r5,r2,r5
        0x0001c7ca:    4620         F      MOV      r0,r4
        0x0001c7cc:    4629        )F      MOV      r1,r5
        0x0001c7ce:    f000f801    ....    BL       ndigits_in_u64 ; 0x1c7d4
        0x0001c7d2:    bd70        p.      POP      {r4-r6,pc}
    i.ndigits_in_u64
    ndigits_in_u64
        0x0001c7d4:    b570        p.      PUSH     {r4-r6,lr}
        0x0001c7d6:    4604        .F      MOV      r4,r0
        0x0001c7d8:    460d        .F      MOV      r5,r1
        0x0001c7da:    2100        .!      MOVS     r1,#0
        0x0001c7dc:    ea840001    ....    EOR      r0,r4,r1
        0x0001c7e0:    4069        i@      EORS     r1,r1,r5
        0x0001c7e2:    4308        .C      ORRS     r0,r0,r1
        0x0001c7e4:    d101        ..      BNE      0x1c7ea ; ndigits_in_u64 + 22
        0x0001c7e6:    2001        .       MOVS     r0,#1
        0x0001c7e8:    e000        ..      B        0x1c7ec ; ndigits_in_u64 + 24
        0x0001c7ea:    2000        .       MOVS     r0,#0
        0x0001c7ec:    4606        .F      MOV      r6,r0
        0x0001c7ee:    e006        ..      B        0x1c7fe ; ndigits_in_u64 + 42
        0x0001c7f0:    4620         F      MOV      r0,r4
        0x0001c7f2:    4629        )F      MOV      r1,r5
        0x0001c7f4:    f7fffc59    ..Y.    BL       divu64_10 ; 0x1c0aa
        0x0001c7f8:    4604        .F      MOV      r4,r0
        0x0001c7fa:    460d        .F      MOV      r5,r1
        0x0001c7fc:    1c76        v.      ADDS     r6,r6,#1
        0x0001c7fe:    2100        .!      MOVS     r1,#0
        0x0001c800:    ea840001    ....    EOR      r0,r4,r1
        0x0001c804:    4069        i@      EORS     r1,r1,r5
        0x0001c806:    4308        .C      ORRS     r0,r0,r1
        0x0001c808:    d1f2        ..      BNE      0x1c7f0 ; ndigits_in_u64 + 28
        0x0001c80a:    4630        0F      MOV      r0,r6
        0x0001c80c:    bd70        p.      POP      {r4-r6,pc}
    i.padbuffer
    padbuffer
        0x0001c80e:    b530        0.      PUSH     {r4,r5,lr}
        0x0001c810:    4603        .F      MOV      r3,r0
        0x0001c812:    2000        .       MOVS     r0,#0
        0x0001c814:    2a00        .*      CMP      r2,#0
        0x0001c816:    dc00        ..      BGT      0x1c81a ; padbuffer + 12
        0x0001c818:    bd30        0.      POP      {r4,r5,pc}
        0x0001c81a:    e003        ..      B        0x1c824 ; padbuffer + 22
        0x0001c81c:    b10b        ..      CBZ      r3,0x1c822 ; padbuffer + 20
        0x0001c81e:    f8031b01    ....    STRB     r1,[r3],#1
        0x0001c822:    1c40        @.      ADDS     r0,r0,#1
        0x0001c824:    1e14        ..      SUBS     r4,r2,#0
        0x0001c826:    f1a20201    ....    SUB      r2,r2,#1
        0x0001c82a:    d1f7        ..      BNE      0x1c81c ; padbuffer + 14
        0x0001c82c:    bf00        ..      NOP      
        0x0001c82e:    e7f3        ..      B        0x1c818 ; padbuffer + 10
    i.pfnSPI_PSRAM_Callback
    pfnSPI_PSRAM_Callback
        0x0001c830:    2201        ."      MOVS     r2,#1
        0x0001c832:    7002        .p      STRB     r2,[r0,#0]
        0x0001c834:    4770        pG      BX       lr
        0x0001c836:    0000        ..      MOVS     r0,r0
    i.psram_init
    psram_init
        0x0001c838:    b530        0.      PUSH     {r4,r5,lr}
        0x0001c83a:    b085        ..      SUB      sp,sp,#0x14
        0x0001c83c:    4813        .H      LDR      r0,[pc,#76] ; [0x1c88c] = 0xf42400
        0x0001c83e:    9002        ..      STR      r0,[sp,#8]
        0x0001c840:    4813        .H      LDR      r0,[pc,#76] ; [0x1c890] = 0x10000348
        0x0001c842:    9003        ..      STR      r0,[sp,#0xc]
        0x0001c844:    f44f5080    O..P    MOV      r0,#0x1000
        0x0001c848:    9004        ..      STR      r0,[sp,#0x10]
        0x0001c84a:    4812        .H      LDR      r0,[pc,#72] ; [0x1c894] = 0x1000000c
        0x0001c84c:    4b12        .K      LDR      r3,[pc,#72] ; [0x1c898] = 0x10000008
        0x0001c84e:    4a13        .J      LDR      r2,[pc,#76] ; [0x1c89c] = 0x10000004
        0x0001c850:    a902        ..      ADD      r1,sp,#8
        0x0001c852:    6945        Ei      LDR      r5,[r0,#0x14]
        0x0001c854:    2000        .       MOVS     r0,#0
        0x0001c856:    47a8        .G      BLX      r5
        0x0001c858:    4604        .F      MOV      r4,r0
        0x0001c85a:    b99c        ..      CBNZ     r4,0x1c884 ; psram_init + 76
        0x0001c85c:    490d        .I      LDR      r1,[pc,#52] ; [0x1c894] = 0x1000000c
        0x0001c85e:    a010        ..      ADR      r0,{pc}+0x42 ; 0x1c8a0
        0x0001c860:    f7fff976    ..v.    BL       am_util_stdio_printf ; 0x1bb50
        0x0001c864:    a011        ..      ADR      r0,{pc}+0x48 ; 0x1c8ac
        0x0001c866:    f7fff973    ..s.    BL       am_util_stdio_printf ; 0x1bb50
        0x0001c86a:    2000        .       MOVS     r0,#0
        0x0001c86c:    9000        ..      STR      r0,[sp,#0]
        0x0001c86e:    9001        ..      STR      r0,[sp,#4]
        0x0001c870:    4808        .H      LDR      r0,[pc,#32] ; [0x1c894] = 0x1000000c
        0x0001c872:    2380        .#      MOVS     r3,#0x80
        0x0001c874:    2200        ."      MOVS     r2,#0
        0x0001c876:    491c        .I      LDR      r1,[pc,#112] ; [0x1c8e8] = 0x10000248
        0x0001c878:    6a05        .j      LDR      r5,[r0,#0x20]
        0x0001c87a:    4808        .H      LDR      r0,[pc,#32] ; [0x1c89c] = 0x10000004
        0x0001c87c:    6800        .h      LDR      r0,[r0,#0]
        0x0001c87e:    47a8        .G      BLX      r5
        0x0001c880:    b005        ..      ADD      sp,sp,#0x14
        0x0001c882:    bd30        0.      POP      {r4,r5,pc}
        0x0001c884:    f04f30ff    O..0    MOV      r0,#0xffffffff
        0x0001c888:    e7fa        ..      B        0x1c880 ; psram_init + 72
    $d
        0x0001c88a:    0000        ..      DCW    0
        0x0001c88c:    00f42400    .$..    DCD    16000000
        0x0001c890:    10000348    H...    DCD    268436296
        0x0001c894:    1000000c    ....    DCD    268435468
        0x0001c898:    10000008    ....    DCD    268435464
        0x0001c89c:    10000004    ....    DCD    268435460
        0x0001c8a0:    46207325    %s F    DCD    1176531749
        0x0001c8a4:    646e756f    ound    DCD    1684960623
        0x0001c8a8:    0000000a    ....    DCD    10
        0x0001c8ac:    74746553    Sett    DCD    1953785171
        0x0001c8b0:    20676e69    ing     DCD    543649385
        0x0001c8b4:    64207075    up d    DCD    1679847541
        0x0001c8b8:    20617461    ata     DCD    543257697
        0x0001c8bc:    74746170    patt    DCD    1953784176
        0x0001c8c0:    206e7265    ern     DCD    544109157
        0x0001c8c4:    50206e69    in P    DCD    1344302697
        0x0001c8c8:    4d415253    SRAM    DCD    1296126547
        0x0001c8cc:    69737520     usi    DCD    1769174304
        0x0001c8d0:    6e20676e    ng n    DCD    1847617390
        0x0001c8d4:    6c626e6f    onbl    DCD    1818390127
        0x0001c8d8:    696b636f    ocki    DCD    1768645487
        0x0001c8dc:    7720676e    ng w    DCD    1998612334
        0x0001c8e0:    65746972    rite    DCD    1702127986
        0x0001c8e4:    0000000a    ....    DCD    10
        0x0001c8e8:    10000248    H...    DCD    268436040
    $t
    i.psram_term
    psram_term
        0x0001c8ec:    b510        ..      PUSH     {r4,lr}
        0x0001c8ee:    4803        .H      LDR      r0,[pc,#12] ; [0x1c8fc] = 0x1000000c
        0x0001c8f0:    6981        .i      LDR      r1,[r0,#0x18]
        0x0001c8f2:    4803        .H      LDR      r0,[pc,#12] ; [0x1c900] = 0x10000004
        0x0001c8f4:    6800        .h      LDR      r0,[r0,#0]
        0x0001c8f6:    4788        .G      BLX      r1
        0x0001c8f8:    bd10        ..      POP      {r4,pc}
    $d
        0x0001c8fa:    0000        ..      DCW    0
        0x0001c8fc:    1000000c    ....    DCD    268435468
        0x0001c900:    10000004    ....    DCD    268435460
    $t
    i.read_complete
    read_complete
        0x0001c904:    b570        p.      PUSH     {r4-r6,lr}
        0x0001c906:    4605        .F      MOV      r5,r0
        0x0001c908:    460c        .F      MOV      r4,r1
        0x0001c90a:    b124        $.      CBZ      r4,0x1c916 ; read_complete + 18
        0x0001c90c:    4621        !F      MOV      r1,r4
        0x0001c90e:    a005        ..      ADR      r0,{pc}+0x16 ; 0x1c924
        0x0001c910:    f7fff91e    ....    BL       am_util_stdio_printf ; 0x1bb50
        0x0001c914:    e005        ..      B        0x1c922 ; read_complete + 30
        0x0001c916:    a00a        ..      ADR      r0,{pc}+0x2a ; 0x1c940
        0x0001c918:    f7fff91a    ....    BL       am_util_stdio_printf ; 0x1bb50
        0x0001c91c:    2001        .       MOVS     r0,#1
        0x0001c91e:    4909        .I      LDR      r1,[pc,#36] ; [0x1c944] = 0x10000001
        0x0001c920:    7008        .p      STRB     r0,[r1,#0]
        0x0001c922:    bd70        p.      POP      {r4-r6,pc}
    $d
        0x0001c924:    5253500a    .PSR    DCD    1381191690
        0x0001c928:    52204d41    AM R    DCD    1377848641
        0x0001c92c:    20646165    ead     DCD    543449445
        0x0001c930:    6c696146    Fail    DCD    1818845510
        0x0001c934:    30206465    ed 0    DCD    807429221
        0x0001c938:    0a782578    x%x.    DCD    175646072
        0x0001c93c:    00000000    ....    DCD    0
        0x0001c940:    0000002e    ....    DCD    46
        0x0001c944:    10000001    ....    DCD    268435457
    $t
    i.read_psram
    read_psram
        0x0001c948:    b57c        |.      PUSH     {r2-r6,lr}
        0x0001c94a:    2000        .       MOVS     r0,#0
        0x0001c94c:    4908        .I      LDR      r1,[pc,#32] ; [0x1c970] = 0x1c905
        0x0001c94e:    e9cd1000    ....    STRD     r1,r0,[sp,#0]
        0x0001c952:    4808        .H      LDR      r0,[pc,#32] ; [0x1c974] = 0x1000000c
        0x0001c954:    2380        .#      MOVS     r3,#0x80
        0x0001c956:    2200        ."      MOVS     r2,#0
        0x0001c958:    4907        .I      LDR      r1,[pc,#28] ; [0x1c978] = 0x100002c8
        0x0001c95a:    6a45        Ej      LDR      r5,[r0,#0x24]
        0x0001c95c:    4807        .H      LDR      r0,[pc,#28] ; [0x1c97c] = 0x10000004
        0x0001c95e:    6800        .h      LDR      r0,[r0,#0]
        0x0001c960:    47a8        .G      BLX      r5
        0x0001c962:    4604        .F      MOV      r4,r0
        0x0001c964:    b914        ..      CBNZ     r4,0x1c96c ; read_psram + 36
        0x0001c966:    2000        .       MOVS     r0,#0
        0x0001c968:    4905        .I      LDR      r1,[pc,#20] ; [0x1c980] = 0x10000000
        0x0001c96a:    7008        .p      STRB     r0,[r1,#0]
        0x0001c96c:    bd7c        |.      POP      {r2-r6,pc}
    $d
        0x0001c96e:    0000        ..      DCW    0
        0x0001c970:    0001c905    ....    DCD    116997
        0x0001c974:    1000000c    ....    DCD    268435468
        0x0001c978:    100002c8    ....    DCD    268436168
        0x0001c97c:    10000004    ....    DCD    268435460
        0x0001c980:    10000000    ....    DCD    268435456
    $t
    i.sched_hiprio
    sched_hiprio
        0x0001c984:    b5f8        ..      PUSH     {r3-r7,lr}
        0x0001c986:    460f        .F      MOV      r7,r1
        0x0001c988:    4604        .F      MOV      r4,r0
        0x0001c98a:    2500        .%      MOVS     r5,#0
        0x0001c98c:    f7fbfce8    ....    BL       am_hal_interrupt_master_disable ; 0x18360
        0x0001c990:    9000        ..      STR      r0,[sp,#0]
        0x0001c992:    f8d46840    ..@h    LDR      r6,[r4,#0x840]
        0x0001c996:    19f0        ..      ADDS     r0,r6,r7
        0x0001c998:    f8c40840    ..@.    STR      r0,[r4,#0x840]
        0x0001c99c:    9800        ..      LDR      r0,[sp,#0]
        0x0001c99e:    f7fbfce3    ....    BL       am_hal_interrupt_master_set ; 0x18368
        0x0001c9a2:    2e00        ..      CMP      r6,#0
        0x0001c9a4:    d148        H.      BNE      0x1ca38 ; sched_hiprio + 180
        0x0001c9a6:    6861        ah      LDR      r1,[r4,#4]
        0x0001c9a8:    4e45        EN      LDR      r6,[pc,#276] ; [0x1cac0] = 0x186a0
        0x0001c9aa:    ea4f3101    O..1    LSL      r1,r1,#12
        0x0001c9ae:    f1014180    ...A    ADD      r1,r1,#0x40000000
        0x0001c9b2:    f50121a0    ...!    ADD      r1,r1,#0x50000
        0x0001c9b6:    f04f0080    O...    MOV      r0,#0x80
        0x0001c9ba:    4635        5F      MOV      r5,r6
        0x0001c9bc:    f8c10238    ..8.    STR      r0,[r1,#0x238]
        0x0001c9c0:    6860        `h      LDR      r0,[r4,#4]
        0x0001c9c2:    ea4f3000    O..0    LSL      r0,r0,#12
        0x0001c9c6:    f1004080    ...@    ADD      r0,r0,#0x40000000
        0x0001c9ca:    f50020a0    ...     ADD      r0,r0,#0x50000
        0x0001c9ce:    f8d00228    ..(.    LDR      r0,[r0,#0x228]
        0x0001c9d2:    f0100f01    ....    TST      r0,#1
        0x0001c9d6:    d020         .      BEQ      0x1ca1a ; sched_hiprio + 150
        0x0001c9d8:    6860        `h      LDR      r0,[r4,#4]
        0x0001c9da:    ea4f3000    O..0    LSL      r0,r0,#12
        0x0001c9de:    f1004080    ...@    ADD      r0,r0,#0x40000000
        0x0001c9e2:    f50020a0    ...     ADD      r0,r0,#0x50000
        0x0001c9e6:    f8d01230    ..0.    LDR      r1,[r0,#0x230]
        0x0001c9ea:    f0110f02    ....    TST      r1,#2
        0x0001c9ee:    bf1c        ..      ITT      NE
        0x0001c9f0:    f8d0023c    ..<.    LDRNE    r0,[r0,#0x23c]
        0x0001c9f4:    f0100f80    ....    TSTNE    r0,#0x80
        0x0001c9f8:    d10f        ..      BNE      0x1ca1a ; sched_hiprio + 150
        0x0001c9fa:    1e6d        m.      SUBS     r5,r5,#1
        0x0001c9fc:    d31b        ..      BCC      0x1ca36 ; sched_hiprio + 178
        0x0001c9fe:    2001        .       MOVS     r0,#1
        0x0001ca00:    f7fcfe80    ....    BL       am_hal_delay_us ; 0x19704
        0x0001ca04:    6860        `h      LDR      r0,[r4,#4]
        0x0001ca06:    0300        ..      LSLS     r0,r0,#12
        0x0001ca08:    f1004080    ...@    ADD      r0,r0,#0x40000000
        0x0001ca0c:    f50020a0    ...     ADD      r0,r0,#0x50000
        0x0001ca10:    f8d00228    ..(.    LDR      r0,[r0,#0x228]
        0x0001ca14:    f0100f01    ....    TST      r0,#1
        0x0001ca18:    d1de        ..      BNE      0x1c9d8 ; sched_hiprio + 84
        0x0001ca1a:    2701        .'      MOVS     r7,#1
        0x0001ca1c:    9700        ..      STR      r7,[sp,#0]
        0x0001ca1e:    4929        )I      LDR      r1,[pc,#164] ; [0x1cac4] = 0x40050224
        0x0001ca20:    6860        `h      LDR      r0,[r4,#4]
        0x0001ca22:    2300        .#      MOVS     r3,#0
        0x0001ca24:    eb013100    ...1    ADD      r1,r1,r0,LSL #12
        0x0001ca28:    463a        :F      MOV      r2,r7
        0x0001ca2a:    4630        0F      MOV      r0,r6
        0x0001ca2c:    f7fcfeac    ....    BL       am_hal_delay_us_status_check ; 0x19788
        0x0001ca30:    0005        ..      MOVS     r5,r0
        0x0001ca32:    d142        B.      BNE      0x1caba ; sched_hiprio + 310
        0x0001ca34:    e001        ..      B        0x1ca3a ; sched_hiprio + 182
        0x0001ca36:    2504        .%      MOVS     r5,#4
        0x0001ca38:    e03f        ?.      B        0x1caba ; sched_hiprio + 310
        0x0001ca3a:    2200        ."      MOVS     r2,#0
        0x0001ca3c:    61a2        .a      STR      r2,[r4,#0x18]
        0x0001ca3e:    6860        `h      LDR      r0,[r4,#4]
        0x0001ca40:    f2404101    @..A    MOV      r1,#0x401
        0x0001ca44:    0300        ..      LSLS     r0,r0,#12
        0x0001ca46:    f1004080    ...@    ADD      r0,r0,#0x40000000
        0x0001ca4a:    f50020a0    ...     ADD      r0,r0,#0x50000
        0x0001ca4e:    f8c01208    ....    STR      r1,[r0,#0x208]
        0x0001ca52:    6860        `h      LDR      r0,[r4,#4]
        0x0001ca54:    0300        ..      LSLS     r0,r0,#12
        0x0001ca56:    f1004080    ...@    ADD      r0,r0,#0x40000000
        0x0001ca5a:    f50020a0    ...     ADD      r0,r0,#0x50000
        0x0001ca5e:    f8d03200    ...2    LDR      r3,[r0,#0x200]
        0x0001ca62:    4319        .C      ORRS     r1,r1,r3
        0x0001ca64:    f8c01200    ....    STR      r1,[r0,#0x200]
        0x0001ca68:    f884783c    ..<x    STRB     r7,[r4,#0x83c]
        0x0001ca6c:    f8d41850    ..P.    LDR      r1,[r4,#0x850]
        0x0001ca70:    f8d43848    ..H8    LDR      r3,[r4,#0x848]
        0x0001ca74:    1c49        I.      ADDS     r1,r1,#1
        0x0001ca76:    fbb1fcf3    ....    UDIV     r12,r1,r3
        0x0001ca7a:    fb03111c    ....    MLS      r1,r3,r12,r1
        0x0001ca7e:    6860        `h      LDR      r0,[r4,#4]
        0x0001ca80:    f8d43854    ..T8    LDR      r3,[r4,#0x854]
        0x0001ca84:    0300        ..      LSLS     r0,r0,#12
        0x0001ca86:    eb031141    ..A.    ADD      r1,r3,r1,LSL #5
        0x0001ca8a:    f1004080    ...@    ADD      r0,r0,#0x40000000
        0x0001ca8e:    f50020a0    ...     ADD      r0,r0,#0x50000
        0x0001ca92:    680b        .h      LDR      r3,[r1,#0]
        0x0001ca94:    f8c03128    ..(1    STR      r3,[r0,#0x128]
        0x0001ca98:    684b        Kh      LDR      r3,[r1,#4]
        0x0001ca9a:    f8c032c4    ...2    STR      r3,[r0,#0x2c4]
        0x0001ca9e:    f8c02218    ..."    STR      r2,[r0,#0x218]
        0x0001caa2:    688a        .h      LDR      r2,[r1,#8]
        0x0001caa4:    f8c0221c    ..."    STR      r2,[r0,#0x21c]
        0x0001caa8:    68ca        .h      LDR      r2,[r1,#0xc]
        0x0001caaa:    f8c02220    .. "    STR      r2,[r0,#0x220]
        0x0001caae:    690a        .i      LDR      r2,[r1,#0x10]
        0x0001cab0:    f8c02218    ..."    STR      r2,[r0,#0x218]
        0x0001cab4:    6949        Ii      LDR      r1,[r1,#0x14]
        0x0001cab6:    f8c01120    .. .    STR      r1,[r0,#0x120]
        0x0001caba:    4628        (F      MOV      r0,r5
        0x0001cabc:    bdf8        ..      POP      {r3-r7,pc}
    $d
        0x0001cabe:    0000        ..      DCW    0
        0x0001cac0:    000186a0    ....    DCD    100000
        0x0001cac4:    40050224    $..@    DCD    1074070052
    $t
    i.simple_strlen
    simple_strlen
        0x0001cac8:    4601        .F      MOV      r1,r0
        0x0001caca:    2000        .       MOVS     r0,#0
        0x0001cacc:    b901        ..      CBNZ     r1,0x1cad0 ; simple_strlen + 8
        0x0001cace:    4770        pG      BX       lr
        0x0001cad0:    e000        ..      B        0x1cad4 ; simple_strlen + 12
        0x0001cad2:    1c40        @.      ADDS     r0,r0,#1
        0x0001cad4:    f8113b01    ...;    LDRB     r3,[r1],#1
        0x0001cad8:    2b00        .+      CMP      r3,#0
        0x0001cada:    d1fa        ..      BNE      0x1cad2 ; simple_strlen + 10
        0x0001cadc:    bf00        ..      NOP      
        0x0001cade:    e7f6        ..      B        0x1cace ; simple_strlen + 6
    i.spi_psram_nonblocking_transfer
    spi_psram_nonblocking_transfer
        0x0001cae0:    e92d4ff0    -..O    PUSH     {r4-r11,lr}
        0x0001cae4:    b089        ..      SUB      sp,sp,#0x24
        0x0001cae6:    4682        .F      MOV      r10,r0
        0x0001cae8:    468b        .F      MOV      r11,r1
        0x0001caea:    4690        .F      MOV      r8,r2
        0x0001caec:    461f        .F      MOV      r7,r3
        0x0001caee:    9c12        ..      LDR      r4,[sp,#0x48]
        0x0001caf0:    f04f0900    O...    MOV      r9,#0
        0x0001caf4:    9813        ..      LDR      r0,[sp,#0x4c]
        0x0001caf6:    9002        ..      STR      r0,[sp,#8]
        0x0001caf8:    2000        .       MOVS     r0,#0
        0x0001cafa:    9003        ..      STR      r0,[sp,#0xc]
        0x0001cafc:    4655        UF      MOV      r5,r10
        0x0001cafe:    e068        h.      B        0x1cbd2 ; spi_psram_nonblocking_transfer + 242
        0x0001cb00:    f3c70009    ....    UBFX     r0,r7,#0,#10
        0x0001cb04:    f5c06080    ...`    RSB      r0,r0,#0x400
        0x0001cb08:    9001        ..      STR      r0,[sp,#4]
        0x0001cb0a:    f1bb0f00    ....    CMP      r11,#0
        0x0001cb0e:    d019        ..      BEQ      0x1cb44 ; spi_psram_nonblocking_transfer + 100
        0x0001cb10:    68a9        .h      LDR      r1,[r5,#8]
        0x0001cb12:    9801        ..      LDR      r0,[sp,#4]
        0x0001cb14:    4281        .B      CMP      r1,r0
        0x0001cb16:    d201        ..      BCS      0x1cb1c ; spi_psram_nonblocking_transfer + 60
        0x0001cb18:    68a8        .h      LDR      r0,[r5,#8]
        0x0001cb1a:    e000        ..      B        0x1cb1e ; spi_psram_nonblocking_transfer + 62
        0x0001cb1c:    9801        ..      LDR      r0,[sp,#4]
        0x0001cb1e:    9000        ..      STR      r0,[sp,#0]
        0x0001cb20:    9800        ..      LDR      r0,[sp,#0]
        0x0001cb22:    4284        .B      CMP      r4,r0
        0x0001cb24:    d901        ..      BLS      0x1cb2a ; spi_psram_nonblocking_transfer + 74
        0x0001cb26:    9800        ..      LDR      r0,[sp,#0]
        0x0001cb28:    e000        ..      B        0x1cb2c ; spi_psram_nonblocking_transfer + 76
        0x0001cb2a:    4620         F      MOV      r0,r4
        0x0001cb2c:    4606        .F      MOV      r6,r0
        0x0001cb2e:    4633        3F      MOV      r3,r6
        0x0001cb30:    463a        :F      MOV      r2,r7
        0x0001cb32:    4641        AF      MOV      r1,r8
        0x0001cb34:    4650        PF      MOV      r0,r10
        0x0001cb36:    f7fffa75    ..u.    BL       create_iom_write_transaction ; 0x1c024
        0x0001cb3a:    4828        (H      LDR      r0,[pc,#160] ; [0x1cbdc] = 0x10004394
        0x0001cb3c:    9004        ..      STR      r0,[sp,#0x10]
        0x0001cb3e:    2007        .       MOVS     r0,#7
        0x0001cb40:    9005        ..      STR      r0,[sp,#0x14]
        0x0001cb42:    e01b        ..      B        0x1cb7c ; spi_psram_nonblocking_transfer + 156
        0x0001cb44:    68a8        .h      LDR      r0,[r5,#8]
        0x0001cb46:    1ec0        ..      SUBS     r0,r0,#3
        0x0001cb48:    9901        ..      LDR      r1,[sp,#4]
        0x0001cb4a:    4288        .B      CMP      r0,r1
        0x0001cb4c:    d202        ..      BCS      0x1cb54 ; spi_psram_nonblocking_transfer + 116
        0x0001cb4e:    68a8        .h      LDR      r0,[r5,#8]
        0x0001cb50:    1ec0        ..      SUBS     r0,r0,#3
        0x0001cb52:    e000        ..      B        0x1cb56 ; spi_psram_nonblocking_transfer + 118
        0x0001cb54:    9801        ..      LDR      r0,[sp,#4]
        0x0001cb56:    9000        ..      STR      r0,[sp,#0]
        0x0001cb58:    9800        ..      LDR      r0,[sp,#0]
        0x0001cb5a:    4284        .B      CMP      r4,r0
        0x0001cb5c:    d901        ..      BLS      0x1cb62 ; spi_psram_nonblocking_transfer + 130
        0x0001cb5e:    9800        ..      LDR      r0,[sp,#0]
        0x0001cb60:    e000        ..      B        0x1cb64 ; spi_psram_nonblocking_transfer + 132
        0x0001cb62:    4620         F      MOV      r0,r4
        0x0001cb64:    4606        .F      MOV      r6,r0
        0x0001cb66:    4633        3F      MOV      r3,r6
        0x0001cb68:    463a        :F      MOV      r2,r7
        0x0001cb6a:    4641        AF      MOV      r1,r8
        0x0001cb6c:    4650        PF      MOV      r0,r10
        0x0001cb6e:    f7fffa37    ..7.    BL       create_iom_read_transaction ; 0x1bfe0
        0x0001cb72:    481b        .H      LDR      r0,[pc,#108] ; [0x1cbe0] = 0x1000435c
        0x0001cb74:    9004        ..      STR      r0,[sp,#0x10]
        0x0001cb76:    2007        .       MOVS     r0,#7
        0x0001cb78:    9005        ..      STR      r0,[sp,#0x14]
        0x0001cb7a:    bf00        ..      NOP      
        0x0001cb7c:    42a6        .B      CMP      r6,r4
        0x0001cb7e:    d101        ..      BNE      0x1cb84 ; spi_psram_nonblocking_transfer + 164
        0x0001cb80:    2001        .       MOVS     r0,#1
        0x0001cb82:    e000        ..      B        0x1cb86 ; spi_psram_nonblocking_transfer + 166
        0x0001cb84:    2000        .       MOVS     r0,#0
        0x0001cb86:    4681        .F      MOV      r9,r0
        0x0001cb88:    f1b90f00    ....    CMP      r9,#0
        0x0001cb8c:    d001        ..      BEQ      0x1cb92 ; spi_psram_nonblocking_transfer + 178
        0x0001cb8e:    9814        ..      LDR      r0,[sp,#0x50]
        0x0001cb90:    9003        ..      STR      r0,[sp,#0xc]
        0x0001cb92:    f1b90f00    ....    CMP      r9,#0
        0x0001cb96:    d001        ..      BEQ      0x1cb9c ; spi_psram_nonblocking_transfer + 188
        0x0001cb98:    9815        ..      LDR      r0,[sp,#0x54]
        0x0001cb9a:    e000        ..      B        0x1cb9e ; spi_psram_nonblocking_transfer + 190
        0x0001cb9c:    2000        .       MOVS     r0,#0
        0x0001cb9e:    9006        ..      STR      r0,[sp,#0x18]
        0x0001cba0:    f1b90f00    ....    CMP      r9,#0
        0x0001cba4:    d001        ..      BEQ      0x1cbaa ; spi_psram_nonblocking_transfer + 202
        0x0001cba6:    9816        ..      LDR      r0,[sp,#0x58]
        0x0001cba8:    e000        ..      B        0x1cbac ; spi_psram_nonblocking_transfer + 204
        0x0001cbaa:    2000        .       MOVS     r0,#0
        0x0001cbac:    9007        ..      STR      r0,[sp,#0x1c]
        0x0001cbae:    2000        .       MOVS     r0,#0
        0x0001cbb0:    9008        ..      STR      r0,[sp,#0x20]
        0x0001cbb2:    aa02        ..      ADD      r2,sp,#8
        0x0001cbb4:    210e        .!      MOVS     r1,#0xe
        0x0001cbb6:    68e8        .h      LDR      r0,[r5,#0xc]
        0x0001cbb8:    f7fdf95a    ..Z.    BL       am_hal_iom_control ; 0x19e70
        0x0001cbbc:    b118        ..      CBZ      r0,0x1cbc6 ; spi_psram_nonblocking_transfer + 230
        0x0001cbbe:    2001        .       MOVS     r0,#1
        0x0001cbc0:    b009        ..      ADD      sp,sp,#0x24
        0x0001cbc2:    e8bd8ff0    ....    POP      {r4-r11,pc}
        0x0001cbc6:    1ba4        ..      SUBS     r4,r4,r6
        0x0001cbc8:    44b0        .D      ADD      r8,r8,r6
        0x0001cbca:    4437        7D      ADD      r7,r7,r6
        0x0001cbcc:    2000        .       MOVS     r0,#0
        0x0001cbce:    9002        ..      STR      r0,[sp,#8]
        0x0001cbd0:    bf00        ..      NOP      
        0x0001cbd2:    2c00        .,      CMP      r4,#0
        0x0001cbd4:    d194        ..      BNE      0x1cb00 ; spi_psram_nonblocking_transfer + 32
        0x0001cbd6:    2000        .       MOVS     r0,#0
        0x0001cbd8:    e7f2        ..      B        0x1cbc0 ; spi_psram_nonblocking_transfer + 224
    $d
        0x0001cbda:    0000        ..      DCW    0
        0x0001cbdc:    10004394    .C..    DCD    268452756
        0x0001cbe0:    1000435c    \C..    DCD    268452700
    $t
    i.timer_config_b1
    timer_config_b1
        0x0001cbe4:    e92d01f0    -...    PUSH     {r4-r8}
        0x0001cbe8:    4d63        cM      LDR      r5,[pc,#396] ; [0x1cd78] = 0x100089ec
        0x0001cbea:    e9d12c02    ...,    LDRD     r2,r12,[r1,#8]
        0x0001cbee:    2400        .$      MOVS     r4,#0
        0x0001cbf0:    690b        .i      LDR      r3,[r1,#0x10]
        0x0001cbf2:    f8054020    .. @    STRB     r4,[r5,r0,LSL #2]
        0x0001cbf6:    eb050580    ....    ADD      r5,r5,r0,LSL #2
        0x0001cbfa:    706c        lp      STRB     r4,[r5,#1]
        0x0001cbfc:    70ac        .p      STRB     r4,[r5,#2]
        0x0001cbfe:    70ec        .p      STRB     r4,[r5,#3]
        0x0001cc00:    784c        Lx      LDRB     r4,[r1,#1]
        0x0001cc02:    2c0f        .,      CMP      r4,#0xf
        0x0001cc04:    d23d        =.      BCS      0x1cc82 ; timer_config_b1 + 158
        0x0001cc06:    e8dff004    ....    TBB      [pc,r4]
    $d
        0x0001cc0a:    085d        ].      DCW    2141
        0x0001cc0c:    3c153c18    .<.<    DCD    1008024600
        0x0001cc10:    3c3c3c5d    ]<<<    DCD    1010580573
        0x0001cc14:    33243c3c    <<$3    DCD    858012732
        0x0001cc18:    005d        ].      DCW    93
    $t
        0x0001cc1a:    4c57        WL      LDR      r4,[pc,#348] ; [0x1cd78] = 0x100089ec
        0x0001cc1c:    2501        .%      MOVS     r5,#1
        0x0001cc1e:    eb040480    ....    ADD      r4,r4,r0,LSL #2
        0x0001cc22:    f1bc3fff    ...?    CMP      r12,#0xffffffff
        0x0001cc26:    70e5        .p      STRB     r5,[r4,#3]
        0x0001cc28:    70a5        .p      STRB     r5,[r4,#2]
        0x0001cc2a:    d14b        K.      BNE      0x1ccc4 ; timer_config_b1 + 224
        0x0001cc2c:    1c5c        \.      ADDS     r4,r3,#1
        0x0001cc2e:    bf18        ..      IT       NE
        0x0001cc30:    46a4        .F      MOVNE    r12,r4
        0x0001cc32:    e026        &.      B        0x1cc82 ; timer_config_b1 + 158
        0x0001cc34:    2a00        .*      CMP      r2,#0
        0x0001cc36:    d14e        N.      BNE      0x1ccd6 ; timer_config_b1 + 242
        0x0001cc38:    e023        #.      B        0x1cc82 ; timer_config_b1 + 158
        0x0001cc3a:    4e4f        ON      LDR      r6,[pc,#316] ; [0x1cd78] = 0x100089ec
        0x0001cc3c:    2401        .$      MOVS     r4,#1
        0x0001cc3e:    eb060580    ....    ADD      r5,r6,r0,LSL #2
        0x0001cc42:    2a00        .*      CMP      r2,#0
        0x0001cc44:    706c        lp      STRB     r4,[r5,#1]
        0x0001cc46:    f8064020    .. @    STRB     r4,[r6,r0,LSL #2]
        0x0001cc4a:    70ec        .p      STRB     r4,[r5,#3]
        0x0001cc4c:    70ac        .p      STRB     r4,[r5,#2]
        0x0001cc4e:    d142        B.      BNE      0x1ccd6 ; timer_config_b1 + 242
        0x0001cc50:    e017        ..      B        0x1cc82 ; timer_config_b1 + 158
        0x0001cc52:    688b        .h      LDR      r3,[r1,#8]
        0x0001cc54:    2b20         +      CMP      r3,#0x20
        0x0001cc56:    d835        5.      BHI      0x1ccc4 ; timer_config_b1 + 224
        0x0001cc58:    1e13        ..      SUBS     r3,r2,#0
        0x0001cc5a:    bf18        ..      IT       NE
        0x0001cc5c:    1c5a        Z.      ADDNE    r2,r3,#1
        0x0001cc5e:    2401        .$      MOVS     r4,#1
        0x0001cc60:    4d45        EM      LDR      r5,[pc,#276] ; [0x1cd78] = 0x100089ec
        0x0001cc62:    f8054020    .. @    STRB     r4,[r5,r0,LSL #2]
        0x0001cc66:    eb050580    ....    ADD      r5,r5,r0,LSL #2
        0x0001cc6a:    70ec        .p      STRB     r4,[r5,#3]
        0x0001cc6c:    70ac        .p      STRB     r4,[r5,#2]
        0x0001cc6e:    e008        ..      B        0x1cc82 ; timer_config_b1 + 158
        0x0001cc70:    4d41        AM      LDR      r5,[pc,#260] ; [0x1cd78] = 0x100089ec
        0x0001cc72:    2401        .$      MOVS     r4,#1
        0x0001cc74:    f8054020    .. @    STRB     r4,[r5,r0,LSL #2]
        0x0001cc78:    eb050580    ....    ADD      r5,r5,r0,LSL #2
        0x0001cc7c:    706c        lp      STRB     r4,[r5,#1]
        0x0001cc7e:    70ac        .p      STRB     r4,[r5,#2]
        0x0001cc80:    70ec        .p      STRB     r4,[r5,#3]
        0x0001cc82:    780e        .x      LDRB     r6,[r1,#0]
        0x0001cc84:    f1a60420    .. .    SUB      r4,r6,#0x20
        0x0001cc88:    2c1f        .,      CMP      r4,#0x1f
        0x0001cc8a:    d80a        ..      BHI      0x1cca2 ; timer_config_b1 + 190
        0x0001cc8c:    1065        e.      ASRS     r5,r4,#1
        0x0001cc8e:    f0160401    ....    ANDS     r4,r6,#1
        0x0001cc92:    d01b        ..      BEQ      0x1cccc ; timer_config_b1 + 232
        0x0001cc94:    b12c        ,.      CBZ      r4,0x1cca2 ; timer_config_b1 + 190
        0x0001cc96:    4c38        8L      LDR      r4,[pc,#224] ; [0x1cd78] = 0x100089ec
        0x0001cc98:    eb040485    ....    ADD      r4,r4,r5,LSL #2
        0x0001cc9c:    78a4        .x      LDRB     r4,[r4,#2]
        0x0001cc9e:    2c00        .,      CMP      r4,#0
        0x0001cca0:    d065        e.      BEQ      0x1cd6e ; timer_config_b1 + 394
        0x0001cca2:    790c        .y      LDRB     r4,[r1,#4]
        0x0001cca4:    b1e4        ..      CBZ      r4,0x1cce0 ; timer_config_b1 + 252
        0x0001cca6:    794d        My      LDRB     r5,[r1,#5]
        0x0001cca8:    2d1f        .-      CMP      r5,#0x1f
        0x0001ccaa:    d819        ..      BHI      0x1cce0 ; timer_config_b1 + 252
        0x0001ccac:    086c        l.      LSRS     r4,r5,#1
        0x0001ccae:    f0150501    ....    ANDS     r5,r5,#1
        0x0001ccb2:    d011        ..      BEQ      0x1ccd8 ; timer_config_b1 + 244
        0x0001ccb4:    b1a5        ..      CBZ      r5,0x1cce0 ; timer_config_b1 + 252
        0x0001ccb6:    4d30        0M      LDR      r5,[pc,#192] ; [0x1cd78] = 0x100089ec
        0x0001ccb8:    eb050484    ....    ADD      r4,r5,r4,LSL #2
        0x0001ccbc:    78a4        .x      LDRB     r4,[r4,#2]
        0x0001ccbe:    2c00        .,      CMP      r4,#0
        0x0001ccc0:    d055        U.      BEQ      0x1cd6e ; timer_config_b1 + 394
        0x0001ccc2:    e00d        ..      B        0x1cce0 ; timer_config_b1 + 252
        0x0001ccc4:    e8bd01f0    ....    POP      {r4-r8}
        0x0001ccc8:    2007        .       MOVS     r0,#7
        0x0001ccca:    4770        pG      BX       lr
        0x0001cccc:    4c2a        *L      LDR      r4,[pc,#168] ; [0x1cd78] = 0x100089ec
        0x0001ccce:    f8144025    ..%@    LDRB     r4,[r4,r5,LSL #2]
        0x0001ccd2:    2c00        .,      CMP      r4,#0
        0x0001ccd4:    d1e5        ..      BNE      0x1cca2 ; timer_config_b1 + 190
        0x0001ccd6:    e04a        J.      B        0x1cd6e ; timer_config_b1 + 394
        0x0001ccd8:    4d27        'M      LDR      r5,[pc,#156] ; [0x1cd78] = 0x100089ec
        0x0001ccda:    f8154024    ..$@    LDRB     r4,[r5,r4,LSL #2]
        0x0001ccde:    b3e4        ..      CBZ      r4,0x1cd5a ; timer_config_b1 + 374
        0x0001cce0:    4c26        &L      LDR      r4,[pc,#152] ; [0x1cd7c] = 0x40008000
        0x0001cce2:    f8d46104    ...a    LDR      r6,[r4,#0x104]
        0x0001cce6:    2501        .%      MOVS     r5,#1
        0x0001cce8:    4085        .@      LSLS     r5,r5,r0
        0x0001ccea:    43ae        .C      BICS     r6,r6,r5
        0x0001ccec:    f8c46104    ...a    STR      r6,[r4,#0x104]
        0x0001ccf0:    784f        Ox      LDRB     r7,[r1,#1]
        0x0001ccf2:    780e        .x      LDRB     r6,[r1,#0]
        0x0001ccf4:    f04f08f0    O...    MOV      r8,#0xf0
        0x0001ccf8:    ea081707    ....    AND      r7,r8,r7,LSL #4
        0x0001ccfc:    ea472606    G..&    ORR      r6,r7,r6,LSL #8
        0x0001cd00:    78cf        .x      LDRB     r7,[r1,#3]
        0x0001cd02:    f04f0808    O...    MOV      r8,#8
        0x0001cd06:    ea0807c7    ....    AND      r7,r8,r7,LSL #3
        0x0001cd0a:    433e        >C      ORRS     r6,r6,r7
        0x0001cd0c:    788f        .x      LDRB     r7,[r1,#2]
        0x0001cd0e:    f04f0804    O...    MOV      r8,#4
        0x0001cd12:    ea080787    ....    AND      r7,r8,r7,LSL #2
        0x0001cd16:    433e        >C      ORRS     r6,r6,r7
        0x0001cd18:    790f        .y      LDRB     r7,[r1,#4]
        0x0001cd1a:    f44f3840    O.@8    MOV      r8,#0x30000
        0x0001cd1e:    7949        Iy      LDRB     r1,[r1,#5]
        0x0001cd20:    ea084707    ...G    AND      r7,r8,r7,LSL #16
        0x0001cd24:    433e        >C      ORRS     r6,r6,r7
        0x0001cd26:    0209        ..      LSLS     r1,r1,#8
        0x0001cd28:    0140        @.      LSLS     r0,r0,#5
        0x0001cd2a:    4420         D      ADD      r0,r0,r4
        0x0001cd2c:    ea466202    F..b    ORR      r2,r6,r2,LSL #24
        0x0001cd30:    f8d06200    ...b    LDR      r6,[r0,#0x200]
        0x0001cd34:    f0260601    &...    BIC      r6,r6,#1
        0x0001cd38:    f8c06200    ...b    STR      r6,[r0,#0x200]
        0x0001cd3c:    f8c02200    ..."    STR      r2,[r0,#0x200]
        0x0001cd40:    f8c01210    ....    STR      r1,[r0,#0x210]
        0x0001cd44:    f8c0c208    ....    STR      r12,[r0,#0x208]
        0x0001cd48:    f8c0320c    ...2    STR      r3,[r0,#0x20c]
        0x0001cd4c:    f8d01200    ....    LDR      r1,[r0,#0x200]
        0x0001cd50:    f0410102    A...    ORR      r1,r1,#2
        0x0001cd54:    f8c01200    ....    STR      r1,[r0,#0x200]
        0x0001cd58:    e000        ..      B        0x1cd5c ; timer_config_b1 + 376
        0x0001cd5a:    e008        ..      B        0x1cd6e ; timer_config_b1 + 394
        0x0001cd5c:    f8d40104    ....    LDR      r0,[r4,#0x104]
        0x0001cd60:    4328        (C      ORRS     r0,r0,r5
        0x0001cd62:    f8c40104    ....    STR      r0,[r4,#0x104]
        0x0001cd66:    e8bd01f0    ....    POP      {r4-r8}
        0x0001cd6a:    2000        .       MOVS     r0,#0
        0x0001cd6c:    4770        pG      BX       lr
        0x0001cd6e:    e8bd01f0    ....    POP      {r4-r8}
        0x0001cd72:    2006        .       MOVS     r0,#6
        0x0001cd74:    4770        pG      BX       lr
    $d
        0x0001cd76:    0000        ..      DCW    0
        0x0001cd78:    100089ec    ....    DCD    268470764
        0x0001cd7c:    40008000    ...@    DCD    1073774592
    $t
    i.timer_init
    timer_init
        0x0001cd80:    b500        ..      PUSH     {lr}
        0x0001cd82:    b085        ..      SUB      sp,sp,#0x14
        0x0001cd84:    4668        hF      MOV      r0,sp
        0x0001cd86:    f7fefd0b    ....    BL       am_hal_timer_default_config_set ; 0x1b7a0
        0x0001cd8a:    2002        .       MOVS     r0,#2
        0x0001cd8c:    f88d0001    ....    STRB     r0,[sp,#1]
        0x0001cd90:    2000        .       MOVS     r0,#0
        0x0001cd92:    9002        ..      STR      r0,[sp,#8]
        0x0001cd94:    4808        .H      LDR      r0,[pc,#32] ; [0x1cdb8] = 0x5b8d80
        0x0001cd96:    9004        ..      STR      r0,[sp,#0x10]
        0x0001cd98:    4669        iF      MOV      r1,sp
        0x0001cd9a:    2000        .       MOVS     r0,#0
        0x0001cd9c:    f7fefcfa    ....    BL       am_hal_timer_config ; 0x1b794
        0x0001cda0:    b110        ..      CBZ      r0,0x1cda8 ; timer_init + 40
        0x0001cda2:    a006        ..      ADR      r0,{pc}+0x1a ; 0x1cdbc
        0x0001cda4:    f7fefed4    ....    BL       am_util_stdio_printf ; 0x1bb50
        0x0001cda8:    2000        .       MOVS     r0,#0
        0x0001cdaa:    f7fefcc3    ....    BL       am_hal_timer_clear ; 0x1b734
        0x0001cdae:    2002        .       MOVS     r0,#2
        0x0001cdb0:    f7fefd04    ....    BL       am_hal_timer_interrupt_clear ; 0x1b7bc
        0x0001cdb4:    b005        ..      ADD      sp,sp,#0x14
        0x0001cdb6:    bd00        ..      POP      {pc}
    $d
        0x0001cdb8:    005b8d80    ..[.    DCD    6000000
        0x0001cdbc:    6c696146    Fail    DCD    1818845510
        0x0001cdc0:    74206465    ed t    DCD    1948279909
        0x0001cdc4:    6f63206f    o co    DCD    1868767343
        0x0001cdc8:    6769666e    nfig    DCD    1734960750
        0x0001cdcc:    20657275    ure     DCD    543519349
        0x0001cdd0:    454d4954    TIME    DCD    1162692948
        0x0001cdd4:    000a3052    R0..    DCD    667730
    $t
    i.uint64_to_hexstr
    uint64_to_hexstr
        0x0001cdd8:    e92d41f0    -..A    PUSH     {r4-r8,lr}
        0x0001cddc:    b085        ..      SUB      sp,sp,#0x14
        0x0001cdde:    4604        .F      MOV      r4,r0
        0x0001cde0:    460d        .F      MOV      r5,r1
        0x0001cde2:    461e        .F      MOV      r6,r3
        0x0001cde4:    2100        .!      MOVS     r1,#0
        0x0001cde6:    468c        .F      MOV      r12,r1
        0x0001cde8:    ea84070c    ....    EOR      r7,r4,r12
        0x0001cdec:    ea850c0c    ....    EOR      r12,r5,r12
        0x0001cdf0:    ea57070c    W...    ORRS     r7,r7,r12
        0x0001cdf4:    d105        ..      BNE      0x1ce02 ; uint64_to_hexstr + 42
        0x0001cdf6:    f04f0830    O.0.    MOV      r8,#0x30
        0x0001cdfa:    460f        .F      MOV      r7,r1
        0x0001cdfc:    1c49        I.      ADDS     r1,r1,#1
        0x0001cdfe:    f80d8007    ....    STRB     r8,[sp,r7]
        0x0001ce02:    e016        ..      B        0x1ce32 ; uint64_to_hexstr + 90
        0x0001ce04:    270f        .'      MOVS     r7,#0xf
        0x0001ce06:    4027        '@      ANDS     r7,r7,r4
        0x0001ce08:    b2fb        ..      UXTB     r3,r7
        0x0001ce0a:    2b09        .+      CMP      r3,#9
        0x0001ce0c:    dd05        ..      BLE      0x1ce1a ; uint64_to_hexstr + 66
        0x0001ce0e:    b10e        ..      CBZ      r6,0x1ce14 ; uint64_to_hexstr + 60
        0x0001ce10:    2727        ''      MOVS     r7,#0x27
        0x0001ce12:    e000        ..      B        0x1ce16 ; uint64_to_hexstr + 62
        0x0001ce14:    2707        .'      MOVS     r7,#7
        0x0001ce16:    441f        .D      ADD      r7,r7,r3
        0x0001ce18:    b2fb        ..      UXTB     r3,r7
        0x0001ce1a:    f1030730    ..0.    ADD      r7,r3,#0x30
        0x0001ce1e:    f00708ff    ....    AND      r8,r7,#0xff
        0x0001ce22:    460f        .F      MOV      r7,r1
        0x0001ce24:    1c49        I.      ADDS     r1,r1,#1
        0x0001ce26:    f80d8007    ....    STRB     r8,[sp,r7]
        0x0001ce2a:    0927        '.      LSRS     r7,r4,#4
        0x0001ce2c:    ea477405    G..t    ORR      r4,r7,r5,LSL #28
        0x0001ce30:    092d        -.      LSRS     r5,r5,#4
        0x0001ce32:    f04f0c00    O...    MOV      r12,#0
        0x0001ce36:    ea84070c    ....    EOR      r7,r4,r12
        0x0001ce3a:    ea850c0c    ....    EOR      r12,r5,r12
        0x0001ce3e:    ea57070c    W...    ORRS     r7,r7,r12
        0x0001ce42:    d1df        ..      BNE      0x1ce04 ; uint64_to_hexstr + 44
        0x0001ce44:    4608        .F      MOV      r0,r1
        0x0001ce46:    b14a        J.      CBZ      r2,0x1ce5c ; uint64_to_hexstr + 132
        0x0001ce48:    e003        ..      B        0x1ce52 ; uint64_to_hexstr + 122
        0x0001ce4a:    f81d7001    ...p    LDRB     r7,[sp,r1]
        0x0001ce4e:    f8027b01    ...{    STRB     r7,[r2],#1
        0x0001ce52:    1e0f        ..      SUBS     r7,r1,#0
        0x0001ce54:    f1a10101    ....    SUB      r1,r1,#1
        0x0001ce58:    d1f7        ..      BNE      0x1ce4a ; uint64_to_hexstr + 114
        0x0001ce5a:    7017        .p      STRB     r7,[r2,#0]
        0x0001ce5c:    b005        ..      ADD      sp,sp,#0x14
        0x0001ce5e:    e8bd81f0    ....    POP      {r4-r8,pc}
    i.uint64_to_str
    uint64_to_str
        0x0001ce62:    e92d4ff0    -..O    PUSH     {r4-r11,lr}
        0x0001ce66:    b087        ..      SUB      sp,sp,#0x1c
        0x0001ce68:    4607        .F      MOV      r7,r0
        0x0001ce6a:    4688        .F      MOV      r8,r1
        0x0001ce6c:    4616        .F      MOV      r6,r2
        0x0001ce6e:    f04f0900    O...    MOV      r9,#0
        0x0001ce72:    46cb        .F      MOV      r11,r9
        0x0001ce74:    bf00        ..      NOP      
        0x0001ce76:    4638        8F      MOV      r0,r7
        0x0001ce78:    4641        AF      MOV      r1,r8
        0x0001ce7a:    f7fff916    ....    BL       divu64_10 ; 0x1c0aa
        0x0001ce7e:    4604        .F      MOV      r4,r0
        0x0001ce80:    460d        .F      MOV      r5,r1
        0x0001ce82:    210a        .!      MOVS     r1,#0xa
        0x0001ce84:    fba40101    ....    UMULL    r0,r1,r4,r1
        0x0001ce88:    ebb70a00    ....    SUBS     r10,r7,r0
        0x0001ce8c:    f10a0030    ..0.    ADD      r0,r10,#0x30
        0x0001ce90:    b2c2        ..      UXTB     r2,r0
        0x0001ce92:    4648        HF      MOV      r0,r9
        0x0001ce94:    f1090901    ....    ADD      r9,r9,#1
        0x0001ce98:    f80d2000    ...     STRB     r2,[sp,r0]
        0x0001ce9c:    4627        'F      MOV      r7,r4
        0x0001ce9e:    46a8        .F      MOV      r8,r5
        0x0001cea0:    f04f0200    O...    MOV      r2,#0
        0x0001cea4:    ea870002    ....    EOR      r0,r7,r2
        0x0001cea8:    ea880102    ....    EOR      r1,r8,r2
        0x0001ceac:    4308        .C      ORRS     r0,r0,r1
        0x0001ceae:    d1e2        ..      BNE      0x1ce76 ; uint64_to_str + 20
        0x0001ceb0:    46cb        .F      MOV      r11,r9
        0x0001ceb2:    b156        V.      CBZ      r6,0x1ceca ; uint64_to_str + 104
        0x0001ceb4:    e003        ..      B        0x1cebe ; uint64_to_str + 92
        0x0001ceb6:    f81d0009    ....    LDRB     r0,[sp,r9]
        0x0001ceba:    f8060b01    ....    STRB     r0,[r6],#1
        0x0001cebe:    f1b90000    ....    SUBS     r0,r9,#0
        0x0001cec2:    f1a90901    ....    SUB      r9,r9,#1
        0x0001cec6:    d1f6        ..      BNE      0x1ceb6 ; uint64_to_str + 84
        0x0001cec8:    7030        0p      STRB     r0,[r6,#0]
        0x0001ceca:    4658        XF      MOV      r0,r11
        0x0001cecc:    b007        ..      ADD      sp,sp,#0x1c
        0x0001cece:    e8bd8ff0    ....    POP      {r4-r11,pc}
        0x0001ced2:    0000        ..      MOVS     r0,r0
    i.validate_transaction
    validate_transaction
        0x0001ced4:    e92d47f0    -..G    PUSH     {r4-r10,lr}
        0x0001ced8:    460c        .F      MOV      r4,r1
        0x0001ceda:    4682        .F      MOV      r10,r0
        0x0001cedc:    e9d40601    ....    LDRD     r0,r6,[r4,#4]
        0x0001cee0:    f8918014    ....    LDRB     r8,[r1,#0x14]
        0x0001cee4:    68cf        .h      LDR      r7,[r1,#0xc]
        0x0001cee6:    690d        .i      LDR      r5,[r1,#0x10]
        0x0001cee8:    4691        .F      MOV      r9,r2
        0x0001ceea:    2805        .(      CMP      r0,#5
        0x0001ceec:    d834        4.      BHI      0x1cf58 ; validate_transaction + 132
        0x0001ceee:    00c2        ..      LSLS     r2,r0,#3
        0x0001cef0:    f04f30ff    O..0    MOV      r0,#0xffffffff
        0x0001cef4:    4601        .F      MOV      r1,r0
        0x0001cef6:    f7fbfa47    ..G.    BL       __aeabi_llsl ; 0x18388
        0x0001cefa:    460a        .F      MOV      r2,r1
        0x0001cefc:    ea000106    ....    AND      r1,r0,r6
        0x0001cf00:    ea020007    ....    AND      r0,r2,r7
        0x0001cf04:    4308        .C      ORRS     r0,r0,r1
        0x0001cf06:    d127        '.      BNE      0x1cf58 ; validate_transaction + 132
        0x0001cf08:    b14d        M.      CBZ      r5,0x1cf1e ; validate_transaction + 74
        0x0001cf0a:    f1b80f00    ....    CMP      r8,#0
        0x0001cf0e:    d004        ..      BEQ      0x1cf1a ; validate_transaction + 70
        0x0001cf10:    69e0        .i      LDR      r0,[r4,#0x1c]
        0x0001cf12:    b308        ..      CBZ      r0,0x1cf58 ; validate_transaction + 132
        0x0001cf14:    f1b80f01    ....    CMP      r8,#1
        0x0001cf18:    d001        ..      BEQ      0x1cf1e ; validate_transaction + 74
        0x0001cf1a:    69a0        .i      LDR      r0,[r4,#0x18]
        0x0001cf1c:    b1e0        ..      CBZ      r0,0x1cf58 ; validate_transaction + 132
        0x0001cf1e:    f89a0008    ....    LDRB     r0,[r10,#8]
        0x0001cf22:    2801        .(      CMP      r0,#1
        0x0001cf24:    d001        ..      BEQ      0x1cf2a ; validate_transaction + 86
        0x0001cf26:    b138        8.      CBZ      r0,0x1cf38 ; validate_transaction + 100
        0x0001cf28:    e002        ..      B        0x1cf30 ; validate_transaction + 92
        0x0001cf2a:    f5b55f80    ..._    CMP      r5,#0x1000
        0x0001cf2e:    d213        ..      BCS      0x1cf58 ; validate_transaction + 132
        0x0001cf30:    f1b90f00    ....    CMP      r9,#0
        0x0001cf34:    d007        ..      BEQ      0x1cf46 ; validate_transaction + 114
        0x0001cf36:    e012        ..      B        0x1cf5e ; validate_transaction + 138
        0x0001cf38:    6820         h      LDR      r0,[r4,#0]
        0x0001cf3a:    2804        .(      CMP      r0,#4
        0x0001cf3c:    bf98        ..      IT       LS
        0x0001cf3e:    f5b55f80    ..._    CMPLS    r5,#0x1000
        0x0001cf42:    d3f5        ..      BCC      0x1cf30 ; validate_transaction + 92
        0x0001cf44:    e008        ..      B        0x1cf58 ; validate_transaction + 132
        0x0001cf46:    f8940024    ..$.    LDRB     r0,[r4,#0x24]
        0x0001cf4a:    f0100fe0    ....    TST      r0,#0xe0
        0x0001cf4e:    d103        ..      BNE      0x1cf58 ; validate_transaction + 132
        0x0001cf50:    4904        .I      LDR      r1,[pc,#16] ; [0x1cf64] = 0xe0e0e0
        0x0001cf52:    6aa0        .j      LDR      r0,[r4,#0x28]
        0x0001cf54:    4208        .B      TST      r0,r1
        0x0001cf56:    d002        ..      BEQ      0x1cf5e ; validate_transaction + 138
        0x0001cf58:    2006        .       MOVS     r0,#6
        0x0001cf5a:    e8bd87f0    ....    POP      {r4-r10,pc}
        0x0001cf5e:    2000        .       MOVS     r0,#0
        0x0001cf60:    e8bd87f0    ....    POP      {r4-r10,pc}
    $d
        0x0001cf64:    00e0e0e0    ....    DCD    14737632
    $t
    i.verify_psram_data
    verify_psram_data
        0x0001cf68:    b510        ..      PUSH     {r4,lr}
        0x0001cf6a:    2000        .       MOVS     r0,#0
        0x0001cf6c:    490c        .I      LDR      r1,[pc,#48] ; [0x1cfa0] = 0x10000001
        0x0001cf6e:    7008        .p      STRB     r0,[r1,#0]
        0x0001cf70:    2400        .$      MOVS     r4,#0
        0x0001cf72:    e011        ..      B        0x1cf98 ; verify_psram_data + 48
        0x0001cf74:    480b        .H      LDR      r0,[pc,#44] ; [0x1cfa4] = 0x10000248
        0x0001cf76:    5d00        .]      LDRB     r0,[r0,r4]
        0x0001cf78:    490b        .I      LDR      r1,[pc,#44] ; [0x1cfa8] = 0x100002c8
        0x0001cf7a:    5d09        .]      LDRB     r1,[r1,r4]
        0x0001cf7c:    4288        .B      CMP      r0,r1
        0x0001cf7e:    d00a        ..      BEQ      0x1cf96 ; verify_psram_data + 46
        0x0001cf80:    4809        .H      LDR      r0,[pc,#36] ; [0x1cfa8] = 0x100002c8
        0x0001cf82:    5d03        .]      LDRB     r3,[r0,r4]
        0x0001cf84:    4807        .H      LDR      r0,[pc,#28] ; [0x1cfa4] = 0x10000248
        0x0001cf86:    5d02        .]      LDRB     r2,[r0,r4]
        0x0001cf88:    4621        !F      MOV      r1,r4
        0x0001cf8a:    4808        .H      LDR      r0,[pc,#32] ; [0x1cfac] = 0x1d5dc
        0x0001cf8c:    f7fefde0    ....    BL       am_util_stdio_printf ; 0x1bb50
        0x0001cf90:    f04f30ff    O..0    MOV      r0,#0xffffffff
        0x0001cf94:    bd10        ..      POP      {r4,pc}
        0x0001cf96:    1c64        d.      ADDS     r4,r4,#1
        0x0001cf98:    2c80        .,      CMP      r4,#0x80
        0x0001cf9a:    d3eb        ..      BCC      0x1cf74 ; verify_psram_data + 12
        0x0001cf9c:    2000        .       MOVS     r0,#0
        0x0001cf9e:    e7f9        ..      B        0x1cf94 ; verify_psram_data + 44
    $d
        0x0001cfa0:    10000001    ....    DCD    268435457
        0x0001cfa4:    10000248    H...    DCD    268436040
        0x0001cfa8:    100002c8    ....    DCD    268436168
        0x0001cfac:    0001d5dc    ....    DCD    120284
    $t
    x$fpl$d2f
    $v0
    __aeabi_d2f
    _d2f
        0x0001cfb0:    f0214200    !..B    BIC      r2,r1,#0x80000000
        0x0001cfb4:    f1a25260    ..`R    SUB      r2,r2,#0x38000000
        0x0001cfb8:    f5b21f80    ....    CMP      r2,#0x100000
        0x0001cfbc:    f0014300    ...C    AND      r3,r1,#0x80000000
        0x0001cfc0:    bf28        (.      IT       CS
        0x0001cfc2:    f1d26c7f    ...l    RSBSCS   r12,r2,#0xff00000
        0x0001cfc6:    d90b        ..      BLS      0x1cfe0 ; __aeabi_d2f + 48
        0x0001cfc8:    ea5f1c00    _...    LSLS     r12,r0,#4
        0x0001cfcc:    ea4302c2    C...    ORR      r2,r3,r2,LSL #3
        0x0001cfd0:    eb427050    B.Pp    ADC      r0,r2,r0,LSR #29
        0x0001cfd4:    bf18        ..      IT       NE
        0x0001cfd6:    4770        pG      BXNE     lr
        0x0001cfd8:    bf28        (.      IT       CS
        0x0001cfda:    f0200001     ...    BICCS    r0,r0,#1
        0x0001cfde:    4770        pG      BX       lr
        0x0001cfe0:    f5b21f80    ....    CMP      r2,#0x100000
        0x0001cfe4:    bfbc        ..      ITT      LT
        0x0001cfe6:    4618        .F      MOVLT    r0,r3
        0x0001cfe8:    4770        pG      BXLT     lr
        0x0001cfea:    ea4f0c41    O.A.    LSL      r12,r1,#1
        0x0001cfee:    f51c1f00    ....    CMN      r12,#0x200000
        0x0001cff2:    d202        ..      BCS      0x1cffa ; __aeabi_d2f + 74
        0x0001cff4:    4608        .F      MOV      r0,r1
        0x0001cff6:    f000b85f    .._.    B.W      __fpl_fretinf ; 0x1d0b8
        0x0001cffa:    b570        p.      PUSH     {r4-r6,lr}
        0x0001cffc:    f000f809    ....    BL       __fpl_dnaninf ; 0x1d012
    $d
        0x0001d000:    89000000    ....    DCD    2298478592
    $t
        0x0001d004:    f7ffbff6    ....    B.W      0x1cff4 ; __aeabi_d2f + 68
        0x0001d008:    f04f4000    O..@    MOV      r0,#0x80000000
        0x0001d00c:    f5a00080    ....    SUB      r0,r0,#0x400000
        0x0001d010:    4770        pG      BX       lr
    x$fpl$dnaninf
    $v0
    __fpl_dnaninf
        0x0001d012:    f10e0e02    ....    ADD      lr,lr,#2
        0x0001d016:    f02e0e03    ....    BIC      lr,lr,#3
        0x0001d01a:    f85e6b04    ^..k    LDR      r6,[lr],#4
        0x0001d01e:    4236        6B      TST      r6,r6
        0x0001d020:    d405        ..      BMI      0x1d02e ; __fpl_dnaninf + 28
        0x0001d022:    2a01        .*      CMP      r2,#1
        0x0001d024:    eb430503    C...    ADC      r5,r3,r3
        0x0001d028:    f5151f00    ....    CMN      r5,#0x200000
        0x0001d02c:    d812        ..      BHI      0x1d054 ; __fpl_dnaninf + 66
        0x0001d02e:    2801        .(      CMP      r0,#1
        0x0001d030:    eb410c01    A...    ADC      r12,r1,r1
        0x0001d034:    f51c1f00    ....    CMN      r12,#0x200000
        0x0001d038:    d80c        ..      BHI      0x1d054 ; __fpl_dnaninf + 66
        0x0001d03a:    d10e        ..      BNE      0x1d05a ; __fpl_dnaninf + 72
        0x0001d03c:    ea4f7cd1    O..|    LSR      r12,r1,#31
        0x0001d040:    f5151f00    ....    CMN      r5,#0x200000
        0x0001d044:    eb0c0c4c    ..L.    ADD      r12,r12,r12,LSL #1
        0x0001d048:    f10c0c02    ....    ADD      r12,r12,#2
        0x0001d04c:    bf08        ..      IT       EQ
        0x0001d04e:    eb4c7cd3    L..|    ADCEQ    r12,r12,r3,LSR #31
        0x0001d052:    e004        ..      B        0x1d05e ; __fpl_dnaninf + 76
        0x0001d054:    f04f0c08    O...    MOV      r12,#8
        0x0001d058:    e001        ..      B        0x1d05e ; __fpl_dnaninf + 76
        0x0001d05a:    ea4f7cd3    O..|    LSR      r12,r3,#31
        0x0001d05e:    eb0c054c    ..L.    ADD      r5,r12,r12,LSL #1
        0x0001d062:    fa26f605    &...    LSR      r6,r6,r5
        0x0001d066:    f0060607    ....    AND      r6,r6,#7
        0x0001d06a:    f1b60c04    ....    SUBS     r12,r6,#4
        0x0001d06e:    d206        ..      BCS      0x1d07e ; __fpl_dnaninf + 108
        0x0001d070:    eb0e0c86    ....    ADD      r12,lr,r6,LSL #2
        0x0001d074:    e8bd4070    ..p@    POP      {r4-r6,lr}
        0x0001d078:    f04c0c01    L...    ORR      r12,r12,#1
        0x0001d07c:    4760        `G      BX       r12
        0x0001d07e:    e8dff00c    ....    TBB      [pc,r12]
    $d
        0x0001d082:    0b09        ..      DCW    2825
        0x0001d084:    0202        ..      DCW    514
    $t
        0x0001d086:    f04f4100    O..A    MOV      r1,#0x80000000
        0x0001d08a:    f04f0000    O...    MOV      r0,#0
        0x0001d08e:    f5a12100    ...!    SUB      r1,r1,#0x80000
        0x0001d092:    bd70        p.      POP      {r4-r6,pc}
        0x0001d094:    4619        .F      MOV      r1,r3
        0x0001d096:    4610        .F      MOV      r0,r2
        0x0001d098:    2801        .(      CMP      r0,#1
        0x0001d09a:    eb510401    Q...    ADCS     r4,r1,r1
        0x0001d09e:    bf18        ..      IT       NE
        0x0001d0a0:    f5d41400    ....    RSBSNE   r4,r4,#0x200000
        0x0001d0a4:    bf84        ..      ITT      HI
        0x0001d0a6:    2000        .       MOVHI    r0,#0
        0x0001d0a8:    f0014100    ...A    ANDHI    r1,r1,#0x80000000
        0x0001d0ac:    bd70        p.      POP      {r4-r6,pc}
    x$fpl$fpinit
    $v0
    _fp_init
        0x0001d0ae:    f04f7040    O.@p    MOV      r0,#0x3000000
        0x0001d0b2:    eee10a10    ....    VMSR     FPSCR,r0
    __fplib_config_fpu_vfp
    __fplib_config_pureend_doubles
        0x0001d0b6:    4770        pG      BX       lr
    x$fpl$fretinf
    $v0
    __fpl_fretinf
        0x0001d0b8:    21ff        .!      MOVS     r1,#0xff
        0x0001d0ba:    ea4150d0    A..P    ORR      r0,r1,r0,LSR #23
        0x0001d0be:    05c0        ..      LSLS     r0,r0,#23
        0x0001d0c0:    4770        pG      BX       lr
    x$fpl$usenofp
    __I$use$fp
        0x0001d0c2:    0000        ..      MOVS     r0,r0
    $d.realdata
    .constdata
    __tagsym$$used
    ui32MCUAllowed
        0x0001d0c4:    00000021    !...    DCD    33
        0x0001d0c8:    00000000    ....    DCD    0
        0x0001d0cc:    00000000    ....    DCD    0
        0x0001d0d0:    00000000    ....    DCD    0
        0x0001d0d4:    00000000    ....    DCD    0
    __tagsym$$used
    ui32DSP0Allowed
        0x0001d0d8:    00000001    ....    DCD    1
        0x0001d0dc:    00000000    ....    DCD    0
        0x0001d0e0:    00010000    ....    DCD    65536
        0x0001d0e4:    00000000    ....    DCD    0
        0x0001d0e8:    00000000    ....    DCD    0
    __tagsym$$used
    ui32DSP1Allowed
        0x0001d0ec:    00000000    ....    DCD    0
        0x0001d0f0:    00000000    ....    DCD    0
        0x0001d0f4:    00020000    ....    DCD    131072
        0x0001d0f8:    00000000    ....    DCD    0
        0x0001d0fc:    00000000    ....    DCD    0
    __tagsym$$used
    ui32SharedAccess
        0x0001d100:    00000001    ....    DCD    1
        0x0001d104:    00000000    ....    DCD    0
        0x0001d108:    00000000    ....    DCD    0
        0x0001d10c:    00000000    ....    DCD    0
        0x0001d110:    00000000    ....    DCD    0
    __tagsym$$used
    sGlobalAccess
        0x0001d114:    0001d100    ....    DCD    119040
        0x0001d118:    0001d0c4    ....    DCD    118980
        0x0001d11c:    0001d0d8    ....    DCD    119000
        0x0001d120:    0001d0ec    ....    DCD    119020
        0x0001d124:    10060004    ....    DCD    268828676
        0x0001d128:    10060018    ....    DCD    268828696
        0x0001d12c:    1006002c    ,...    DCD    268828716
    .constdata
    g_SPI_SpeedMax
        0x0001d130:    02dc6c00    .l..    DCD    48000000
        0x0001d134:    00000020     ...    DCD    32
        0x0001d138:    016e3600    .6n.    DCD    24000000
        0x0001d13c:    00000010    ....    DCD    16
        0x0001d140:    00f42400    .$..    DCD    16000000
        0x0001d144:    0000000a    ....    DCD    10
        0x0001d148:    00b71b00    ....    DCD    12000000
        0x0001d14c:    00000006    ....    DCD    6
        0x0001d150:    007a1200    ..z.    DCD    8000000
        0x0001d154:    00000003    ....    DCD    3
    .constdata
    am_hal_cachectrl_defaults
        0x0001d158:    030e        ..      DCW    782
        0x0001d15a:    00          .       DCB    0
    .constdata
    am_hal_daxi_defaults
        0x0001d15b:    04          .       DCB    4
        0x0001d15c:    00000103    ....    DCD    259
    .constdata
    g_am_hal_bootrom_helper
        0x0001d160:    0800004d    M...    DCD    134217805
        0x0001d164:    08000051    Q...    DCD    134217809
        0x0001d168:    08000055    U...    DCD    134217813
        0x0001d16c:    08000059    Y...    DCD    134217817
        0x0001d170:    0800006d    m...    DCD    134217837
        0x0001d174:    08000075    u...    DCD    134217845
        0x0001d178:    08000079    y...    DCD    134217849
        0x0001d17c:    08000081    ....    DCD    134217857
        0x0001d180:    08000099    ....    DCD    134217881
        0x0001d184:    0800009d    ....    DCD    134217885
    .constdata
    gAmHalCmdQReg
        0x0001d188:    40050228    (..@    DCD    1074070056
        0x0001d18c:    4005022c    ,..@    DCD    1074070060
        0x0001d190:    40050240    @..@    DCD    1074070080
        0x0001d194:    40050244    D..@    DCD    1074070084
        0x0001d198:    4005023c    <..@    DCD    1074070076
        0x0001d19c:    00008000    ....    DCD    32768
        0x0001d1a0:    40050230    0..@    DCD    1074070064
        0x0001d1a4:    00000001    ....    DCD    1
        0x0001d1a8:    00000004    ....    DCD    4
        0x0001d1ac:    00000002    ....    DCD    2
        0x0001d1b0:    40051228    (..@    DCD    1074074152
        0x0001d1b4:    4005122c    ,..@    DCD    1074074156
        0x0001d1b8:    40051240    @..@    DCD    1074074176
        0x0001d1bc:    40051244    D..@    DCD    1074074180
        0x0001d1c0:    4005123c    <..@    DCD    1074074172
        0x0001d1c4:    00008000    ....    DCD    32768
        0x0001d1c8:    40051230    0..@    DCD    1074074160
        0x0001d1cc:    00000001    ....    DCD    1
        0x0001d1d0:    00000004    ....    DCD    4
        0x0001d1d4:    00000002    ....    DCD    2
        0x0001d1d8:    40052228    (".@    DCD    1074078248
        0x0001d1dc:    4005222c    ,".@    DCD    1074078252
        0x0001d1e0:    40052240    @".@    DCD    1074078272
        0x0001d1e4:    40052244    D".@    DCD    1074078276
        0x0001d1e8:    4005223c    <".@    DCD    1074078268
        0x0001d1ec:    00008000    ....    DCD    32768
        0x0001d1f0:    40052230    0".@    DCD    1074078256
        0x0001d1f4:    00000001    ....    DCD    1
        0x0001d1f8:    00000004    ....    DCD    4
        0x0001d1fc:    00000002    ....    DCD    2
        0x0001d200:    40053228    (2.@    DCD    1074082344
        0x0001d204:    4005322c    ,2.@    DCD    1074082348
        0x0001d208:    40053240    @2.@    DCD    1074082368
        0x0001d20c:    40053244    D2.@    DCD    1074082372
        0x0001d210:    4005323c    <2.@    DCD    1074082364
        0x0001d214:    00008000    ....    DCD    32768
        0x0001d218:    40053230    02.@    DCD    1074082352
        0x0001d21c:    00000001    ....    DCD    1
        0x0001d220:    00000004    ....    DCD    4
        0x0001d224:    00000002    ....    DCD    2
        0x0001d228:    40054228    (B.@    DCD    1074086440
        0x0001d22c:    4005422c    ,B.@    DCD    1074086444
        0x0001d230:    40054240    @B.@    DCD    1074086464
        0x0001d234:    40054244    DB.@    DCD    1074086468
        0x0001d238:    4005423c    <B.@    DCD    1074086460
        0x0001d23c:    00008000    ....    DCD    32768
        0x0001d240:    40054230    0B.@    DCD    1074086448
        0x0001d244:    00000001    ....    DCD    1
        0x0001d248:    00000004    ....    DCD    4
        0x0001d24c:    00000002    ....    DCD    2
        0x0001d250:    40055228    (R.@    DCD    1074090536
        0x0001d254:    4005522c    ,R.@    DCD    1074090540
        0x0001d258:    40055240    @R.@    DCD    1074090560
        0x0001d25c:    40055244    DR.@    DCD    1074090564
        0x0001d260:    4005523c    <R.@    DCD    1074090556
        0x0001d264:    00008000    ....    DCD    32768
        0x0001d268:    40055230    0R.@    DCD    1074090544
        0x0001d26c:    00000001    ....    DCD    1
        0x0001d270:    00000004    ....    DCD    4
        0x0001d274:    00000002    ....    DCD    2
        0x0001d278:    40056228    (b.@    DCD    1074094632
        0x0001d27c:    4005622c    ,b.@    DCD    1074094636
        0x0001d280:    40056240    @b.@    DCD    1074094656
        0x0001d284:    40056244    Db.@    DCD    1074094660
        0x0001d288:    4005623c    <b.@    DCD    1074094652
        0x0001d28c:    00008000    ....    DCD    32768
        0x0001d290:    40056230    0b.@    DCD    1074094640
        0x0001d294:    00000001    ....    DCD    1
        0x0001d298:    00000004    ....    DCD    4
        0x0001d29c:    00000002    ....    DCD    2
        0x0001d2a0:    40057228    (r.@    DCD    1074098728
        0x0001d2a4:    4005722c    ,r.@    DCD    1074098732
        0x0001d2a8:    40057240    @r.@    DCD    1074098752
        0x0001d2ac:    40057244    Dr.@    DCD    1074098756
        0x0001d2b0:    4005723c    <r.@    DCD    1074098748
        0x0001d2b4:    00008000    ....    DCD    32768
        0x0001d2b8:    40057230    0r.@    DCD    1074098736
        0x0001d2bc:    00000001    ....    DCD    1
        0x0001d2c0:    00000004    ....    DCD    4
        0x0001d2c4:    00000002    ....    DCD    2
        0x0001d2c8:    400602a0    ...@    DCD    1074135712
        0x0001d2cc:    400602a8    ...@    DCD    1074135720
        0x0001d2d0:    400602c0    ...@    DCD    1074135744
        0x0001d2d4:    400602c4    ...@    DCD    1074135748
        0x0001d2d8:    400602b8    ...@    DCD    1074135736
        0x0001d2dc:    00004000    .@..    DCD    16384
        0x0001d2e0:    400602ac    ...@    DCD    1074135724
        0x0001d2e4:    00000001    ....    DCD    1
        0x0001d2e8:    00000004    ....    DCD    4
        0x0001d2ec:    00000008    ....    DCD    8
        0x0001d2f0:    400612a0    ...@    DCD    1074139808
        0x0001d2f4:    400612a8    ...@    DCD    1074139816
        0x0001d2f8:    400612c0    ...@    DCD    1074139840
        0x0001d2fc:    400612c4    ...@    DCD    1074139844
        0x0001d300:    400612b8    ...@    DCD    1074139832
        0x0001d304:    00004000    .@..    DCD    16384
        0x0001d308:    400612ac    ...@    DCD    1074139820
        0x0001d30c:    00000001    ....    DCD    1
        0x0001d310:    00000004    ....    DCD    4
        0x0001d314:    00000008    ....    DCD    8
        0x0001d318:    400622a0    .".@    DCD    1074143904
        0x0001d31c:    400622a8    .".@    DCD    1074143912
        0x0001d320:    400622c0    .".@    DCD    1074143936
        0x0001d324:    400622c4    .".@    DCD    1074143940
        0x0001d328:    400622b8    .".@    DCD    1074143928
        0x0001d32c:    00004000    .@..    DCD    16384
        0x0001d330:    400622ac    .".@    DCD    1074143916
        0x0001d334:    00000001    ....    DCD    1
        0x0001d338:    00000004    ....    DCD    4
        0x0001d33c:    00000008    ....    DCD    8
    .constdata
    am_hal_gpio_pincfg_disabled
        0x0001d340:    00000003    ....    DCD    3
    .constdata
    g_ui32DSpintbl
        0x0001d344:    8fc007e0    ....    DCD    2411726816
        0x0001d348:    e3fbffff    ....    DCD    3824943103
        0x0001d34c:    01ffffff    ....    DCD    33554431
        0x0001d350:    00000000    ....    DCD    0
    .constdata
    g_DefaultSRAMCfg
        0x0001d354:    03000003    ....    DCD    50331651
    g_DefaultMcuMemCfg
        0x0001d358:    07070102    ....    DCD    117899522
        0x0001d35c:    00000001    ....    DCD    1
    am_hal_pwrctrl_peripheral_control
        0x0001d360:    40021004    ...@    DCD    1073876996
        0x0001d364:    00000001    ....    DCD    1
        0x0001d368:    40021008    ...@    DCD    1073877000
        0x0001d36c:    00000001    ....    DCD    1
        0x0001d370:    40021004    ...@    DCD    1073876996
        0x0001d374:    00000002    ....    DCD    2
        0x0001d378:    40021008    ...@    DCD    1073877000
        0x0001d37c:    00000002    ....    DCD    2
        0x0001d380:    40021004    ...@    DCD    1073876996
        0x0001d384:    00000004    ....    DCD    4
        0x0001d388:    40021008    ...@    DCD    1073877000
        0x0001d38c:    00000004    ....    DCD    4
        0x0001d390:    40021004    ...@    DCD    1073876996
        0x0001d394:    00000008    ....    DCD    8
        0x0001d398:    40021008    ...@    DCD    1073877000
        0x0001d39c:    00000008    ....    DCD    8
        0x0001d3a0:    40021004    ...@    DCD    1073876996
        0x0001d3a4:    00000010    ....    DCD    16
        0x0001d3a8:    40021008    ...@    DCD    1073877000
        0x0001d3ac:    00000010    ....    DCD    16
        0x0001d3b0:    40021004    ...@    DCD    1073876996
        0x0001d3b4:    00000020     ...    DCD    32
        0x0001d3b8:    40021008    ...@    DCD    1073877000
        0x0001d3bc:    00000020     ...    DCD    32
        0x0001d3c0:    40021004    ...@    DCD    1073876996
        0x0001d3c4:    00000040    @...    DCD    64
        0x0001d3c8:    40021008    ...@    DCD    1073877000
        0x0001d3cc:    00000040    @...    DCD    64
        0x0001d3d0:    40021004    ...@    DCD    1073876996
        0x0001d3d4:    00000080    ....    DCD    128
        0x0001d3d8:    40021008    ...@    DCD    1073877000
        0x0001d3dc:    00000080    ....    DCD    128
        0x0001d3e0:    40021004    ...@    DCD    1073876996
        0x0001d3e4:    00000100    ....    DCD    256
        0x0001d3e8:    40021008    ...@    DCD    1073877000
        0x0001d3ec:    00000100    ....    DCD    256
        0x0001d3f0:    40021004    ...@    DCD    1073876996
        0x0001d3f4:    00000200    ....    DCD    512
        0x0001d3f8:    40021008    ...@    DCD    1073877000
        0x0001d3fc:    00000200    ....    DCD    512
        0x0001d400:    40021004    ...@    DCD    1073876996
        0x0001d404:    00000400    ....    DCD    1024
        0x0001d408:    40021008    ...@    DCD    1073877000
        0x0001d40c:    00000400    ....    DCD    1024
        0x0001d410:    40021004    ...@    DCD    1073876996
        0x0001d414:    00000800    ....    DCD    2048
        0x0001d418:    40021008    ...@    DCD    1073877000
        0x0001d41c:    00000800    ....    DCD    2048
        0x0001d420:    40021004    ...@    DCD    1073876996
        0x0001d424:    00001000    ....    DCD    4096
        0x0001d428:    40021008    ...@    DCD    1073877000
        0x0001d42c:    00001000    ....    DCD    4096
        0x0001d430:    40021004    ...@    DCD    1073876996
        0x0001d434:    00002000    . ..    DCD    8192
        0x0001d438:    40021008    ...@    DCD    1073877000
        0x0001d43c:    00002000    . ..    DCD    8192
        0x0001d440:    40021004    ...@    DCD    1073876996
        0x0001d444:    00004000    .@..    DCD    16384
        0x0001d448:    40021008    ...@    DCD    1073877000
        0x0001d44c:    00004000    .@..    DCD    16384
        0x0001d450:    40021004    ...@    DCD    1073876996
        0x0001d454:    00008000    ....    DCD    32768
        0x0001d458:    40021008    ...@    DCD    1073877000
        0x0001d45c:    00008000    ....    DCD    32768
        0x0001d460:    40021004    ...@    DCD    1073876996
        0x0001d464:    00010000    ....    DCD    65536
        0x0001d468:    40021008    ...@    DCD    1073877000
        0x0001d46c:    00010000    ....    DCD    65536
        0x0001d470:    40021004    ...@    DCD    1073876996
        0x0001d474:    00020000    ....    DCD    131072
        0x0001d478:    40021008    ...@    DCD    1073877000
        0x0001d47c:    00020000    ....    DCD    131072
        0x0001d480:    40021004    ...@    DCD    1073876996
        0x0001d484:    00040000    ....    DCD    262144
        0x0001d488:    40021008    ...@    DCD    1073877000
        0x0001d48c:    00040000    ....    DCD    262144
        0x0001d490:    40021004    ...@    DCD    1073876996
        0x0001d494:    00080000    ....    DCD    524288
        0x0001d498:    40021008    ...@    DCD    1073877000
        0x0001d49c:    00080000    ....    DCD    524288
        0x0001d4a0:    40021004    ...@    DCD    1073876996
        0x0001d4a4:    00100000    ....    DCD    1048576
        0x0001d4a8:    40021008    ...@    DCD    1073877000
        0x0001d4ac:    00100000    ....    DCD    1048576
        0x0001d4b0:    40021004    ...@    DCD    1073876996
        0x0001d4b4:    00200000    .. .    DCD    2097152
        0x0001d4b8:    40021008    ...@    DCD    1073877000
        0x0001d4bc:    00200000    .. .    DCD    2097152
        0x0001d4c0:    40021004    ...@    DCD    1073876996
        0x0001d4c4:    00400000    ..@.    DCD    4194304
        0x0001d4c8:    40021008    ...@    DCD    1073877000
        0x0001d4cc:    00400000    ..@.    DCD    4194304
        0x0001d4d0:    40021004    ...@    DCD    1073876996
        0x0001d4d4:    00800000    ....    DCD    8388608
        0x0001d4d8:    40021008    ...@    DCD    1073877000
        0x0001d4dc:    00800000    ....    DCD    8388608
        0x0001d4e0:    40021004    ...@    DCD    1073876996
        0x0001d4e4:    01000000    ....    DCD    16777216
        0x0001d4e8:    40021008    ...@    DCD    1073877000
        0x0001d4ec:    01000000    ....    DCD    16777216
        0x0001d4f0:    4002100c    ...@    DCD    1073877004
        0x0001d4f4:    00000001    ....    DCD    1
        0x0001d4f8:    40021010    ...@    DCD    1073877008
        0x0001d4fc:    00000001    ....    DCD    1
        0x0001d500:    4002100c    ...@    DCD    1073877004
        0x0001d504:    00000002    ....    DCD    2
        0x0001d508:    40021010    ...@    DCD    1073877008
        0x0001d50c:    00000002    ....    DCD    2
        0x0001d510:    4002100c    ...@    DCD    1073877004
        0x0001d514:    00000004    ....    DCD    4
        0x0001d518:    40021010    ...@    DCD    1073877008
        0x0001d51c:    00000004    ....    DCD    4
        0x0001d520:    4002100c    ...@    DCD    1073877004
        0x0001d524:    00000008    ....    DCD    8
        0x0001d528:    40021010    ...@    DCD    1073877008
        0x0001d52c:    00000008    ....    DCD    8
        0x0001d530:    4002100c    ...@    DCD    1073877004
        0x0001d534:    00000010    ....    DCD    16
        0x0001d538:    40021010    ...@    DCD    1073877008
        0x0001d53c:    00000010    ....    DCD    16
        0x0001d540:    4002100c    ...@    DCD    1073877004
        0x0001d544:    00000020     ...    DCD    32
        0x0001d548:    40021010    ...@    DCD    1073877008
        0x0001d54c:    00000020     ...    DCD    32
        0x0001d550:    4002100c    ...@    DCD    1073877004
        0x0001d554:    00000040    @...    DCD    64
        0x0001d558:    40021010    ...@    DCD    1073877008
        0x0001d55c:    00000040    @...    DCD    64
        0x0001d560:    4002100c    ...@    DCD    1073877004
        0x0001d564:    00000080    ....    DCD    128
        0x0001d568:    40021010    ...@    DCD    1073877008
        0x0001d56c:    00000080    ....    DCD    128
        0x0001d570:    4002100c    ...@    DCD    1073877004
        0x0001d574:    00000400    ....    DCD    1024
        0x0001d578:    40021010    ...@    DCD    1073877008
        0x0001d57c:    00000400    ....    DCD    1024
        0x0001d580:    4002100c    ...@    DCD    1073877004
        0x0001d584:    00000800    ....    DCD    2048
        0x0001d588:    4002100c    ...@    DCD    1073877004
        0x0001d58c:    00000800    ....    DCD    2048
    .conststring
        0x0001d590:    69726550    Peri    DCD    1769104720
        0x0001d594:    6369646f    odic    DCD    1667851375
        0x0001d598:    796c6c61    ally    DCD    2037148769
        0x0001d59c:    61655220     Rea    DCD    1634030112
        0x0001d5a0:    676e6964    ding    DCD    1735289188
        0x0001d5a4:    74616420     dat    DCD    1952539680
        0x0001d5a8:    72662061    a fr    DCD    1919295585
        0x0001d5ac:    50206d6f    om P    DCD    1344302447
        0x0001d5b0:    4d415253    SRAM    DCD    1296126547
        0x0001d5b4:    69737520     usi    DCD    1769174304
        0x0001d5b8:    6e20676e    ng n    DCD    1847617390
        0x0001d5bc:    622d6e6f    on-b    DCD    1647144559
        0x0001d5c0:    6b636f6c    lock    DCD    1801678700
        0x0001d5c4:    20676e69    ing     DCD    543649385
        0x0001d5c8:    64616572    read    DCD    1684104562
        0x0001d5cc:    25202d20     - %    DCD    622865696
        0x0001d5d0:    69742064    d ti    DCD    1769218148
        0x0001d5d4:    0a73656d    mes.    DCD    175334765
        0x0001d5d8:    00000000    ....    DCD    0
        0x0001d5dc:    65636552    Rece    DCD    1701012818
        0x0001d5e0:    20657669    ive     DCD    543520361
        0x0001d5e4:    61746144    Data    DCD    1635017028
        0x0001d5e8:    6d6f4320     Com    DCD    1836008224
        0x0001d5ec:    65726170    pare    DCD    1701994864
        0x0001d5f0:    69616620     fai    DCD    1767990816
        0x0001d5f4:    2064656c    led     DCD    543450476
        0x0001d5f8:    6f207461    at o    DCD    1864397921
        0x0001d5fc:    65736666    ffse    DCD    1702061670
        0x0001d600:    64252074    t %d    DCD    1680154740
        0x0001d604:    45202d20     - E    DCD    1159736608
        0x0001d608:    63657078    xpec    DCD    1667592312
        0x0001d60c:    20646574    ted     DCD    543450484
        0x0001d610:    7830203d    = 0x    DCD    2016419901
        0x0001d614:    202c7825    %x,     DCD    539785253
        0x0001d618:    65636552    Rece    DCD    1701012818
        0x0001d61c:    64657669    ived    DCD    1684371049
        0x0001d620:    30203d20     = 0    DCD    807419168
        0x0001d624:    0a782578    x%x.    DCD    175646072
        0x0001d628:    00000000    ....    DCD    0
    Region$$Table$$Base
        0x0001d62c:    0001d65c    \...    DCD    120412
        0x0001d630:    10000000    ....    DCD    268435456
        0x0001d634:    00000248    H...    DCD    584
        0x0001d638:    00018274    t...    DCD    98932
        0x0001d63c:    0001d78c    ....    DCD    120716
        0x0001d640:    10060000    ....    DCD    268828672
        0x0001d644:    00000040    @...    DCD    64
        0x0001d648:    000182d0    ....    DCD    99024
        0x0001d64c:    0001d78c    ....    DCD    120716
        0x0001d650:    10000248    H...    DCD    268436040
        0x0001d654:    00009a28    (...    DCD    39464
        0x0001d658:    000182ec    ....    DCD    99052
    Region$$Table$$Limit

** Section #2 'MCU_TCM' (SHT_PROGBITS) [SHF_ALLOC + SHF_WRITE]
    Size   : 304 bytes (alignment 16)
    Address: 0x10000000

    Data section was compressed (Original size: 584 bytes)

    0x10000000:   00 00 00 00 00 00 00 00 00 00 00 00 53 50 49 20    ............SPI 
    0x10000010:   50 53 52 41 4d 20 41 50 53 36 34 30 34 4c 00 00    PSRAM APS6404L..
    0x10000020:   e1 8c 01 00 7d 8f 01 00 01 8f 01 00 c3 8e 01 00    ....}...........
    0x10000030:   85 8e 01 00 00 00 00 00 00 00 00 00 00 00 00 00    ................
    0x10000040:   40 42 0f 00 00 00 00 00 00 00 00 00 00 00 00 00    @B..............
    0x10000050:   00 00 00 00 00 00 00 00 00 00 00 00 00 00 00 00    ................
    0x10000060:   00 00 00 00 87 01 00 00 00 00 00 00 01 00 00 08    ................
    0x10000070:   01 00 00 00 00 42 00 00 00 42 00 00 87 01 04 00    .....B...B......
    0x10000080:   04 00 00 00 05 00 00 08 05 00 00 00 04 42 00 00    .............B..
    0x10000090:   04 42 00 00 87 01 08 00 00 00 00 00 01 00 00 08    .B..............
    0x100000a0:   01 00 00 00 00 42 00 00 00 42 00 00 87 01 0c 00    .....B...B......
    0x100000b0:   00 00 00 00 01 00 00 08 01 00 00 00 00 42 00 00    .............B..
    0x100000c0:   00 42 00 00 87 01 10 00 00 00 00 00 01 00 00 08    .B..............
    0x100000d0:   01 00 00 00 00 42 00 00 00 42 00 00 87 01 14 00    .....B...B......
    0x100000e0:   00 00 00 00 01 00 00 08 01 00 00 00 00 42 00 00    .............B..
    0x100000f0:   00 42 00 00 87 01 18 00 00 00 00 00 01 00 00 08    .B..............
    0x10000100:   01 00 00 00 00 42 00 00 00 42 00 00 87 01 1c 00    .....B...B......
    0x10000110:   00 00 00 00 01 00 00 08 01 00 00 00 00 42 00 00    .............B..
    0x10000120:   00 42 00 00 00 00 00 00 00 00 00 00 08 1e 0c 40    .B.............@
    0x10000130:   18 1e 0c 40 00 00 00 00 6d db 02 40 d1 02 00 00    ...@....m..@....
    0x10000140:   92 24 01 80 20 01 00 00 01 00 00 00 ff ff ff ff    .$.. ...........
    0x10000150:   ff ff ff ff ff ff ff ff ff ff ff ff 00 00 00 00    ................
    0x10000160:   71 01 00 10 00 00 00 00 00 00 00 00 00 00 00 00    q...............
    0x10000170:   08 60 bf f3 4f 8f 30 bf bf f3 6f 8f 70 47 00 bf    .`..O.0...o.pG..
    0x10000180:   00 00 00 00 00 00 00 00 00 00 00 00 00 00 00 00    ................
    0x10000190:   44 f2 04 01 c4 f2 01 01 c3 22 4a 60 05 22 cb 6c    D........"J`.".l
    0x100001a0:   43 f0 10 03 cb 64 0a 65 01 23 cb 60 00 22 0a 61    C....d.e.#.`.".a
    0x100001b0:   4a 61 8a 61 00 f0 0f 00 0b 68 43 f0 08 03 0b 60    Ja.a.....hC....`
    0x100001c0:   0a 68 22 f0 08 02 0a 60 09 22 0b 6d 62 f3 95 23    .h"....`.".mb..#
    0x100001d0:   0b 65 06 22 0b 6d 62 f3 04 03 0b 65 0a 68 42 f0    .e.".mb....e.hB.
    0x100001e0:   08 02 0a 60 ca 6d 0b 68 23 f0 08 03 12 09 0b 60    ...`.m.h#......`
    0x100001f0:   40 ea 02 10 c8 60 05 20 0a 6d 60 f3 04 02 0a 65    @....`. .m`....e
    0x10000200:   08 68 40 f0 08 00 08 60 0a 68 22 f0 08 02 0a 60    .h@....`.h"....`
    0x10000210:   00 22 08 6d 6f f3 95 20 08 65 ca 60 05 20 0a 6d    .".mo.. .e.`. .m
    0x10000220:   60 f3 04 02 0a 65 08 68 40 f0 08 00 08 60 0a 68    `....e.h@....`.h
    0x10000230:   22 f0 08 02 0a 60 00 22 c8 6c 20 f0 10 00 c8 64    "....`.".l ....d
    0x10000240:   4a 60 70 47 91 01 00 10                            J`pG....


** Section #3 'MCU_TCM' (SHT_NOBITS) [SHF_ALLOC + SHF_WRITE]
    Size   : 39464 bytes (alignment 8)
    Address: 0x10000248


** Section #4 'SHARED_SRAM' (SHT_PROGBITS) [SHF_ALLOC + SHF_WRITE]
    Size   : 64 bytes (alignment 4)
    Address: 0x10060000

    0x10060000:   14 d1 01 00 00 00 00 00 00 00 00 00 00 00 00 00    ................
    0x10060010:   00 00 00 00 00 00 00 00 00 00 00 00 00 00 00 00    ................
    0x10060020:   00 00 00 00 00 00 00 00 00 00 00 00 00 00 00 00    ................
    0x10060030:   00 00 00 00 00 00 00 00 00 00 00 00 00 00 00 00    ................


** Section #5 '.debug_abbrev' (SHT_PROGBITS)
    Size   : 1476 bytes


** Section #6 '.debug_frame' (SHT_PROGBITS)
    Size   : 5432 bytes


** Section #7 '.debug_info' (SHT_PROGBITS)
    Size   : 1090948 bytes


** Section #8 '.debug_line' (SHT_PROGBITS)
    Size   : 9792 bytes


** Section #9 '.debug_loc' (SHT_PROGBITS)
    Size   : 5400 bytes


** Section #10 '.debug_macinfo' (SHT_PROGBITS)
    Size   : 770492 bytes


** Section #11 '.debug_pubnames' (SHT_PROGBITS)
    Size   : 1628 bytes


** Section #12 '.symtab' (SHT_SYMTAB)
    Size   : 15616 bytes (alignment 4)
    String table #13 '.strtab'
    Last local symbol no. 615

    Symbol table .symtab (975 symbols, 615 local)

      #  Symbol Name                Value      Bind  Sec  Type  Vis  Size
    ========================================================================

      1  $d                         0x00018000   Lc    1   --   De 
      2  $t                         0x00018200   Lc    1   --   De 
      3  $d                         0x00018232   Lc    1   --   De 
      4  $t                         0x00018238   Lc    1   --   De 
      5  $d                         0x0001826c   Lc    1   --   De 
      6  $t                         0x00018274   Lc    1   --   De 
      7  $d                         0x0001837a   Lc    1   --   De 
      8  $t                         0x00018388   Lc    1   --   De 
      9  $d                         0x000184ec   Lc    1   --   De 
     10  $t                         0x000184f0   Lc    1   --   De 
     11  $d                         0x000184f8   Lc    1   --   De 
     12  $t                         0x000184fc   Lc    1   --   De 
     13  $d                         0x00018536   Lc    1   --   De 
     14  $t                         0x00018554   Lc    1   --   De 
     15  $d                         0x000187a2   Lc    1   --   De 
     16  $t                         0x000187a8   Lc    1   --   De 
     17  $d                         0x000187be   Lc    1   --   De 
     18  $t                         0x000187dc   Lc    1   --   De 
     19  $d                         0x00018a6e   Lc    1   --   De 
     20  $t                         0x00018b30   Lc    1   --   De 
     21  $d                         0x00018b90   Lc    1   --   De 
     22  $t                         0x00018ba8   Lc    1   --   De 
     23  $d                         0x00018bd6   Lc    1   --   De 
     24  $t                         0x00018bdc   Lc    1   --   De 
     25  $d                         0x00018c5e   Lc    1   --   De 
     26  $t                         0x00018c64   Lc    1   --   De 
     27  $d                         0x00018cda   Lc    1   --   De 
     28  $t                         0x00018ce0   Lc    1   --   De 
     29  $d                         0x00018e72   Lc    1   --   De 
     30  $t                         0x00018e84   Lc    1   --   De 
     31  $d                         0x00018fba   Lc    1   --   De 
     32  $t                         0x00018fc0   Lc    1   --   De 
     33  $d                         0x000190e8   Lc    1   --   De 
     34  $t                         0x000190ec   Lc    1   --   De 
     35  $d                         0x00019128   Lc    1   --   De 
     36  $t                         0x0001912c   Lc    1   --   De 
     37  $d                         0x00019168   Lc    1   --   De 
     38  $t                         0x0001916c   Lc    1   --   De 
     39  $d                         0x000191dc   Lc    1   --   De 
     40  $t                         0x000191e0   Lc    1   --   De 
     41  $d                         0x0001927e   Lc    1   --   De 
     42  $t                         0x00019284   Lc    1   --   De 
     43  $d                         0x00019366   Lc    1   --   De 
     44  $t                         0x00019374   Lc    1   --   De 
     45  $d                         0x000193bc   Lc    1   --   De 
     46  $t                         0x000193c0   Lc    1   --   De 
     47  $d                         0x00019416   Lc    1   --   De 
     48  $t                         0x0001941c   Lc    1   --   De 
     49  $d                         0x0001944e   Lc    1   --   De 
     50  $t                         0x00019454   Lc    1   --   De 
     51  $d                         0x000194b2   Lc    1   --   De 
     52  $t                         0x000194b8   Lc    1   --   De 
     53  $d                         0x0001953c   Lc    1   --   De 
     54  $t                         0x00019540   Lc    1   --   De 
     55  $d                         0x00019614   Lc    1   --   De 
     56  $t                         0x00019620   Lc    1   --   De 
     57  $d                         0x000196f6   Lc    1   --   De 
     58  $t                         0x00019704   Lc    1   --   De 
     59  $d                         0x00019726   Lc    1   --   De 
     60  $t                         0x00019730   Lc    1   --   De 
     61  $d                         0x00019780   Lc    1   --   De 
     62  $t                         0x00019788   Lc    1   --   De 
     63  $d                         0x000197e4   Lc    1   --   De 
     64  $t                         0x000197ec   Lc    1   --   De 
     65  $d                         0x00019888   Lc    1   --   De 
     66  $t                         0x00019890   Lc    1   --   De 
     67  $d                         0x00019ba4   Lc    1   --   De 
     68  $t                         0x00019bbc   Lc    1   --   De 
     69  $d                         0x00019e38   Lc    1   --   De 
     70  $t                         0x00019e70   Lc    1   --   De 
     71  $d                         0x00019ea8   Lc    1   --   De 
     72  $t                         0x00019eb8   Lc    1   --   De 
     73  $d                         0x0001a26a   Lc    1   --   De 
     74  $t                         0x0001a28c   Lc    1   --   De 
     75  $d                         0x0001a5c2   Lc    1   --   De 
     76  $t                         0x0001a5d4   Lc    1   --   De 
     77  $d                         0x0001a654   Lc    1   --   De 
     78  $t                         0x0001a658   Lc    1   --   De 
     79  $d                         0x0001a750   Lc    1   --   De 
     80  $t                         0x0001a758   Lc    1   --   De 
     81  $d                         0x0001a8b8   Lc    1   --   De 
     82  $t                         0x0001a8c0   Lc    1   --   De 
     83  $d                         0x0001a90c   Lc    1   --   De 
     84  $t                         0x0001a914   Lc    1   --   De 
     85  $d                         0x0001a942   Lc    1   --   De 
     86  $t                         0x0001a948   Lc    1   --   De 
     87  $d                         0x0001ac3e   Lc    1   --   De 
     88  $t                         0x0001ac4c   Lc    1   --   De 
     89  $d                         0x0001ac90   Lc    1   --   De 
     90  $t                         0x0001ac94   Lc    1   --   De 
     91  $d                         0x0001af98   Lc    1   --   De 
     92  $t                         0x0001afa0   Lc    1   --   De 
     93  $d                         0x0001b028   Lc    1   --   De 
     94  $t                         0x0001b02c   Lc    1   --   De 
     95  $d                         0x0001b058   Lc    1   --   De 
     96  $t                         0x0001b074   Lc    1   --   De 
     97  $d                         0x0001b0aa   Lc    1   --   De 
     98  $t                         0x0001b0b0   Lc    1   --   De 
     99  $d                         0x0001b13c   Lc    1   --   De 
    100  $t                         0x0001b144   Lc    1   --   De 
    101  $d                         0x0001b2a0   Lc    1   --   De 
    102  $t                         0x0001b2c0   Lc    1   --   De 
    103  $d                         0x0001b44a   Lc    1   --   De 
    104  $t                         0x0001b468   Lc    1   --   De 
    105  $d                         0x0001b57c   Lc    1   --   De 
    106  $t                         0x0001b584   Lc    1   --   De 
    107  $d                         0x0001b5d8   Lc    1   --   De 
    108  $t                         0x0001b5e0   Lc    1   --   De 
    109  $d                         0x0001b636   Lc    1   --   De 
    110  $t                         0x0001b640   Lc    1   --   De 
    111  $d                         0x0001b64e   Lc    1   --   De 
    112  $t                         0x0001b654   Lc    1   --   De 
    113  $d                         0x0001b71e   Lc    1   --   De 
    114  $t                         0x0001b734   Lc    1   --   De 
    115  $d                         0x0001b78e   Lc    1   --   De 
    116  $t                         0x0001b794   Lc    1   --   De 
    117  $d                         0x0001b7c4   Lc    1   --   De 
    118  $t                         0x0001b7c8   Lc    1   --   De 
    119  $d                         0x0001b7d6   Lc    1   --   De 
    120  $t                         0x0001b7dc   Lc    1   --   De 
    121  $d                         0x0001b830   Lc    1   --   De 
    122  $t                         0x0001b83c   Lc    1   --   De 
    123  $d                         0x0001b84e   Lc    1   --   De 
    124  $t                         0x0001b854   Lc    1   --   De 
    125  $d                         0x0001b892   Lc    1   --   De 
    126  $t                         0x0001b898   Lc    1   --   De 
    127  $d                         0x0001b8d2   Lc    1   --   De 
    128  $t                         0x0001b8d8   Lc    1   --   De 
    129  $d                         0x0001b914   Lc    1   --   De 
    130  $t                         0x0001b920   Lc    1   --   De 
    131  $d                         0x0001ba3e   Lc    1   --   De 
    132  $t                         0x0001ba5c   Lc    1   --   De 
    133  $d                         0x0001ba86   Lc    1   --   De 
    134  $t                         0x0001ba8c   Lc    1   --   De 
    135  $d                         0x0001bb4a   Lc    1   --   De 
    136  $t                         0x0001bb50   Lc    1   --   De 
    137  $d                         0x0001bb82   Lc    1   --   De 
    138  $t                         0x0001bb8c   Lc    1   --   De 
    139  $d                         0x0001bb92   Lc    1   --   De 
    140  $t                         0x0001bb98   Lc    1   --   De 
    141  $d                         0x0001bba2   Lc    1   --   De 
    142  $t                         0x0001bbb8   Lc    1   --   De 
    143  $d                         0x0001bf5c   Lc    1   --   De 
    144  $t                         0x0001bf6c   Lc    1   --   De 
    145  $d                         0x0001bfb2   Lc    1   --   De 
    146  $t                         0x0001bfb8   Lc    1   --   De 
    147  $d                         0x0001c020   Lc    1   --   De 
    148  $t                         0x0001c024   Lc    1   --   De 
    149  $d                         0x0001c064   Lc    1   --   De 
    150  $t                         0x0001c068   Lc    1   --   De 
    151  $d                         0x0001c2ea   Lc    1   --   De 
    152  $t                         0x0001c2f0   Lc    1   --   De 
    153  $d                         0x0001c300   Lc    1   --   De 
    154  $t                         0x0001c304   Lc    1   --   De 
    155  $d                         0x0001c42e   Lc    1   --   De 
    156  $t                         0x0001c434   Lc    1   --   De 
    157  $d                         0x0001c510   Lc    1   --   De 
    158  $t                         0x0001c514   Lc    1   --   De 
    159  $d                         0x0001c5a8   Lc    1   --   De 
    160  $t                         0x0001c5b4   Lc    1   --   De 
    161  $d                         0x0001c702   Lc    1   --   De 
    162  $t                         0x0001c77c   Lc    1   --   De 
    163  $d                         0x0001c88a   Lc    1   --   De 
    164  $t                         0x0001c8ec   Lc    1   --   De 
    165  $d                         0x0001c8fa   Lc    1   --   De 
    166  $t                         0x0001c904   Lc    1   --   De 
    167  $d                         0x0001c924   Lc    1   --   De 
    168  $t                         0x0001c948   Lc    1   --   De 
    169  $d                         0x0001c96e   Lc    1   --   De 
    170  $t                         0x0001c984   Lc    1   --   De 
    171  $d                         0x0001cabe   Lc    1   --   De 
    172  $t                         0x0001cac8   Lc    1   --   De 
    173  $d                         0x0001cbda   Lc    1   --   De 
    174  $t                         0x0001cbe4   Lc    1   --   De 
    175  $d                         0x0001cc0a   Lc    1   --   De 
    176  $t                         0x0001cc1a   Lc    1   --   De 
    177  $d                         0x0001cd76   Lc    1   --   De 
    178  $t                         0x0001cd80   Lc    1   --   De 
    179  $d                         0x0001cdb8   Lc    1   --   De 
    180  $t                         0x0001cdd8   Lc    1   --   De 
    181  $d                         0x0001cf64   Lc    1   --   De 
    182  $t                         0x0001cf68   Lc    1   --   De 
    183  $d                         0x0001cfa0   Lc    1   --   De 
    184  $t                         0x0001cfb0   Lc    1   --   De 
    185  $d                         0x0001d000   Lc    1   --   De 
    186  $t                         0x0001d004   Lc    1   --   De 
    187  $d                         0x0001d082   Lc    1   --   De 
    188  $t                         0x0001d086   Lc    1   --   De 
    189  $d.realdata                0x0001d0c4   Lc    1   --   De 
    190  $d.realdata                0x10000000   Lc    2   --   De 
    191  $d.realdata                0x10060000   Lc    4   --   De 
    192  ..\src\am_resources.c      0x00000000   Lc  Abs  File  De 
    193  ../src/am_resources.c      0x00000000   Lc  Abs  File  De 
    194  .constdata                 0x0001d0c4   Lc    1  Sect  De   0x6c
    195  __tagsym$$used             0x0001d0c4   Lc    1   --   De 
    196  __tagsym$$used             0x0001d0d8   Lc    1   --   De 
    197  __tagsym$$used             0x0001d0ec   Lc    1   --   De 
    198  __tagsym$$used             0x0001d100   Lc    1   --   De 
    199  __tagsym$$used             0x0001d114   Lc    1   --   De 
    200  RESOURCE_TABLE             0x10060000   Lc    4  Sect  De   0x4
    201  __tagsym$$used             0x10060000   Lc    4   --   De 
    202  SHARED_RW                  0x10060004   Lc    4  Sect  De   0x3c
    203  __tagsym$$used             0x10060004   Lc    4   --   De 
    204  __tagsym$$used             0x10060018   Lc    4   --   De 
    205  __tagsym$$used             0x1006002c   Lc    4   --   De 
    206  ..\src\iom_psram.c         0x00000000   Lc  Abs  File  De 
    207  ../src/iom_psram.c         0x00000000   Lc  Abs  File  De 
    208  i.__NVIC_EnableIRQ         0x000184fe   Lc    1  Sect  De 
    209  __NVIC_EnableIRQ           0x000184ff   Lc    1  Code  De   0x22
    210  i.am_ctimer_isr            0x00018bc0   Lc    1  Sect  De 
    211  i.am_iomaster0_isr         0x0001ba5c   Lc    1  Sect  De 
    212  i.init_pattern             0x0001c2f0   Lc    1  Sect  De 
    213  i.main                     0x0001c5dc   Lc    1  Sect  De 
    214  i.psram_init               0x0001c838   Lc    1  Sect  De 
    215  i.psram_term               0x0001c8ec   Lc    1  Sect  De 
    216  i.read_complete            0x0001c904   Lc    1  Sect  De 
    217  i.read_psram               0x0001c948   Lc    1  Sect  De 
    218  i.timer_init               0x0001cd80   Lc    1  Sect  De 
    219  i.verify_psram_data        0x0001cf68   Lc    1  Sect  De 
    220  .bss                       0x10000248   Lc    3  Sect  De   0x4100
    221  .conststring               0x0001d590   Lc    1  Sect  De   0x99
    222  .data                      0x10000000   Lc    2  Sect  De   0x34
    223  ..\..\..\..\..\..\devices\am_devices_spipsram.c
                                    0x00000000   Lc  Abs  File  De 
    224  ../../../../../../devices/am_devices_spipsram.c
                                    0x00000000   Lc  Abs  File  De 
    225  i.am_devices_spipsram_command_read
                                    0x00018bdc   Lc    1  Sect  De 
    226  i.am_devices_spipsram_command_write
                                    0x00018c64   Lc    1  Sect  De 
    227  i.am_devices_spipsram_init 0x00018ce0   Lc    1  Sect  De 
    228  i.am_devices_spipsram_nonblocking_read
                                    0x00018e84   Lc    1  Sect  De 
    229  i.am_devices_spipsram_nonblocking_write
                                    0x00018ec2   Lc    1  Sect  De 
    230  i.am_devices_spipsram_read_id
                                    0x00018f00   Lc    1  Sect  De 
    231  i.am_devices_spipsram_reset
                                    0x00018f2e   Lc    1  Sect  De 
    232  i.am_devices_spipsram_term 0x00018f7c   Lc    1  Sect  De 
    233  i.build_iom_cmd            0x0001bf6c   Lc    1  Sect  De 
    234  build_iom_cmd              0x0001bf6d   Lc    1  Code  De   0x46
    235  i.create_iom_read_transaction
                                    0x0001bfe0   Lc    1  Sect  De 
    236  create_iom_read_transaction
                                    0x0001bfe1   Lc    1  Code  De   0x40
    237  i.create_iom_write_transaction
                                    0x0001c024   Lc    1  Sect  De 
    238  create_iom_write_transaction
                                    0x0001c025   Lc    1  Code  De   0x40
    239  i.iom_init_cq_element      0x0001c518   Lc    1  Sect  De 
    240  iom_init_cq_element        0x0001c519   Lc    1  Code  De   0x90
    241  i.pfnSPI_PSRAM_Callback    0x0001c830   Lc    1  Sect  De 
    242  pfnSPI_PSRAM_Callback      0x0001c831   Lc    1  Code  De   0x6
    243  i.spi_psram_nonblocking_transfer
                                    0x0001cae0   Lc    1  Sect  De 
    244  spi_psram_nonblocking_transfer
                                    0x0001cae1   Lc    1  Code  De   0xfa
    245  .bss                       0x10004348   Lc    3  Sect  De   0x84
    246  .constdata                 0x0001d130   Lc    1  Sect  De   0x28
    247  .data                      0x10000034   Lc    2  Sect  De   0x1c
    248  ..\..\..\..\..\..\utils\am_util_delay.c
                                    0x00000000   Lc  Abs  File  De 
    249  ../../../../../../utils/am_util_delay.c
                                    0x00000000   Lc  Abs  File  De 
    250  i.am_util_delay_us         0x0001ba8c   Lc    1  Sect  De 
    251  ..\..\..\..\..\..\utils\am_util_faultisr.c
                                    0x00000000   Lc  Abs  File  De 
    252  .emb_text                  0x00018334   Lc    1  Sect  De   0x22
    253  $v0                        0x00018334   Lc    1   --   De 
    254  ../../../../../../utils/am_util_faultisr.c
                                    0x00000000   Lc  Abs  File  De 
    255  i.am_util_faultisr_collect_data
                                    0x0001ba98   Lc    1  Sect  De 
    256  ../../../../../../utils/am_util_stdio.c
                                    0x00000000   Lc  Abs  File  De 
    257  i.am_util_stdio_printf     0x0001bb50   Lc    1  Sect  De 
    258  i.am_util_stdio_printf_init
                                    0x0001bb8c   Lc    1  Sect  De 
    259  i.am_util_stdio_terminal_clear
                                    0x0001bb98   Lc    1  Sect  De 
    260  i.am_util_stdio_vsprintf   0x0001bbb8   Lc    1  Sect  De 
    261  i.decstr_to_int            0x0001c068   Lc    1  Sect  De 
    262  decstr_to_int              0x0001c069   Lc    1  Code  De   0x42
    263  i.divu64_10                0x0001c0aa   Lc    1  Sect  De 
    264  divu64_10                  0x0001c0ab   Lc    1  Code  De   0xcc
    265  i.ftoa                     0x0001c178   Lc    1  Sect  De 
    266  ftoa                       0x0001c179   Lc    1  Code  De   0x172
    267  i.ndigits_in_hex           0x0001c77c   Lc    1  Sect  De 
    268  ndigits_in_hex             0x0001c77d   Lc    1  Code  De   0x34
    269  i.ndigits_in_i64           0x0001c7b0   Lc    1  Sect  De 
    270  ndigits_in_i64             0x0001c7b1   Lc    1  Code  De   0x24
    271  i.ndigits_in_u64           0x0001c7d4   Lc    1  Sect  De 
    272  ndigits_in_u64             0x0001c7d5   Lc    1  Code  De   0x3a
    273  i.padbuffer                0x0001c80e   Lc    1  Sect  De 
    274  padbuffer                  0x0001c80f   Lc    1  Code  De   0x22
    275  i.simple_strlen            0x0001cac8   Lc    1  Sect  De 
    276  simple_strlen              0x0001cac9   Lc    1  Code  De   0x18
    277  i.uint64_to_hexstr         0x0001cdd8   Lc    1  Sect  De 
    278  uint64_to_hexstr           0x0001cdd9   Lc    1  Code  De   0x8a
    279  i.uint64_to_str            0x0001ce62   Lc    1  Sect  De 
    280  uint64_to_str              0x0001ce63   Lc    1  Code  De   0x70
    281  .bss                       0x100043cc   Lc    3  Sect  De   0x100
    282  g_prfbuf                   0x100043cc   Lc    3  Data  De   0x100
    283  .data                      0x10000050   Lc    2  Sect  De   0x5
    284  g_bTxtXlate                0x10000054   Lc    2  Data  De   0x1
    285  ../keil/startup_keil.s     0x00000000   Lc  Abs  File  De 
    286  STACK                      0x10008c70   Lc    3  Sect  De   0x1000
    287  StackMem                   0x10008c70   Lc    3  Data  De 
    288  HEAP                       0x10008c70   Lc    3  Sect  De 
    289  HeapMem                    0x10008c70   Lc    3  Data  De 
    290  RESET                      0x00018000   Lc    1  Sect  De   0x238
    291  $v0                        0x00018200   Lc    1   --   De 
    292  am_cryptosec_isr           0x00018231   Lc    1  Code  De 
    293  am_default_isr             0x00018231   Lc    1  Code  De   0x2
    294  .text                      0x00018370   Lc    1  Sect  De   0x18
    295  $v0                        0x00018370   Lc    1   --   De 
    296  ..\..\..\..\..\mcu\apollo4b\hal\am_hal_global.c
                                    0x00000000   Lc  Abs  File  De 
    297  ../../../../../mcu/apollo4b/hal/am_hal_global.c
                                    0x00000000   Lc  Abs  File  De 
    298  .data                      0x10000058   Lc    2  Sect  De   0x4
    299  ..\am_bsp.c                0x00000000   Lc  Abs  File  De 
    300  ../am_bsp.c                0x00000000   Lc  Abs  File  De 
    301  i.am_bsp_iom_pins_disable  0x00018520   Lc    1  Sect  De 
    302  i.am_bsp_iom_pins_enable   0x000187a8   Lc    1  Sect  De 
    303  i.am_bsp_itm_printf_enable 0x00018b30   Lc    1  Sect  De 
    304  i.am_bsp_low_power_init    0x00018ba8   Lc    1  Sect  De 
    305  .data                      0x1000005c   Lc    2  Sect  De   0x8
    306  g_ePrintInterface          0x1000005c   Lc    2  Data  De   0x1
    307  g_sCOMUART                 0x10000060   Lc    2  Data  De   0x4
    308  ..\..\..\..\..\mcu\apollo4b\hal\mcu\am_hal_cachectrl.c
                                    0x00000000   Lc  Abs  File  De 
    309  ../../../../../mcu/apollo4b/hal/mcu/am_hal_cachectrl.c
                                    0x00000000   Lc  Abs  File  De 
    310  i.am_hal_cachectrl_config  0x00018fc0   Lc    1  Sect  De 
    311  i.am_hal_cachectrl_enable  0x00019008   Lc    1  Sect  De 
    312  i.am_hal_daxi_config       0x00019540   Lc    1  Sect  De 
    313  i.am_hal_daxi_control      0x0001956a   Lc    1  Sect  De 
    314  .constdata                 0x0001d158   Lc    1  Sect  De   0x3
    315  .constdata                 0x0001d15b   Lc    1  Sect  De   0x3
    316  ..\..\..\..\..\mcu\apollo4b\hal\mcu\am_hal_fault.c
                                    0x00000000   Lc  Abs  File  De 
    317  ../../../../../mcu/apollo4b/hal/mcu/am_hal_fault.c
                                    0x00000000   Lc  Abs  File  De 
    318  i.am_hal_fault_capture_enable
                                    0x000197ec   Lc    1  Sect  De 
    319  i.am_hal_fault_status_get  0x000197fe   Lc    1  Sect  De 
    320  ..\..\..\..\..\mcu\apollo4b\hal\mcu\am_hal_interrupt.c
                                    0x00000000   Lc  Abs  File  De 
    321  .emb_text                  0x00018358   Lc    1  Sect  De   0x16
    322  $v0                        0x00018358   Lc    1   --   De 
    323  ../../../../../mcu/apollo4b/hal/mcu/am_hal_interrupt.c
                                    0x00000000   Lc  Abs  File  De 
    324  ..\..\..\..\..\mcu\apollo4b\hal\mcu\am_hal_iom.c
                                    0x00000000   Lc  Abs  File  De 
    325  ../../../../../mcu/apollo4b/hal/mcu/am_hal_iom.c
                                    0x00000000   Lc  Abs  File  De 
    326  i.am_hal_iom_blocking_transfer
                                    0x00019890   Lc    1  Sect  De 
    327  i.am_hal_iom_configure     0x00019bbc   Lc    1  Sect  De 
    328  i.am_hal_iom_control       0x00019e70   Lc    1  Sect  De 
    329  i.am_hal_iom_disable       0x0001a5d4   Lc    1  Sect  De 
    330  i.am_hal_iom_enable        0x0001a658   Lc    1  Sect  De 
    331  i.am_hal_iom_highprio_transfer
                                    0x0001a758   Lc    1  Sect  De 
    332  i.am_hal_iom_initialize    0x0001a8c0   Lc    1  Sect  De 
    333  i.am_hal_iom_interrupt_clear
                                    0x0001a914   Lc    1  Sect  De 
    334  i.am_hal_iom_interrupt_service
                                    0x0001a948   Lc    1  Sect  De 
    335  i.am_hal_iom_interrupt_status_get
                                    0x0001ac4c   Lc    1  Sect  De 
    336  i.am_hal_iom_power_ctrl    0x0001ac94   Lc    1  Sect  De 
    337  i.am_hal_iom_uninitialize  0x0001afa0   Lc    1  Sect  De 
    338  i.internal_iom_reset_on_error
                                    0x0001c304   Lc    1  Sect  De 
    339  internal_iom_reset_on_error
                                    0x0001c305   Lc    1  Code  De   0x12a
    340  i.iom_dummy_callback       0x0001c514   Lc    1  Sect  De 
    341  iom_dummy_callback         0x0001c515   Lc    1  Code  De   0x2
    342  i.iom_seq_loopback         0x0001c5b4   Lc    1  Sect  De 
    343  iom_seq_loopback           0x0001c5b5   Lc    1  Code  De   0x26
    344  i.sched_hiprio             0x0001c984   Lc    1  Sect  De 
    345  sched_hiprio               0x0001c985   Lc    1  Code  De   0x13a
    346  i.validate_transaction     0x0001ced4   Lc    1  Sect  De 
    347  .bss                       0x100044cc   Lc    3  Sect  De   0x4520
    348  ..\..\..\..\..\mcu\apollo4b\hal\mcu\am_hal_sysctrl.c
                                    0x00000000   Lc  Abs  File  De 
    349  ../../../../../mcu/apollo4b/hal/mcu/am_hal_sysctrl.c
                                    0x00000000   Lc  Abs  File  De 
    350  i.am_hal_sysctrl_sleep     0x0001b654   Lc    1  Sect  De 
    351  ..\..\..\..\..\mcu\apollo4b\hal\mcu\am_hal_utils.c
                                    0x00000000   Lc  Abs  File  De 
    352  ../../../../../mcu/apollo4b/hal/mcu/am_hal_utils.c
                                    0x00000000   Lc  Abs  File  De 
    353  i.am_hal_delay_us          0x00019704   Lc    1  Sect  De 
    354  i.am_hal_delay_us_status_change
                                    0x00019730   Lc    1  Sect  De 
    355  i.am_hal_delay_us_status_check
                                    0x00019788   Lc    1  Sect  De 
    356  i.am_hal_load_ui32         0x0001b0a4   Lc    1  Sect  De 
    357  ..\..\..\..\..\mcu\apollo4b\hal\am_hal_timer.c
                                    0x00000000   Lc  Abs  File  De 
    358  ../../../../../mcu/apollo4b/hal/am_hal_timer.c
                                    0x00000000   Lc  Abs  File  De 
    359  i.am_hal_timer_clear       0x0001b734   Lc    1  Sect  De 
    360  i.am_hal_timer_config      0x0001b794   Lc    1  Sect  De 
    361  i.am_hal_timer_default_config_set
                                    0x0001b7a0   Lc    1  Sect  De 
    362  i.am_hal_timer_interrupt_clear
                                    0x0001b7bc   Lc    1  Sect  De 
    363  i.am_hal_timer_interrupt_disable
                                    0x0001b7c8   Lc    1  Sect  De 
    364  i.am_hal_timer_interrupt_enable
                                    0x0001b7dc   Lc    1  Sect  De 
    365  i.am_hal_timer_interrupt_status_get
                                    0x0001b83c   Lc    1  Sect  De 
    366  i.am_hal_timer_start       0x0001b854   Lc    1  Sect  De 
    367  i.am_hal_timer_stop        0x0001b898   Lc    1  Sect  De 
    368  i.internal_timer_config    0x0001c434   Lc    1  Sect  De 
    369  i.timer_config_b1          0x0001cbe4   Lc    1  Sect  De 
    370  .bss                       0x100089ec   Lc    3  Sect  De   0x40
    371  TimerFlags                 0x100089ec   Lc    3  Data  De   0x40
    372  ..\am_bsp_pins.c           0x00000000   Lc  Abs  File  De 
    373  ../am_bsp_pins.c           0x00000000   Lc  Abs  File  De 
    374  .data                      0x10000064   Lc    2  Sect  De   0x4
    375  .data                      0x10000068   Lc    2  Sect  De   0x4
    376  .data                      0x1000006c   Lc    2  Sect  De   0x4
    377  .data                      0x10000070   Lc    2  Sect  De   0x4
    378  .data                      0x10000074   Lc    2  Sect  De   0x4
    379  .data                      0x10000078   Lc    2  Sect  De   0x4
    380  .data                      0x1000007c   Lc    2  Sect  De   0x4
    381  .data                      0x10000080   Lc    2  Sect  De   0x4
    382  .data                      0x10000084   Lc    2  Sect  De   0x4
    383  .data                      0x10000088   Lc    2  Sect  De   0x4
    384  .data                      0x1000008c   Lc    2  Sect  De   0x4
    385  .data                      0x10000090   Lc    2  Sect  De   0x4
    386  .data                      0x10000094   Lc    2  Sect  De   0x4
    387  .data                      0x10000098   Lc    2  Sect  De   0x4
    388  .data                      0x1000009c   Lc    2  Sect  De   0x4
    389  .data                      0x100000a0   Lc    2  Sect  De   0x4
    390  .data                      0x100000a4   Lc    2  Sect  De   0x4
    391  .data                      0x100000a8   Lc    2  Sect  De   0x4
    392  .data                      0x100000ac   Lc    2  Sect  De   0x4
    393  .data                      0x100000b0   Lc    2  Sect  De   0x4
    394  .data                      0x100000b4   Lc    2  Sect  De   0x4
    395  .data                      0x100000b8   Lc    2  Sect  De   0x4
    396  .data                      0x100000bc   Lc    2  Sect  De   0x4
    397  .data                      0x100000c0   Lc    2  Sect  De   0x4
    398  .data                      0x100000c4   Lc    2  Sect  De   0x4
    399  .data                      0x100000c8   Lc    2  Sect  De   0x4
    400  .data                      0x100000cc   Lc    2  Sect  De   0x4
    401  .data                      0x100000d0   Lc    2  Sect  De   0x4
    402  .data                      0x100000d4   Lc    2  Sect  De   0x4
    403  .data                      0x100000d8   Lc    2  Sect  De   0x4
    404  .data                      0x100000dc   Lc    2  Sect  De   0x4
    405  .data                      0x100000e0   Lc    2  Sect  De   0x4
    406  .data                      0x100000e4   Lc    2  Sect  De   0x4
    407  .data                      0x100000e8   Lc    2  Sect  De   0x4
    408  .data                      0x100000ec   Lc    2  Sect  De   0x4
    409  .data                      0x100000f0   Lc    2  Sect  De   0x4
    410  .data                      0x100000f4   Lc    2  Sect  De   0x4
    411  .data                      0x100000f8   Lc    2  Sect  De   0x4
    412  .data                      0x100000fc   Lc    2  Sect  De   0x4
    413  .data                      0x10000100   Lc    2  Sect  De   0x4
    414  .data                      0x10000104   Lc    2  Sect  De   0x4
    415  .data                      0x10000108   Lc    2  Sect  De   0x4
    416  .data                      0x1000010c   Lc    2  Sect  De   0x4
    417  .data                      0x10000110   Lc    2  Sect  De   0x4
    418  .data                      0x10000114   Lc    2  Sect  De   0x4
    419  .data                      0x10000118   Lc    2  Sect  De   0x4
    420  .data                      0x1000011c   Lc    2  Sect  De   0x4
    421  .data                      0x10000120   Lc    2  Sect  De   0x4
    422  .data                      0x10000124   Lc    2  Sect  De   0x4
    423  ..\..\..\..\..\mcu\apollo4b\hal\mcu\am_hal_bootrom_helper.c
                                    0x00000000   Lc  Abs  File  De 
    424  ../../../../../mcu/apollo4b/hal/mcu/am_hal_bootrom_helper.c
                                    0x00000000   Lc  Abs  File  De 
    425  .constdata                 0x0001d160   Lc    1  Sect  De   0x28
    426  ..\..\..\..\..\mcu\apollo4b\hal\mcu\am_hal_cmdq.c
                                    0x00000000   Lc  Abs  File  De 
    427  ../../../../../mcu/apollo4b/hal/mcu/am_hal_cmdq.c
                                    0x00000000   Lc  Abs  File  De 
    428  i.am_hal_cmdq_alloc_block  0x00019020   Lc    1  Sect  De 
    429  i.am_hal_cmdq_disable      0x000190ec   Lc    1  Sect  De 
    430  i.am_hal_cmdq_enable       0x0001912c   Lc    1  Sect  De 
    431  i.am_hal_cmdq_error_resume 0x0001916c   Lc    1  Sect  De 
    432  i.am_hal_cmdq_get_status   0x000191e0   Lc    1  Sect  De 
    433  i.am_hal_cmdq_init         0x00019284   Lc    1  Sect  De 
    434  i.am_hal_cmdq_post_block   0x00019374   Lc    1  Sect  De 
    435  i.am_hal_cmdq_post_loop_block
                                    0x000193c0   Lc    1  Sect  De 
    436  i.am_hal_cmdq_release_block
                                    0x0001941c   Lc    1  Sect  De 
    437  i.am_hal_cmdq_reset        0x00019454   Lc    1  Sect  De 
    438  i.am_hal_cmdq_term         0x000194b8   Lc    1  Sect  De 
    439  .bss                       0x10008a2c   Lc    3  Sect  De   0x1e4
    440  gAmHalCmdq                 0x10008a2c   Lc    3  Data  De   0x1e4
    441  .constdata                 0x0001d188   Lc    1  Sect  De   0x1b8
    442  gAmHalCmdQReg              0x0001d188   Lc    1  Data  De   0x1b8
    443  ..\..\..\..\..\mcu\apollo4b\hal\mcu\am_hal_itm.c
                                    0x00000000   Lc  Abs  File  De 
    444  ../../../../../mcu/apollo4b/hal/mcu/am_hal_itm.c
                                    0x00000000   Lc  Abs  File  De 
    445  i.am_hal_itm_enable        0x0001b02c   Lc    1  Sect  De 
    446  i.am_hal_itm_print         0x0001b074   Lc    1  Sect  De 
    447  ..\..\..\..\..\mcu\apollo4b\hal\mcu\am_hal_rtc.c
                                    0x00000000   Lc  Abs  File  De 
    448  ../../../../../mcu/apollo4b/hal/mcu/am_hal_rtc.c
                                    0x00000000   Lc  Abs  File  De 
    449  i.am_hal_rtc_osc_disable   0x0001b640   Lc    1  Sect  De 
    450  ..\..\..\..\..\mcu\apollo4b\hal\mcu\am_hal_tpiu.c
                                    0x00000000   Lc  Abs  File  De 
    451  ../../../../../mcu/apollo4b/hal/mcu/am_hal_tpiu.c
                                    0x00000000   Lc  Abs  File  De 
    452  i.am_hal_tpiu_enable       0x0001b8d8   Lc    1  Sect  De 
    453  ..\..\..\..\..\mcu\apollo4b\hal\mcu\am_hal_uart.c
                                    0x00000000   Lc  Abs  File  De 
    454  ../../../../../mcu/apollo4b/hal/mcu/am_hal_uart.c
                                    0x00000000   Lc  Abs  File  De 
    455  ..\..\..\..\..\mcu\apollo4b\hal\am_hal_dcu.c
                                    0x00000000   Lc  Abs  File  De 
    456  ../../../../../mcu/apollo4b/hal/am_hal_dcu.c
                                    0x00000000   Lc  Abs  File  De 
    457  i.am_hal_dcu_get           0x00019590   Lc    1  Sect  De 
    458  i.am_hal_dcu_update        0x00019620   Lc    1  Sect  De 
    459  i.copy_words               0x0001bfb8   Lc    1  Sect  De 
    460  copy_words                 0x0001bfb9   Lc    1  Code  De   0x28
    461  .data                      0x10000128   Lc    2  Sect  De   0x20
    462  ..\..\..\..\..\mcu\apollo4b\hal\am_hal_gpio.c
                                    0x00000000   Lc  Abs  File  De 
    463  ../../../../../mcu/apollo4b/hal/am_hal_gpio.c
                                    0x00000000   Lc  Abs  File  De 
    464  i.am_hal_gpio_pinconfig    0x0001983c   Lc    1  Sect  De 
    465  .constdata                 0x0001d340   Lc    1  Sect  De   0x4
    466  .constdata                 0x0001d344   Lc    1  Sect  De   0x10
    467  g_ui32DSpintbl             0x0001d344   Lc    1  Data  De   0x10
    468  ..\..\..\..\..\mcu\apollo4b\hal\am_hal_pwrctrl.c
                                    0x00000000   Lc  Abs  File  De 
    469  ../../../../../mcu/apollo4b/hal/am_hal_pwrctrl.c
                                    0x00000000   Lc  Abs  File  De 
    470  i.am_hal_pwrctrl_control   0x0001b144   Lc    1  Sect  De 
    471  i.am_hal_pwrctrl_low_power_init
                                    0x0001b2c0   Lc    1  Sect  De 
    472  i.am_hal_pwrctrl_mcu_memory_config
                                    0x0001b468   Lc    1  Sect  De 
    473  i.am_hal_pwrctrl_periph_disable
                                    0x0001b584   Lc    1  Sect  De 
    474  i.am_hal_pwrctrl_periph_enable
                                    0x0001b5e0   Lc    1  Sect  De 
    475  i.am_hal_util_write_and_wait
                                    0x0001b920   Lc    1  Sect  De 
    476  .constdata                 0x0001d354   Lc    1  Sect  De   0x23c
    477  .data                      0x10000148   Lc    2  Sect  De   0x1c
    478  g_WaitTimerDuration        0x1000015c   Lc    2  Data  De   0x4
    479  .data                      0x10000170   Lc    2  Sect  De   0x20
    480  storeAndWFIRAM             0x10000170   Lc    2  Data  De   0x20
    481  ..\..\..\..\..\mcu\apollo4b\hal\mcu\am_hal_mram.c
                                    0x00000000   Lc  Abs  File  De 
    482  ../../../../../mcu/apollo4b/hal/mcu/am_hal_mram.c
                                    0x00000000   Lc  Abs  File  De 
    483  i.am_hal_mram_info_read    0x0001b0b0   Lc    1  Sect  De 
    484  .data                      0x10000190   Lc    2  Sect  De   0xb4
    485  g_program_mram_tmc_tcycrd  0x10000190   Lc    2  Data  De   0xb4
    486  .data                      0x10000244   Lc    2  Sect  De   0x4
    487  ..\..\..\..\..\mcu\apollo4b\hal\am_hal_pin.c
                                    0x00000000   Lc  Abs  File  De 
    488  ../../../../../mcu/apollo4b/hal/am_hal_pin.c
                                    0x00000000   Lc  Abs  File  De 
    489  ..\..\..\..\..\mcu\apollo4b\hal\am_hal_queue.c
                                    0x00000000   Lc  Abs  File  De 
    490  ../../../../../mcu/apollo4b/hal/am_hal_queue.c
                                    0x00000000   Lc  Abs  File  De 
    491  dc.s                       0x00000000   Lc  Abs  File  De 
    492  ../clib/longlong.s         0x00000000   Lc  Abs  File  De 
    493  .text                      0x00018388   Lc    1  Sect  De   0x26
    494  ../clib/longlong.s         0x00000000   Lc  Abs  File  De 
    495  .text                      0x000183ae   Lc    1  Sect  De   0x26
    496  ../clib/memcpset.s         0x00000000   Lc  Abs  File  De 
    497  .text                      0x000183d4   Lc    1  Sect  De   0x64
    498  ../clib/memcpset.s         0x00000000   Lc  Abs  File  De 
    499  .text                      0x00018438   Lc    1  Sect  De   0x4e
    500  ../clib/heapaux.c          0x00000000   Lc  Abs  File  De 
    501  .text                      0x00018486   Lc    1  Sect  De 
    502  ../clib/angel/startup.s    0x00000000   Lc  Abs  File  De 
    503  !!!main                    0x00018238   Lc    1  Sect  De   0x8
    504  ../clib/angel/handlers.s   0x00000000   Lc  Abs  File  De 
    505  !!handler_copy             0x000182d0   Lc    1  Sect  De   0x1a
    506  ../fplib/d2f.s             0x00000000   Lc  Abs  File  De 
    507  x$fpl$d2f                  0x0001cfb0   Lc    1  Sect  De   0x62
    508  $v0                        0x0001cfb0   Lc    1   --   De 
    509  ../clib/angel/kernel.s     0x00000000   Lc  Abs  File  De 
    510  .ARM.Collect$$rtentry$$00000000
                                    0x00018314   Lc    1  Sect  De 
    511  ../fplib/dnaninf.s         0x00000000   Lc  Abs  File  De 
    512  x$fpl$dnaninf              0x0001d012   Lc    1  Sect  De   0x9c
    513  $v0                        0x0001d012   Lc    1   --   De 
    514  ../fplib/fretinf.s         0x00000000   Lc  Abs  File  De 
    515  x$fpl$fretinf              0x0001d0b8   Lc    1  Sect  De   0xa
    516  $v0                        0x0001d0b8   Lc    1   --   De 
    517  ../fplib/usenofp.s         0x00000000   Lc  Abs  File  De 
    518  x$fpl$usenofp              0x0001d0c2   Lc    1  Sect  De 
    519  ../clib/angel/kernel.s     0x00000000   Lc  Abs  File  De 
    520  .ARM.Collect$$rtentry$$00000002
                                    0x00018314   Lc    1  Sect  De 
    521  .ARM.Collect$$rtentry$$00000009
                                    0x0001831a   Lc    1  Sect  De 
    522  .ARM.Collect$$rtentry$$0000000A
                                    0x0001831a   Lc    1  Sect  De   0x4
    523  .ARM.Collect$$rtentry$$0000000C
                                    0x0001831e   Lc    1  Sect  De 
    524  .ARM.Collect$$rtentry$$0000000D
                                    0x0001831e   Lc    1  Sect  De   0x8
    525  ../clib/angel/kernel.s     0x00000000   Lc  Abs  File  De 
    526  .ARM.Collect$$rtentry$$00000004
                                    0x00018314   Lc    1  Sect  De   0x6
    527  ../clib/angel/sys.s        0x00000000   Lc  Abs  File  De 
    528  .text                      0x0001848c   Lc    1  Sect  De   0x4a
    529  ../clib/stdlib.c           0x00000000   Lc  Abs  File  De 
    530  .text                      0x000184d6   Lc    1  Sect  De 
    531  ../clib/angel/boardlib.s   0x00000000   Lc  Abs  File  De 
    532  ../clib/angel/boardlib.s   0x00000000   Lc  Abs  File  De 
    533  ../clib/angel/boardlib.s   0x00000000   Lc  Abs  File  De 
    534  ../clib/libinit.s          0x00000000   Lc  Abs  File  De 
    535  .ARM.Collect$$libinit$$00000000
                                    0x00018308   Lc    1  Sect  De   0x2
    536  ../clib/angel/sys.s        0x00000000   Lc  Abs  File  De 
    537  .text                      0x000184e8   Lc    1  Sect  De   0x8
    538  .bss                       0x10008c10   Lc    3  Sect  De   0x60
    539  ../clib/angel/kernel.s     0x00000000   Lc  Abs  File  De 
    540  .ARM.Collect$$rtexit$$00000000
                                    0x00018326   Lc    1  Sect  De   0x2
    541  ../clib/libinit.s          0x00000000   Lc  Abs  File  De 
    542  .ARM.Collect$$libinit$$00000001
                                    0x0001830a   Lc    1  Sect  De   0x4
    543  .ARM.Collect$$libinit$$00000004
                                    0x0001830e   Lc    1  Sect  De 
    544  .ARM.Collect$$libinit$$0000000A
                                    0x0001830e   Lc    1  Sect  De 
    545  .ARM.Collect$$libinit$$0000000C
                                    0x0001830e   Lc    1  Sect  De 
    546  .ARM.Collect$$libinit$$0000000E
                                    0x0001830e   Lc    1  Sect  De 
    547  .ARM.Collect$$libinit$$00000011
                                    0x0001830e   Lc    1  Sect  De 
    548  .ARM.Collect$$libinit$$00000013
                                    0x0001830e   Lc    1  Sect  De 
    549  .ARM.Collect$$libinit$$00000015
                                    0x0001830e   Lc    1  Sect  De 
    550  .ARM.Collect$$libinit$$00000017
                                    0x0001830e   Lc    1  Sect  De 
    551  .ARM.Collect$$libinit$$00000019
                                    0x0001830e   Lc    1  Sect  De 
    552  .ARM.Collect$$libinit$$0000001B
                                    0x0001830e   Lc    1  Sect  De 
    553  .ARM.Collect$$libinit$$0000001D
                                    0x0001830e   Lc    1  Sect  De 
    554  .ARM.Collect$$libinit$$0000001F
                                    0x0001830e   Lc    1  Sect  De 
    555  .ARM.Collect$$libinit$$00000021
                                    0x0001830e   Lc    1  Sect  De 
    556  .ARM.Collect$$libinit$$00000023
                                    0x0001830e   Lc    1  Sect  De 
    557  .ARM.Collect$$libinit$$00000025
                                    0x0001830e   Lc    1  Sect  De 
    558  .ARM.Collect$$libinit$$0000002C
                                    0x0001830e   Lc    1  Sect  De 
    559  .ARM.Collect$$libinit$$0000002E
                                    0x0001830e   Lc    1  Sect  De 
    560  .ARM.Collect$$libinit$$00000030
                                    0x0001830e   Lc    1  Sect  De 
    561  .ARM.Collect$$libinit$$00000032
                                    0x0001830e   Lc    1  Sect  De 
    562  .ARM.Collect$$libinit$$00000033
                                    0x0001830e   Lc    1  Sect  De   0x2
    563  ../clib/angel/kernel.s     0x00000000   Lc  Abs  File  De 
    564  .ARM.Collect$$rtexit$$00000002
                                    0x00018328   Lc    1  Sect  De 
    565  .ARM.Collect$$rtexit$$00000003
                                    0x00018328   Lc    1  Sect  De   0x4
    566  .ARM.Collect$$rtexit$$00000004
                                    0x0001832c   Lc    1  Sect  De   0x6
    567  ../clib/armsys.c           0x00000000   Lc  Abs  File  De 
    568  ../clib/armsys.c           0x00000000   Lc  Abs  File  De 
    569  ../fplib/fpinit.s          0x00000000   Lc  Abs  File  De 
    570  x$fpl$fpinit               0x0001d0ae   Lc    1  Sect  De   0xa
    571  $v0                        0x0001d0ae   Lc    1   --   De 
    572  ../clib/angel/sysapp.c     0x00000000   Lc  Abs  File  De 
    573  .text                      0x000184f0   Lc    1  Sect  De 
    574  ../clib/angel/boardlib.s   0x00000000   Lc  Abs  File  De 
    575  ../clib/armsys.c           0x00000000   Lc  Abs  File  De 
    576  ../clib/armsys.c           0x00000000   Lc  Abs  File  De 
    577  ../clib/libinit.s          0x00000000   Lc  Abs  File  De 
    578  .ARM.Collect$$libshutdown$$00000000
                                    0x00018310   Lc    1  Sect  De   0x2
    579  ../clib/angel/sysapp.c     0x00000000   Lc  Abs  File  De 
    580  ../clib/angel/sys.s        0x00000000   Lc  Abs  File  De 
    581  .text                      0x000184fc   Lc    1  Sect  De   0x2
    582  ../clib/angel/sys.s        0x00000000   Lc  Abs  File  De 
    583  .text                      0x000184fe   Lc    1  Sect  De 
    584  ../clib/heapalloc.c        0x00000000   Lc  Abs  File  De 
    585  ../clib/signal.c           0x00000000   Lc  Abs  File  De 
    586  ../clib/signal.c           0x00000000   Lc  Abs  File  De 
    587  ../clib/libinit.s          0x00000000   Lc  Abs  File  De 
    588  .ARM.Collect$$libshutdown$$00000002
                                    0x00018312   Lc    1  Sect  De 
    589  .ARM.Collect$$libshutdown$$00000004
                                    0x00018312   Lc    1  Sect  De 
    590  .ARM.Collect$$libshutdown$$00000007
                                    0x00018312   Lc    1  Sect  De 
    591  .ARM.Collect$$libshutdown$$0000000A
                                    0x00018312   Lc    1  Sect  De 
    592  .ARM.Collect$$libshutdown$$0000000C
                                    0x00018312   Lc    1  Sect  De 
    593  .ARM.Collect$$libshutdown$$0000000F
                                    0x00018312   Lc    1  Sect  De 
    594  .ARM.Collect$$libshutdown$$00000010
                                    0x00018312   Lc    1  Sect  De   0x2
    595  ../clib/angel/rt.s         0x00000000   Lc  Abs  File  De 
    596  ../clib/signal.c           0x00000000   Lc  Abs  File  De 
    597  ../clib/signal.c           0x00000000   Lc  Abs  File  De 
    598  ../clib/signal.c           0x00000000   Lc  Abs  File  De 
    599  ../clib/signal.c           0x00000000   Lc  Abs  File  De 
    600  ../clib/angel/sysapp.c     0x00000000   Lc  Abs  File  De 
    601  ../clib/signal.s           0x00000000   Lc  Abs  File  De 
    602  ../clib/signal.c           0x00000000   Lc  Abs  File  De 
    603  ../clib/signal.c           0x00000000   Lc  Abs  File  De 
    604  ../clib/signal.c           0x00000000   Lc  Abs  File  De 
    605  ../clib/signal.c           0x00000000   Lc  Abs  File  De 
    606  ../clib/signal.c           0x00000000   Lc  Abs  File  De 
    607  ../clib/signal.c           0x00000000   Lc  Abs  File  De 
    608  ../clib/signal.c           0x00000000   Lc  Abs  File  De 
    609  ../clib/signal.c           0x00000000   Lc  Abs  File  De 
    610  ../clib/angel/dczerorl2.s  0x00000000   Lc  Abs  File  De 
    611  !!dczerorl2                0x00018274   Lc    1  Sect  De   0x5a
    612  ../clib/angel/scatter.s    0x00000000   Lc  Abs  File  De 
    613  !!!scatter                 0x00018240   Lc    1  Sect  De   0x34
    614  ../clib/angel/handlers.s   0x00000000   Lc  Abs  File  De 
    615  !!handler_zi               0x000182ec   Lc    1  Sect  De   0x1c
    616  BuildAttributes$$THM_ISAv4$E$P$D$K$B$S$7EM$VFPi3$EXTD16$VFPS$VFMA$PE$A:L22UL41UL21$X:L11$S22US41US21$IEEE1$IW$USESV6$~STKCKD$USESV7$~SHL$OTIME$ROPI$EBA8$UX$STANDARDLIB$REQ8$PRES8$EABIv2
                                    0x00000000   Gb  Abs   --   Hi 
    617  __ARM_use_no_argv          0x00000000   Gb  Abs   --   Hi 
    618  __Vectors                  0x00018000   Gb    1  Data  Hi 
    619  __Patchable                0x00018190   Gb    1  Data  Hi 
    620  Reset_Handler              0x00018201   Wk    1  Code  Hi   0x1c
    621  NMI_Handler                0x0001821f   Wk    1  Code  Hi   0x2
    622  MemManage_Handler          0x00018221   Wk    1  Code  Hi   0x2
    623  BusFault_Handler           0x00018223   Wk    1  Code  Hi   0x2
    624  UsageFault_Handler         0x00018225   Wk    1  Code  Hi   0x2
    625  SecureFault_Handler        0x00018227   Wk    1  Code  Hi   0x2
    626  SVC_Handler                0x00018229   Wk    1  Code  Hi   0x2
    627  DebugMon_Handler           0x0001822b   Wk    1  Code  Hi   0x2
    628  PendSV_Handler             0x0001822d   Wk    1  Code  Hi   0x2
    629  SysTick_Handler            0x0001822f   Wk    1  Code  Hi   0x2
    630  am_adc_isr                 0x00018231   Wk    1  Code  Hi 
    631  am_audadc0_isr             0x00018231   Wk    1  Code  Hi 
    632  am_brownout_isr            0x00018231   Wk    1  Code  Hi 
    633  am_cachecpu_isr            0x00018231   Wk    1  Code  Hi 
    634  am_clkgen_isr              0x00018231   Wk    1  Code  Hi 
    635  am_disp_isr                0x00018231   Wk    1  Code  Hi 
    636  am_dsi_isr                 0x00018231   Wk    1  Code  Hi 
    637  am_dspi2s0_isr             0x00018231   Wk    1  Code  Hi 
    638  am_dspi2s1_isr             0x00018231   Wk    1  Code  Hi 
    639  am_dspi2s2_isr             0x00018231   Wk    1  Code  Hi 
    640  am_dspi2s3_isr             0x00018231   Wk    1  Code  Hi 
    641  am_gpio0_001f_isr          0x00018231   Wk    1  Code  Hi 
    642  am_gpio0_203f_isr          0x00018231   Wk    1  Code  Hi 
    643  am_gpio0_405f_isr          0x00018231   Wk    1  Code  Hi 
    644  am_gpio0_607f_isr          0x00018231   Wk    1  Code  Hi 
    645  am_gpio1_001f_isr          0x00018231   Wk    1  Code  Hi 
    646  am_gpio1_203f_isr          0x00018231   Wk    1  Code  Hi 
    647  am_gpio1_405f_isr          0x00018231   Wk    1  Code  Hi 
    648  am_gpio1_607f_isr          0x00018231   Wk    1  Code  Hi 
    649  am_gpu_isr                 0x00018231   Wk    1  Code  Hi 
    650  am_iomaster1_isr           0x00018231   Wk    1  Code  Hi 
    651  am_iomaster2_isr           0x00018231   Wk    1  Code  Hi 
    652  am_iomaster3_isr           0x00018231   Wk    1  Code  Hi 
    653  am_iomaster4_isr           0x00018231   Wk    1  Code  Hi 
    654  am_iomaster5_isr           0x00018231   Wk    1  Code  Hi 
    655  am_iomaster6_isr           0x00018231   Wk    1  Code  Hi 
    656  am_iomaster7_isr           0x00018231   Wk    1  Code  Hi 
    657  am_ioslave_acc_isr         0x00018231   Wk    1  Code  Hi 
    658  am_ioslave_ios_isr         0x00018231   Wk    1  Code  Hi 
    659  am_mspi0_isr               0x00018231   Wk    1  Code  Hi 
    660  am_mspi1_isr               0x00018231   Wk    1  Code  Hi 
    661  am_mspi2_isr               0x00018231   Wk    1  Code  Hi 
    662  am_pdm0_isr                0x00018231   Wk    1  Code  Hi 
    663  am_pdm1_isr                0x00018231   Wk    1  Code  Hi 
    664  am_pdm2_isr                0x00018231   Wk    1  Code  Hi 
    665  am_pdm3_isr                0x00018231   Wk    1  Code  Hi 
    666  am_rtc_isr                 0x00018231   Wk    1  Code  Hi 
    667  am_sdio_isr                0x00018231   Wk    1  Code  Hi 
    668  am_stimer_cmpr0_isr        0x00018231   Wk    1  Code  Hi 
    669  am_stimer_cmpr1_isr        0x00018231   Wk    1  Code  Hi 
    670  am_stimer_cmpr2_isr        0x00018231   Wk    1  Code  Hi 
    671  am_stimer_cmpr3_isr        0x00018231   Wk    1  Code  Hi 
    672  am_stimer_cmpr4_isr        0x00018231   Wk    1  Code  Hi 
    673  am_stimer_cmpr5_isr        0x00018231   Wk    1  Code  Hi 
    674  am_stimer_cmpr6_isr        0x00018231   Wk    1  Code  Hi 
    675  am_stimer_cmpr7_isr        0x00018231   Wk    1  Code  Hi 
    676  am_stimerof_isr            0x00018231   Wk    1  Code  Hi 
    677  am_timer00_isr             0x00018231   Wk    1  Code  Hi 
    678  am_timer01_isr             0x00018231   Wk    1  Code  Hi 
    679  am_timer02_isr             0x00018231   Wk    1  Code  Hi 
    680  am_timer03_isr             0x00018231   Wk    1  Code  Hi 
    681  am_timer04_isr             0x00018231   Wk    1  Code  Hi 
    682  am_timer05_isr             0x00018231   Wk    1  Code  Hi 
    683  am_timer06_isr             0x00018231   Wk    1  Code  Hi 
    684  am_timer07_isr             0x00018231   Wk    1  Code  Hi 
    685  am_timer08_isr             0x00018231   Wk    1  Code  Hi 
    686  am_timer09_isr             0x00018231   Wk    1  Code  Hi 
    687  am_timer10_isr             0x00018231   Wk    1  Code  Hi 
    688  am_timer11_isr             0x00018231   Wk    1  Code  Hi 
    689  am_timer12_isr             0x00018231   Wk    1  Code  Hi 
    690  am_timer13_isr             0x00018231   Wk    1  Code  Hi 
    691  am_timer14_isr             0x00018231   Wk    1  Code  Hi 
    692  am_timer15_isr             0x00018231   Wk    1  Code  Hi 
    693  am_uart1_isr               0x00018231   Wk    1  Code  Hi 
    694  am_uart2_isr               0x00018231   Wk    1  Code  Hi 
    695  am_uart3_isr               0x00018231   Wk    1  Code  Hi 
    696  am_uart_isr                0x00018231   Wk    1  Code  Hi 
    697  am_usb_isr                 0x00018231   Wk    1  Code  Hi 
    698  am_vcomp_isr               0x00018231   Wk    1  Code  Hi 
    699  am_watchdog_isr            0x00018231   Wk    1  Code  Hi 
    700  __main                     0x00018239   Gb    1  Code  Hi   0x8
    701  __scatterload              0x00018241   Gb    1  Code  Hi 
    702  __scatterload_rt2          0x00018241   Gb    1  Code  Hi   0x2c
    703  __scatterload_rt2_thumb_only
                                    0x00018241   Gb    1  Code  Hi 
    704  __scatterload_null         0x0001824f   Gb    1  Code  Hi 
    705  __decompress               0x00018275   Gb    1  Code  Hi   0x5a
    706  __decompress1              0x00018275   Gb    1  Code  Hi 
    707  __scatterload_copy         0x000182d1   Gb    1  Code  Hi   0x1a
    708  __scatterload_zeroinit     0x000182ed   Gb    1  Code  Hi   0x1c
    709  __rt_lib_init              0x00018309   Gb    1  Code  De 
    710  __rt_lib_init_fp_1         0x0001830b   Gb    1  Code  Hi 
    711  __rt_lib_init_alloca_1     0x0001830f   Gb    1  Code  Hi 
    712  __rt_lib_init_argv_1       0x0001830f   Gb    1  Code  Hi 
    713  __rt_lib_init_atexit_1     0x0001830f   Gb    1  Code  Hi 
    714  __rt_lib_init_clock_1      0x0001830f   Gb    1  Code  Hi 
    715  __rt_lib_init_cpp_1        0x0001830f   Gb    1  Code  Hi 
    716  __rt_lib_init_exceptions_1 0x0001830f   Gb    1  Code  Hi 
    717  __rt_lib_init_fp_trap_1    0x0001830f   Gb    1  Code  Hi 
    718  __rt_lib_init_getenv_1     0x0001830f   Gb    1  Code  Hi 
    719  __rt_lib_init_heap_1       0x0001830f   Gb    1  Code  Hi 
    720  __rt_lib_init_lc_collate_1 0x0001830f   Gb    1  Code  Hi 
    721  __rt_lib_init_lc_ctype_1   0x0001830f   Gb    1  Code  Hi 
    722  __rt_lib_init_lc_monetary_1
                                    0x0001830f   Gb    1  Code  Hi 
    723  __rt_lib_init_lc_numeric_1 0x0001830f   Gb    1  Code  Hi 
    724  __rt_lib_init_lc_time_1    0x0001830f   Gb    1  Code  Hi 
    725  __rt_lib_init_preinit_1    0x0001830f   Gb    1  Code  Hi 
    726  __rt_lib_init_rand_1       0x0001830f   Gb    1  Code  Hi 
    727  __rt_lib_init_return       0x0001830f   Gb    1  Code  Hi 
    728  __rt_lib_init_signal_1     0x0001830f   Gb    1  Code  Hi 
    729  __rt_lib_init_stdio_1      0x0001830f   Gb    1  Code  Hi 
    730  __rt_lib_init_user_alloc_1 0x0001830f   Gb    1  Code  Hi 
    731  __rt_lib_shutdown          0x00018311   Gb    1  Code  De 
    732  __rt_lib_shutdown_cpp_1    0x00018313   Gb    1  Code  Hi 
    733  __rt_lib_shutdown_fp_trap_1
                                    0x00018313   Gb    1  Code  Hi 
    734  __rt_lib_shutdown_heap_1   0x00018313   Gb    1  Code  Hi 
    735  __rt_lib_shutdown_return   0x00018313   Gb    1  Code  Hi 
    736  __rt_lib_shutdown_signal_1 0x00018313   Gb    1  Code  Hi 
    737  __rt_lib_shutdown_stdio_1  0x00018313   Gb    1  Code  Hi 
    738  __rt_lib_shutdown_user_alloc_1
                                    0x00018313   Gb    1  Code  Hi 
    739  __rt_entry                 0x00018315   Gb    1  Code  Hi 
    740  __rt_entry_presh_1         0x00018315   Gb    1  Code  Hi 
    741  __rt_entry_sh              0x00018315   Gb    1  Code  Hi 
    742  __rt_entry_li              0x0001831b   Gb    1  Code  Hi 
    743  __rt_entry_postsh_1        0x0001831b   Gb    1  Code  Hi 
    744  __rt_entry_main            0x0001831f   Gb    1  Code  Hi 
    745  __rt_entry_postli_1        0x0001831f   Gb    1  Code  Hi 
    746  __rt_exit                  0x00018327   Gb    1  Code  De 
    747  __rt_exit_ls               0x00018329   Gb    1  Code  Hi 
    748  __rt_exit_prels_1          0x00018329   Gb    1  Code  Hi 
    749  __rt_exit_exit             0x0001832d   Gb    1  Code  Hi 
    750  HardFault_Handler          0x00018335   Gb    1  Code  Hi   0x1a
    751  getStackedReg              0x0001834f   Gb    1  Code  Hi   0x8
    752  am_hal_interrupt_master_enable
                                    0x00018359   Gb    1  Code  Hi   0x8
    753  am_hal_interrupt_master_disable
                                    0x00018361   Gb    1  Code  Hi   0x8
    754  am_hal_interrupt_master_set
                                    0x00018369   Gb    1  Code  Hi   0x6
    755  __user_initial_stackheap   0x00018371   Gb    1  Code  Hi   0xa
    756  __aeabi_llsl               0x00018389   Gb    1  Code  Hi 
    757  _ll_shift_l                0x00018389   Gb    1  Code  De   0x26
    758  __aeabi_llsr               0x000183af   Gb    1  Code  Hi 
    759  _ll_ushift_r               0x000183af   Gb    1  Code  De   0x26
    760  __aeabi_memcpy4            0x000183d5   Gb    1  Code  Hi 
    761  __aeabi_memcpy8            0x000183d5   Gb    1  Code  De 
    762  __rt_memcpy_w              0x000183d5   Gb    1  Code  De   0x64
    763  _memcpy_lastbytes_aligned  0x0001841d   Gb    1  Code  De 
    764  __aeabi_memclr4            0x00018439   Gb    1  Code  Hi 
    765  __aeabi_memclr8            0x00018439   Gb    1  Code  De 
    766  __rt_memclr_w              0x00018439   Gb    1  Code  De   0x4e
    767  _memset_w                  0x0001843d   Gb    1  Code  De 
    768  __use_two_region_memory    0x00018487   Gb    1  Code  Hi   0x2
    769  __rt_heap_escrow$2region   0x00018489   Gb    1  Code  De   0x2
    770  __rt_heap_expand$2region   0x0001848b   Gb    1  Code  De   0x2
    771  __user_setup_stackheap     0x0001848d   Gb    1  Code  De   0x4a
    772  exit                       0x000184d7   Gb    1  Code  De   0x12
    773  __user_libspace            0x000184e9   Wk    1  Code  De   0x8
    774  __user_perproc_libspace    0x000184e9   Wk    1  Code  De 
    775  __user_perthread_libspace  0x000184e9   Wk    1  Code  De 
    776  _sys_exit                  0x000184f1   Gb    1  Code  De   0x8
    777  __I$use$semihosting        0x000184fd   Gb    1  Code  Hi 
    778  __use_no_semihosting_swi   0x000184fd   Gb    1  Code  Hi   0x2
    779  __semihosting_library_function
                                    0x000184ff   Gb    1  Code  Hi 
    780  am_bsp_iom_pins_disable    0x00018521   Gb    1  Code  Hi   0x282
    781  am_bsp_iom_pins_enable     0x000187a9   Gb    1  Code  Hi   0x2c6
    782  am_bsp_itm_printf_enable   0x00018b31   Gb    1  Code  Hi   0x60
    783  am_bsp_low_power_init      0x00018ba9   Gb    1  Code  Hi   0x16
    784  am_ctimer_isr              0x00018bc1   Gb    1  Code  Hi   0x16
    785  am_devices_spipsram_command_read
                                    0x00018bdd   Gb    1  Code  Hi   0x82
    786  am_devices_spipsram_command_write
                                    0x00018c65   Gb    1  Code  Hi   0x76
    787  am_devices_spipsram_init   0x00018ce1   Gb    1  Code  Hi   0x192
    788  am_devices_spipsram_nonblocking_read
                                    0x00018e85   Gb    1  Code  Hi   0x3e
    789  am_devices_spipsram_nonblocking_write
                                    0x00018ec3   Gb    1  Code  Hi   0x3e
    790  am_devices_spipsram_read_id
                                    0x00018f01   Gb    1  Code  Hi   0x2e
    791  am_devices_spipsram_reset  0x00018f2f   Gb    1  Code  Hi   0x4c
    792  am_devices_spipsram_term   0x00018f7d   Gb    1  Code  Hi   0x3e
    793  am_hal_cachectrl_config    0x00018fc1   Gb    1  Code  Hi   0x48
    794  am_hal_cachectrl_enable    0x00019009   Gb    1  Code  Hi   0x18
    795  am_hal_cmdq_alloc_block    0x00019021   Gb    1  Code  Hi   0xc8
    796  am_hal_cmdq_disable        0x000190ed   Gb    1  Code  Hi   0x3c
    797  am_hal_cmdq_enable         0x0001912d   Gb    1  Code  Hi   0x3c
    798  am_hal_cmdq_error_resume   0x0001916d   Gb    1  Code  Hi   0x70
    799  am_hal_cmdq_get_status     0x000191e1   Gb    1  Code  Hi   0x9e
    800  am_hal_cmdq_init           0x00019285   Gb    1  Code  Hi   0xe2
    801  am_hal_cmdq_post_block     0x00019375   Gb    1  Code  Hi   0x48
    802  am_hal_cmdq_post_loop_block
                                    0x000193c1   Gb    1  Code  Hi   0x56
    803  am_hal_cmdq_release_block  0x0001941d   Gb    1  Code  Hi   0x32
    804  am_hal_cmdq_reset          0x00019455   Gb    1  Code  Hi   0x5e
    805  am_hal_cmdq_term           0x000194b9   Gb    1  Code  Hi   0x84
    806  am_hal_daxi_config         0x00019541   Gb    1  Code  Hi   0x2a
    807  am_hal_daxi_control        0x0001956b   Gb    1  Code  Hi   0x24
    808  am_hal_dcu_get             0x00019591   Gb    1  Code  Hi   0x84
    809  am_hal_dcu_update          0x00019621   Gb    1  Code  Hi   0xd6
    810  am_hal_delay_us            0x00019705   Gb    1  Code  Hi   0x22
    811  am_hal_delay_us_status_change
                                    0x00019731   Gb    1  Code  Hi   0x50
    812  am_hal_delay_us_status_check
                                    0x00019789   Gb    1  Code  Hi   0x5c
    813  am_hal_fault_capture_enable
                                    0x000197ed   Gb    1  Code  Hi   0x12
    814  am_hal_fault_status_get    0x000197ff   Gb    1  Code  Hi   0x3e
    815  am_hal_gpio_pinconfig      0x0001983d   Gb    1  Code  Hi   0x4c
    816  am_hal_iom_blocking_transfer
                                    0x00019891   Gb    1  Code  Hi   0x314
    817  am_hal_iom_configure       0x00019bbd   Gb    1  Code  Hi   0x27c
    818  am_hal_iom_control         0x00019e71   Gb    1  Code  Hi   0x752
    819  am_hal_iom_disable         0x0001a5d5   Gb    1  Code  Hi   0x80
    820  am_hal_iom_enable          0x0001a659   Gb    1  Code  Hi   0xf8
    821  am_hal_iom_highprio_transfer
                                    0x0001a759   Gb    1  Code  Hi   0x160
    822  am_hal_iom_initialize      0x0001a8c1   Gb    1  Code  Hi   0x4c
    823  am_hal_iom_interrupt_clear 0x0001a915   Gb    1  Code  Hi   0x2e
    824  am_hal_iom_interrupt_service
                                    0x0001a949   Gb    1  Code  Hi   0x2f6
    825  am_hal_iom_interrupt_status_get
                                    0x0001ac4d   Gb    1  Code  Hi   0x44
    826  am_hal_iom_power_ctrl      0x0001ac95   Gb    1  Code  Hi   0x304
    827  am_hal_iom_uninitialize    0x0001afa1   Gb    1  Code  Hi   0x88
    828  am_hal_itm_enable          0x0001b02d   Gb    1  Code  Hi   0x2c
    829  am_hal_itm_print           0x0001b075   Gb    1  Code  Hi   0x30
    830  am_hal_load_ui32           0x0001b0a5   Gb    1  Code  Hi   0x6
    831  am_hal_mram_info_read      0x0001b0b1   Gb    1  Code  Hi   0x8c
    832  am_hal_pwrctrl_control     0x0001b145   Gb    1  Code  Hi   0x15c
    833  am_hal_pwrctrl_low_power_init
                                    0x0001b2c1   Gb    1  Code  Hi   0x18a
    834  am_hal_pwrctrl_mcu_memory_config
                                    0x0001b469   Gb    1  Code  Hi   0x114
    835  am_hal_pwrctrl_periph_disable
                                    0x0001b585   Gb    1  Code  Hi   0x54
    836  am_hal_pwrctrl_periph_enable
                                    0x0001b5e1   Gb    1  Code  Hi   0x56
    837  am_hal_rtc_osc_disable     0x0001b641   Gb    1  Code  Hi   0xe
    838  am_hal_sysctrl_sleep       0x0001b655   Gb    1  Code  Hi   0xca
    839  am_hal_timer_clear         0x0001b735   Gb    1  Code  Hi   0x5a
    840  am_hal_timer_config        0x0001b795   Gb    1  Code  Hi   0xc
    841  am_hal_timer_default_config_set
                                    0x0001b7a1   Gb    1  Code  Hi   0x1c
    842  am_hal_timer_interrupt_clear
                                    0x0001b7bd   Gb    1  Code  Hi   0x8
    843  am_hal_timer_interrupt_disable
                                    0x0001b7c9   Gb    1  Code  Hi   0xe
    844  am_hal_timer_interrupt_enable
                                    0x0001b7dd   Gb    1  Code  Hi   0x54
    845  am_hal_timer_interrupt_status_get
                                    0x0001b83d   Gb    1  Code  Hi   0x12
    846  am_hal_timer_start         0x0001b855   Gb    1  Code  Hi   0x3e
    847  am_hal_timer_stop          0x0001b899   Gb    1  Code  Hi   0x3a
    848  am_hal_tpiu_enable         0x0001b8d9   Gb    1  Code  Hi   0x3c
    849  am_hal_util_write_and_wait 0x0001b921   Gb    1  Code  Hi   0x11e
    850  am_iomaster0_isr           0x0001ba5d   Gb    1  Code  Hi   0x2a
    851  am_util_delay_us           0x0001ba8d   Gb    1  Code  Hi   0xc
    852  am_util_faultisr_collect_data
                                    0x0001ba99   Gb    1  Code  Hi   0xb2
    853  am_util_stdio_printf       0x0001bb51   Gb    1  Code  Hi   0x32
    854  am_util_stdio_printf_init  0x0001bb8d   Gb    1  Code  Hi   0x6
    855  am_util_stdio_terminal_clear
                                    0x0001bb99   Gb    1  Code  Hi   0xa
    856  am_util_stdio_vsprintf     0x0001bbb9   Gb    1  Code  Hi   0x3a4
    857  init_pattern               0x0001c2f1   Gb    1  Code  Hi   0x10
    858  internal_timer_config      0x0001c435   Gb    1  Code  Hi   0xdc
    859  main                       0x0001c5dd   Gb    1  Code  Hi   0x126
    860  psram_init                 0x0001c839   Gb    1  Code  Hi   0x52
    861  psram_term                 0x0001c8ed   Gb    1  Code  Hi   0xe
    862  read_complete              0x0001c905   Gb    1  Code  Hi   0x20
    863  read_psram                 0x0001c949   Gb    1  Code  Hi   0x26
    864  timer_config_b1            0x0001cbe5   Gb    1  Code  Hi   0x192
    865  timer_init                 0x0001cd81   Gb    1  Code  Hi   0x38
    866  validate_transaction       0x0001ced5   Gb    1  Code  Hi   0x90
    867  verify_psram_data          0x0001cf69   Gb    1  Code  Hi   0x38
    868  __aeabi_d2f                0x0001cfb1   Gb    1  Code  Hi 
    869  _d2f                       0x0001cfb1   Gb    1  Code  De   0x62
    870  __fpl_dnaninf              0x0001d013   Gb    1  Code  De   0x9c
    871  _fp_init                   0x0001d0af   Gb    1  Code  De   0xa
    872  __fplib_config_fpu_vfp     0x0001d0b7   Gb    1  Code  De 
    873  __fplib_config_pureend_doubles
                                    0x0001d0b7   Gb    1  Code  De 
    874  __fpl_fretinf              0x0001d0b9   Gb    1  Code  De   0xa
    875  __I$use$fp                 0x0001d0c2   Gb    1   --   De 
    876  ui32MCUAllowed             0x0001d0c4   Gb    1  Data  Hi   0x14
    877  ui32DSP0Allowed            0x0001d0d8   Gb    1  Data  Hi   0x14
    878  ui32DSP1Allowed            0x0001d0ec   Gb    1  Data  Hi   0x14
    879  ui32SharedAccess           0x0001d100   Gb    1  Data  Hi   0x14
    880  sGlobalAccess              0x0001d114   Gb    1  Data  Hi   0x1c
    881  g_SPI_SpeedMax             0x0001d130   Gb    1  Data  Hi   0x28
    882  am_hal_cachectrl_defaults  0x0001d158   Gb    1  Data  Hi   0x3
    883  am_hal_daxi_defaults       0x0001d15b   Gb    1  Data  Hi   0x3
    884  g_am_hal_bootrom_helper    0x0001d160   Gb    1  Data  Hi   0x28
    885  am_hal_gpio_pincfg_disabled
                                    0x0001d340   Gb    1  Data  Hi   0x4
    886  g_DefaultSRAMCfg           0x0001d354   Gb    1  Data  Hi   0x4
    887  g_DefaultMcuMemCfg         0x0001d358   Gb    1  Data  Hi   0x6
    888  am_hal_pwrctrl_peripheral_control
                                    0x0001d360   Gb    1  Data  Hi   0x230
    889  Region$$Table$$Base        0x0001d62c   Gb    1   --   Hi 
    890  Region$$Table$$Limit       0x0001d65c   Gb    1   --   Hi 
    891  g_bReadPsram               0x10000000   Gb    2  Data  Hi   0x1
    892  g_bVerifyReadData          0x10000001   Gb    2  Data  Hi   0x1
    893  g_IomDevHdl                0x10000004   Gb    2  Data  Hi   0x4
    894  g_pIOMHandle               0x10000008   Gb    2  Data  Hi   0x4
    895  device_func                0x1000000c   Gb    2  Data  Hi   0x28
    896  g_IOMSave                  0x10000034   Gb    2  Data  Hi   0x8
    897  g_sSpiPsramCfg             0x1000003c   Gb    2  Data  Hi   0x14
    898  g_pfnCharPrint             0x10000050   Gb    2  Data  Hi   0x4
    899  g_ui32HALflags             0x10000058   Gb    2  Data  Hi   0x4
    900  g_AM_BSP_GPIO_IOM0_CS      0x10000064   Gb    2  Data  Hi   0x4
    901  g_AM_BSP_GPIO_IOM0_MISO    0x10000068   Gb    2  Data  Hi   0x4
    902  g_AM_BSP_GPIO_IOM0_MOSI    0x1000006c   Gb    2  Data  Hi   0x4
    903  g_AM_BSP_GPIO_IOM0_SCK     0x10000070   Gb    2  Data  Hi   0x4
    904  g_AM_BSP_GPIO_IOM0_SCL     0x10000074   Gb    2  Data  Hi   0x4
    905  g_AM_BSP_GPIO_IOM0_SDA     0x10000078   Gb    2  Data  Hi   0x4
    906  g_AM_BSP_GPIO_IOM1_CS      0x1000007c   Gb    2  Data  Hi   0x4
    907  g_AM_BSP_GPIO_IOM1_MISO    0x10000080   Gb    2  Data  Hi   0x4
    908  g_AM_BSP_GPIO_IOM1_MOSI    0x10000084   Gb    2  Data  Hi   0x4
    909  g_AM_BSP_GPIO_IOM1_SCK     0x10000088   Gb    2  Data  Hi   0x4
    910  g_AM_BSP_GPIO_IOM1_SCL     0x1000008c   Gb    2  Data  Hi   0x4
    911  g_AM_BSP_GPIO_IOM1_SDA     0x10000090   Gb    2  Data  Hi   0x4
    912  g_AM_BSP_GPIO_IOM2_CS      0x10000094   Gb    2  Data  Hi   0x4
    913  g_AM_BSP_GPIO_IOM2_MISO    0x10000098   Gb    2  Data  Hi   0x4
    914  g_AM_BSP_GPIO_IOM2_MOSI    0x1000009c   Gb    2  Data  Hi   0x4
    915  g_AM_BSP_GPIO_IOM2_SCK     0x100000a0   Gb    2  Data  Hi   0x4
    916  g_AM_BSP_GPIO_IOM2_SCL     0x100000a4   Gb    2  Data  Hi   0x4
    917  g_AM_BSP_GPIO_IOM2_SDA     0x100000a8   Gb    2  Data  Hi   0x4
    918  g_AM_BSP_GPIO_IOM3_CS      0x100000ac   Gb    2  Data  Hi   0x4
    919  g_AM_BSP_GPIO_IOM3_MISO    0x100000b0   Gb    2  Data  Hi   0x4
    920  g_AM_BSP_GPIO_IOM3_MOSI    0x100000b4   Gb    2  Data  Hi   0x4
    921  g_AM_BSP_GPIO_IOM3_SCK     0x100000b8   Gb    2  Data  Hi   0x4
    922  g_AM_BSP_GPIO_IOM3_SCL     0x100000bc   Gb    2  Data  Hi   0x4
    923  g_AM_BSP_GPIO_IOM3_SDA     0x100000c0   Gb    2  Data  Hi   0x4
    924  g_AM_BSP_GPIO_IOM4_CS      0x100000c4   Gb    2  Data  Hi   0x4
    925  g_AM_BSP_GPIO_IOM4_MISO    0x100000c8   Gb    2  Data  Hi   0x4
    926  g_AM_BSP_GPIO_IOM4_MOSI    0x100000cc   Gb    2  Data  Hi   0x4
    927  g_AM_BSP_GPIO_IOM4_SCK     0x100000d0   Gb    2  Data  Hi   0x4
    928  g_AM_BSP_GPIO_IOM4_SCL     0x100000d4   Gb    2  Data  Hi   0x4
    929  g_AM_BSP_GPIO_IOM4_SDA     0x100000d8   Gb    2  Data  Hi   0x4
    930  g_AM_BSP_GPIO_IOM5_CS      0x100000dc   Gb    2  Data  Hi   0x4
    931  g_AM_BSP_GPIO_IOM5_MISO    0x100000e0   Gb    2  Data  Hi   0x4
    932  g_AM_BSP_GPIO_IOM5_MOSI    0x100000e4   Gb    2  Data  Hi   0x4
    933  g_AM_BSP_GPIO_IOM5_SCK     0x100000e8   Gb    2  Data  Hi   0x4
    934  g_AM_BSP_GPIO_IOM5_SCL     0x100000ec   Gb    2  Data  Hi   0x4
    935  g_AM_BSP_GPIO_IOM5_SDA     0x100000f0   Gb    2  Data  Hi   0x4
    936  g_AM_BSP_GPIO_IOM6_CS      0x100000f4   Gb    2  Data  Hi   0x4
    937  g_AM_BSP_GPIO_IOM6_MISO    0x100000f8   Gb    2  Data  Hi   0x4
    938  g_AM_BSP_GPIO_IOM6_MOSI    0x100000fc   Gb    2  Data  Hi   0x4
    939  g_AM_BSP_GPIO_IOM6_SCK     0x10000100   Gb    2  Data  Hi   0x4
    940  g_AM_BSP_GPIO_IOM6_SCL     0x10000104   Gb    2  Data  Hi   0x4
    941  g_AM_BSP_GPIO_IOM6_SDA     0x10000108   Gb    2  Data  Hi   0x4
    942  g_AM_BSP_GPIO_IOM7_CS      0x1000010c   Gb    2  Data  Hi   0x4
    943  g_AM_BSP_GPIO_IOM7_MISO    0x10000110   Gb    2  Data  Hi   0x4
    944  g_AM_BSP_GPIO_IOM7_MOSI    0x10000114   Gb    2  Data  Hi   0x4
    945  g_AM_BSP_GPIO_IOM7_SCK     0x10000118   Gb    2  Data  Hi   0x4
    946  g_AM_BSP_GPIO_IOM7_SCL     0x1000011c   Gb    2  Data  Hi   0x4
    947  g_AM_BSP_GPIO_IOM7_SDA     0x10000120   Gb    2  Data  Hi   0x4
    948  g_AM_BSP_GPIO_ITM_SWO      0x10000124   Gb    2  Data  Hi   0x4
    949  gStartOff                  0x10000128   Gb    2  Data  Hi   0x4
    950  gpDcuEnable                0x1000012c   Gb    2  Data  Hi   0x4
    951  gpDcuLock                  0x10000130   Gb    2  Data  Hi   0x4
    952  gDcuEnable                 0x10000138   Gb    2  Data  Hi   0x8
    953  gDcuDisable                0x10000140   Gb    2  Data  Hi   0x8
    954  g_eCurrPwrMode             0x10000148   Gb    2  Data  Hi   0x1
    955  g_bVDDCbuckboosted         0x10000149   Gb    2  Data  Hi   0x1
    956  g_bVDDCLDOboosted          0x1000014a   Gb    2  Data  Hi   0x1
    957  g_ui32TrimVer              0x1000014c   Gb    2  Data  Hi   0x4
    958  g_ui32origSimobuckVDDFtrim 0x10000150   Gb    2  Data  Hi   0x4
    959  g_ui32origSimobuckVDDCtrim 0x10000154   Gb    2  Data  Hi   0x4
    960  g_ui32origLDOVDDCtrim      0x10000158   Gb    2  Data  Hi   0x4
    961  storeAndWFIfuncRAM         0x10000160   Gb    2  Data  Hi   0x4
    962  program_mram_tmc_tcycrd    0x10000244   Gb    2  Data  Hi   0x4
    963  gPatternBuf                0x10000248   Gb    3  Data  Hi   0x80
    964  gRxBuf                     0x100002c8   Gb    3  Data  Hi   0x80
    965  DMATCBBuffer               0x10000348   Gb    3  Data  Hi   0x4000
    966  gAmAps6404l                0x10004348   Gb    3  Data  Hi   0x14
    967  gIomTransReadTxn           0x1000435c   Gb    3  Data  Hi   0x38
    968  gIomTransWriteTxn          0x10004394   Gb    3  Data  Hi   0x38
    969  g_IOMhandles               0x100044cc   Gb    3  Data  Hi   0x4520
    970  __libspace_start           0x10008c10   Gb    3  Data  De   0x60
    971  __temporary_stack_top$libspace
                                    0x10008c70   Gb    3  Data  De 
    972  psGlobalAccessPtr          0x10060000   Gb    4  Data  Hi   0x4
    973  ui32MCUClaimed             0x10060004   Gb    4  Data  Hi   0x14
    974  ui32DSP0Claimed            0x10060018   Gb    4  Data  Hi   0x14
    975  ui32DSP1Claimed            0x1006002c   Gb    4  Data  Hi   0x14


** Section #13 '.strtab' (SHT_STRTAB)
    Size   : 14944 bytes

            #  Offset String
        ====================================

            1      1: $d
            2      4: $t
            3      7: $d.realdata
            4     19: ..\src\am_resources.c
            5     41: ../src/am_resources.c
            6     63: .constdata
            7     74: __tagsym$$used
            8     89: RESOURCE_TABLE
            9    104: SHARED_RW
           10    114: ..\src\iom_psram.c
           11    133: ../src/iom_psram.c
           12    152: i.__NVIC_EnableIRQ
           13    171: __NVIC_EnableIRQ
           14    188: i.am_ctimer_isr
           15    204: i.am_iomaster0_isr
           16    223: i.init_pattern
           17    238: i.main
           18    245: i.psram_init
           19    258: i.psram_term
           20    271: i.read_complete
           21    287: i.read_psram
           22    300: i.timer_init
           23    313: i.verify_psram_data
           24    333: .bss
           25    338: .conststring
           26    351: .data
           27    357: ..\..\..\..\..\..\devices\am_devices_spipsram.c
           28    405: ../../../../../../devices/am_devices_spipsram.c
           29    453: i.am_devices_spipsram_command_read
           30    488: i.am_devices_spipsram_command_write
           31    524: i.am_devices_spipsram_init
           32    551: i.am_devices_spipsram_nonblocking_read
           33    590: i.am_devices_spipsram_nonblocking_write
           34    630: i.am_devices_spipsram_read_id
           35    660: i.am_devices_spipsram_reset
           36    688: i.am_devices_spipsram_term
           37    715: i.build_iom_cmd
           38    731: build_iom_cmd
           39    745: i.create_iom_read_transaction
           40    775: create_iom_read_transaction
           41    803: i.create_iom_write_transaction
           42    834: create_iom_write_transaction
           43    863: i.iom_init_cq_element
           44    885: iom_init_cq_element
           45    905: i.pfnSPI_PSRAM_Callback
           46    929: pfnSPI_PSRAM_Callback
           47    951: i.spi_psram_nonblocking_transfer
           48    984: spi_psram_nonblocking_transfer
           49   1015: ..\..\..\..\..\..\utils\am_util_delay.c
           50   1055: ../../../../../../utils/am_util_delay.c
           51   1095: i.am_util_delay_us
           52   1114: ..\..\..\..\..\..\utils\am_util_faultisr.c
           53   1157: .emb_text
           54   1167: $v0
           55   1171: ../../../../../../utils/am_util_faultisr.c
           56   1214: i.am_util_faultisr_collect_data
           57   1246: ../../../../../../utils/am_util_stdio.c
           58   1286: i.am_util_stdio_printf
           59   1309: i.am_util_stdio_printf_init
           60   1337: i.am_util_stdio_terminal_clear
           61   1368: i.am_util_stdio_vsprintf
           62   1393: i.decstr_to_int
           63   1409: decstr_to_int
           64   1423: i.divu64_10
           65   1435: divu64_10
           66   1445: i.ftoa
           67   1452: ftoa
           68   1457: i.ndigits_in_hex
           69   1474: ndigits_in_hex
           70   1489: i.ndigits_in_i64
           71   1506: ndigits_in_i64
           72   1521: i.ndigits_in_u64
           73   1538: ndigits_in_u64
           74   1553: i.padbuffer
           75   1565: padbuffer
           76   1575: i.simple_strlen
           77   1591: simple_strlen
           78   1605: i.uint64_to_hexstr
           79   1624: uint64_to_hexstr
           80   1641: i.uint64_to_str
           81   1657: uint64_to_str
           82   1671: g_prfbuf
           83   1680: g_bTxtXlate
           84   1692: ../keil/startup_keil.s
           85   1715: STACK
           86   1721: StackMem
           87   1730: HEAP
           88   1735: HeapMem
           89   1743: RESET
           90   1749: am_cryptosec_isr
           91   1766: am_default_isr
           92   1781: .text
           93   1787: ..\..\..\..\..\mcu\apollo4b\hal\am_hal_global.c
           94   1835: ../../../../../mcu/apollo4b/hal/am_hal_global.c
           95   1883: ..\am_bsp.c
           96   1895: ../am_bsp.c
           97   1907: i.am_bsp_iom_pins_disable
           98   1933: i.am_bsp_iom_pins_enable
           99   1958: i.am_bsp_itm_printf_enable
          100   1985: i.am_bsp_low_power_init
          101   2009: g_ePrintInterface
          102   2027: g_sCOMUART
          103   2038: ..\..\..\..\..\mcu\apollo4b\hal\mcu\am_hal_cachectrl.c
          104   2093: ../../../../../mcu/apollo4b/hal/mcu/am_hal_cachectrl.c
          105   2148: i.am_hal_cachectrl_config
          106   2174: i.am_hal_cachectrl_enable
          107   2200: i.am_hal_daxi_config
          108   2221: i.am_hal_daxi_control
          109   2243: ..\..\..\..\..\mcu\apollo4b\hal\mcu\am_hal_fault.c
          110   2294: ../../../../../mcu/apollo4b/hal/mcu/am_hal_fault.c
          111   2345: i.am_hal_fault_capture_enable
          112   2375: i.am_hal_fault_status_get
          113   2401: ..\..\..\..\..\mcu\apollo4b\hal\mcu\am_hal_interrupt.c
          114   2456: ../../../../../mcu/apollo4b/hal/mcu/am_hal_interrupt.c
          115   2511: ..\..\..\..\..\mcu\apollo4b\hal\mcu\am_hal_iom.c
          116   2560: ../../../../../mcu/apollo4b/hal/mcu/am_hal_iom.c
          117   2609: i.am_hal_iom_blocking_transfer
          118   2640: i.am_hal_iom_configure
          119   2663: i.am_hal_iom_control
          120   2684: i.am_hal_iom_disable
          121   2705: i.am_hal_iom_enable
          122   2725: i.am_hal_iom_highprio_transfer
          123   2756: i.am_hal_iom_initialize
          124   2780: i.am_hal_iom_interrupt_clear
          125   2809: i.am_hal_iom_interrupt_service
          126   2840: i.am_hal_iom_interrupt_status_get
          127   2874: i.am_hal_iom_power_ctrl
          128   2898: i.am_hal_iom_uninitialize
          129   2924: i.internal_iom_reset_on_error
          130   2954: internal_iom_reset_on_error
          131   2982: i.iom_dummy_callback
          132   3003: iom_dummy_callback
          133   3022: i.iom_seq_loopback
          134   3041: iom_seq_loopback
          135   3058: i.sched_hiprio
          136   3073: sched_hiprio
          137   3086: i.validate_transaction
          138   3109: ..\..\..\..\..\mcu\apollo4b\hal\mcu\am_hal_sysctrl.c
          139   3162: ../../../../../mcu/apollo4b/hal/mcu/am_hal_sysctrl.c
          140   3215: i.am_hal_sysctrl_sleep
          141   3238: ..\..\..\..\..\mcu\apollo4b\hal\mcu\am_hal_utils.c
          142   3289: ../../../../../mcu/apollo4b/hal/mcu/am_hal_utils.c
          143   3340: i.am_hal_delay_us
          144   3358: i.am_hal_delay_us_status_change
          145   3390: i.am_hal_delay_us_status_check
          146   3421: i.am_hal_load_ui32
          147   3440: ..\..\..\..\..\mcu\apollo4b\hal\am_hal_timer.c
          148   3487: ../../../../../mcu/apollo4b/hal/am_hal_timer.c
          149   3534: i.am_hal_timer_clear
          150   3555: i.am_hal_timer_config
          151   3577: i.am_hal_timer_default_config_set
          152   3611: i.am_hal_timer_interrupt_clear
          153   3642: i.am_hal_timer_interrupt_disable
          154   3675: i.am_hal_timer_interrupt_enable
          155   3707: i.am_hal_timer_interrupt_status_get
          156   3743: i.am_hal_timer_start
          157   3764: i.am_hal_timer_stop
          158   3784: i.internal_timer_config
          159   3808: i.timer_config_b1
          160   3826: TimerFlags
          161   3837: ..\am_bsp_pins.c
          162   3854: ../am_bsp_pins.c
          163   3871: ..\..\..\..\..\mcu\apollo4b\hal\mcu\am_hal_bootrom_helper.c
          164   3931: ../../../../../mcu/apollo4b/hal/mcu/am_hal_bootrom_helper.c
          165   3991: ..\..\..\..\..\mcu\apollo4b\hal\mcu\am_hal_cmdq.c
          166   4041: ../../../../../mcu/apollo4b/hal/mcu/am_hal_cmdq.c
          167   4091: i.am_hal_cmdq_alloc_block
          168   4117: i.am_hal_cmdq_disable
          169   4139: i.am_hal_cmdq_enable
          170   4160: i.am_hal_cmdq_error_resume
          171   4187: i.am_hal_cmdq_get_status
          172   4212: i.am_hal_cmdq_init
          173   4231: i.am_hal_cmdq_post_block
          174   4256: i.am_hal_cmdq_post_loop_block
          175   4286: i.am_hal_cmdq_release_block
          176   4314: i.am_hal_cmdq_reset
          177   4334: i.am_hal_cmdq_term
          178   4353: gAmHalCmdq
          179   4364: gAmHalCmdQReg
          180   4378: ..\..\..\..\..\mcu\apollo4b\hal\mcu\am_hal_itm.c
          181   4427: ../../../../../mcu/apollo4b/hal/mcu/am_hal_itm.c
          182   4476: i.am_hal_itm_enable
          183   4496: i.am_hal_itm_print
          184   4515: ..\..\..\..\..\mcu\apollo4b\hal\mcu\am_hal_rtc.c
          185   4564: ../../../../../mcu/apollo4b/hal/mcu/am_hal_rtc.c
          186   4613: i.am_hal_rtc_osc_disable
          187   4638: ..\..\..\..\..\mcu\apollo4b\hal\mcu\am_hal_tpiu.c
          188   4688: ../../../../../mcu/apollo4b/hal/mcu/am_hal_tpiu.c
          189   4738: i.am_hal_tpiu_enable
          190   4759: ..\..\..\..\..\mcu\apollo4b\hal\mcu\am_hal_uart.c
          191   4809: ../../../../../mcu/apollo4b/hal/mcu/am_hal_uart.c
          192   4859: ..\..\..\..\..\mcu\apollo4b\hal\am_hal_dcu.c
          193   4904: ../../../../../mcu/apollo4b/hal/am_hal_dcu.c
          194   4949: i.am_hal_dcu_get
          195   4966: i.am_hal_dcu_update
          196   4986: i.copy_words
          197   4999: copy_words
          198   5010: ..\..\..\..\..\mcu\apollo4b\hal\am_hal_gpio.c
          199   5056: ../../../../../mcu/apollo4b/hal/am_hal_gpio.c
          200   5102: i.am_hal_gpio_pinconfig
          201   5126: g_ui32DSpintbl
          202   5141: ..\..\..\..\..\mcu\apollo4b\hal\am_hal_pwrctrl.c
          203   5190: ../../../../../mcu/apollo4b/hal/am_hal_pwrctrl.c
          204   5239: i.am_hal_pwrctrl_control
          205   5264: i.am_hal_pwrctrl_low_power_init
          206   5296: i.am_hal_pwrctrl_mcu_memory_config
          207   5331: i.am_hal_pwrctrl_periph_disable
          208   5363: i.am_hal_pwrctrl_periph_enable
          209   5394: i.am_hal_util_write_and_wait
          210   5423: g_WaitTimerDuration
          211   5443: storeAndWFIRAM
          212   5458: ..\..\..\..\..\mcu\apollo4b\hal\mcu\am_hal_mram.c
          213   5508: ../../../../../mcu/apollo4b/hal/mcu/am_hal_mram.c
          214   5558: i.am_hal_mram_info_read
          215   5582: g_program_mram_tmc_tcycrd
          216   5608: ..\..\..\..\..\mcu\apollo4b\hal\am_hal_pin.c
          217   5653: ../../../../../mcu/apollo4b/hal/am_hal_pin.c
          218   5698: ..\..\..\..\..\mcu\apollo4b\hal\am_hal_queue.c
          219   5745: ../../../../../mcu/apollo4b/hal/am_hal_queue.c
          220   5792: dc.s
          221   5797: ../clib/longlong.s
          222   5816: ../clib/memcpset.s
          223   5835: ../clib/heapaux.c
          224   5853: ../clib/angel/startup.s
          225   5877: !!!main
          226   5885: ../clib/angel/handlers.s
          227   5910: !!handler_copy
          228   5925: ../fplib/d2f.s
          229   5940: x$fpl$d2f
          230   5950: ../clib/angel/kernel.s
          231   5973: .ARM.Collect$$rtentry$$00000000
          232   6005: ../fplib/dnaninf.s
          233   6024: x$fpl$dnaninf
          234   6038: ../fplib/fretinf.s
          235   6057: x$fpl$fretinf
          236   6071: ../fplib/usenofp.s
          237   6090: x$fpl$usenofp
          238   6104: .ARM.Collect$$rtentry$$00000002
          239   6136: .ARM.Collect$$rtentry$$00000009
          240   6168: .ARM.Collect$$rtentry$$0000000A
          241   6200: .ARM.Collect$$rtentry$$0000000C
          242   6232: .ARM.Collect$$rtentry$$0000000D
          243   6264: .ARM.Collect$$rtentry$$00000004
          244   6296: ../clib/angel/sys.s
          245   6316: ../clib/stdlib.c
          246   6333: ../clib/angel/boardlib.s
          247   6358: ../clib/libinit.s
          248   6376: .ARM.Collect$$libinit$$00000000
          249   6408: .ARM.Collect$$rtexit$$00000000
          250   6439: .ARM.Collect$$libinit$$00000001
          251   6471: .ARM.Collect$$libinit$$00000004
          252   6503: .ARM.Collect$$libinit$$0000000A
          253   6535: .ARM.Collect$$libinit$$0000000C
          254   6567: .ARM.Collect$$libinit$$0000000E
          255   6599: .ARM.Collect$$libinit$$00000011
          256   6631: .ARM.Collect$$libinit$$00000013
          257   6663: .ARM.Collect$$libinit$$00000015
          258   6695: .ARM.Collect$$libinit$$00000017
          259   6727: .ARM.Collect$$libinit$$00000019
          260   6759: .ARM.Collect$$libinit$$0000001B
          261   6791: .ARM.Collect$$libinit$$0000001D
          262   6823: .ARM.Collect$$libinit$$0000001F
          263   6855: .ARM.Collect$$libinit$$00000021
          264   6887: .ARM.Collect$$libinit$$00000023
          265   6919: .ARM.Collect$$libinit$$00000025
          266   6951: .ARM.Collect$$libinit$$0000002C
          267   6983: .ARM.Collect$$libinit$$0000002E
          268   7015: .ARM.Collect$$libinit$$00000030
          269   7047: .ARM.Collect$$libinit$$00000032
          270   7079: .ARM.Collect$$libinit$$00000033
          271   7111: .ARM.Collect$$rtexit$$00000002
          272   7142: .ARM.Collect$$rtexit$$00000003
          273   7173: .ARM.Collect$$rtexit$$00000004
          274   7204: ../clib/armsys.c
          275   7221: ../fplib/fpinit.s
          276   7239: x$fpl$fpinit
          277   7252: ../clib/angel/sysapp.c
          278   7275: .ARM.Collect$$libshutdown$$00000000
          279   7311: ../clib/heapalloc.c
          280   7331: ../clib/signal.c
          281   7348: .ARM.Collect$$libshutdown$$00000002
          282   7384: .ARM.Collect$$libshutdown$$00000004
          283   7420: .ARM.Collect$$libshutdown$$00000007
          284   7456: .ARM.Collect$$libshutdown$$0000000A
          285   7492: .ARM.Collect$$libshutdown$$0000000C
          286   7528: .ARM.Collect$$libshutdown$$0000000F
          287   7564: .ARM.Collect$$libshutdown$$00000010
          288   7600: ../clib/angel/rt.s
          289   7619: ../clib/signal.s
          290   7636: ../clib/angel/dczerorl2.s
          291   7662: !!dczerorl2
          292   7674: ../clib/angel/scatter.s
          293   7698: !!!scatter
          294   7709: !!handler_zi
          295   7722: BuildAttributes$$THM_ISAv4$E$P$D$K$B$S$7EM$VFPi3$EXTD16$VFPS$VFMA$PE$A:L22UL41UL21$X:L11$S22US41US21$IEEE1$IW$USESV6$~STKCKD$USESV7$~SHL$OTIME$ROPI$EBA8$UX$STANDARDLIB$REQ8$PRES8$EABIv2
          296   7908: __ARM_use_no_argv
          297   7926: __Vectors
          298   7936: __Patchable
          299   7948: Reset_Handler
          300   7962: NMI_Handler
          301   7974: MemManage_Handler
          302   7992: BusFault_Handler
          303   8009: UsageFault_Handler
          304   8028: SecureFault_Handler
          305   8048: SVC_Handler
          306   8060: DebugMon_Handler
          307   8077: PendSV_Handler
          308   8092: SysTick_Handler
          309   8108: am_adc_isr
          310   8119: am_audadc0_isr
          311   8134: am_brownout_isr
          312   8150: am_cachecpu_isr
          313   8166: am_clkgen_isr
          314   8180: am_disp_isr
          315   8192: am_dsi_isr
          316   8203: am_dspi2s0_isr
          317   8218: am_dspi2s1_isr
          318   8233: am_dspi2s2_isr
          319   8248: am_dspi2s3_isr
          320   8263: am_gpio0_001f_isr
          321   8281: am_gpio0_203f_isr
          322   8299: am_gpio0_405f_isr
          323   8317: am_gpio0_607f_isr
          324   8335: am_gpio1_001f_isr
          325   8353: am_gpio1_203f_isr
          326   8371: am_gpio1_405f_isr
          327   8389: am_gpio1_607f_isr
          328   8407: am_gpu_isr
          329   8418: am_iomaster1_isr
          330   8435: am_iomaster2_isr
          331   8452: am_iomaster3_isr
          332   8469: am_iomaster4_isr
          333   8486: am_iomaster5_isr
          334   8503: am_iomaster6_isr
          335   8520: am_iomaster7_isr
          336   8537: am_ioslave_acc_isr
          337   8556: am_ioslave_ios_isr
          338   8575: am_mspi0_isr
          339   8588: am_mspi1_isr
          340   8601: am_mspi2_isr
          341   8614: am_pdm0_isr
          342   8626: am_pdm1_isr
          343   8638: am_pdm2_isr
          344   8650: am_pdm3_isr
          345   8662: am_rtc_isr
          346   8673: am_sdio_isr
          347   8685: am_stimer_cmpr0_isr
          348   8705: am_stimer_cmpr1_isr
          349   8725: am_stimer_cmpr2_isr
          350   8745: am_stimer_cmpr3_isr
          351   8765: am_stimer_cmpr4_isr
          352   8785: am_stimer_cmpr5_isr
          353   8805: am_stimer_cmpr6_isr
          354   8825: am_stimer_cmpr7_isr
          355   8845: am_stimerof_isr
          356   8861: am_timer00_isr
          357   8876: am_timer01_isr
          358   8891: am_timer02_isr
          359   8906: am_timer03_isr
          360   8921: am_timer04_isr
          361   8936: am_timer05_isr
          362   8951: am_timer06_isr
          363   8966: am_timer07_isr
          364   8981: am_timer08_isr
          365   8996: am_timer09_isr
          366   9011: am_timer10_isr
          367   9026: am_timer11_isr
          368   9041: am_timer12_isr
          369   9056: am_timer13_isr
          370   9071: am_timer14_isr
          371   9086: am_timer15_isr
          372   9101: am_uart1_isr
          373   9114: am_uart2_isr
          374   9127: am_uart3_isr
          375   9140: am_uart_isr
          376   9152: am_usb_isr
          377   9163: am_vcomp_isr
          378   9176: am_watchdog_isr
          379   9192: __main
          380   9199: __scatterload
          381   9213: __scatterload_rt2
          382   9231: __scatterload_rt2_thumb_only
          383   9260: __scatterload_null
          384   9279: __decompress
          385   9292: __decompress1
          386   9306: __scatterload_copy
          387   9325: __scatterload_zeroinit
          388   9348: __rt_lib_init
          389   9362: __rt_lib_init_fp_1
          390   9381: __rt_lib_init_alloca_1
          391   9404: __rt_lib_init_argv_1
          392   9425: __rt_lib_init_atexit_1
          393   9448: __rt_lib_init_clock_1
          394   9470: __rt_lib_init_cpp_1
          395   9490: __rt_lib_init_exceptions_1
          396   9517: __rt_lib_init_fp_trap_1
          397   9541: __rt_lib_init_getenv_1
          398   9564: __rt_lib_init_heap_1
          399   9585: __rt_lib_init_lc_collate_1
          400   9612: __rt_lib_init_lc_ctype_1
          401   9637: __rt_lib_init_lc_monetary_1
          402   9665: __rt_lib_init_lc_numeric_1
          403   9692: __rt_lib_init_lc_time_1
          404   9716: __rt_lib_init_preinit_1
          405   9740: __rt_lib_init_rand_1
          406   9761: __rt_lib_init_return
          407   9782: __rt_lib_init_signal_1
          408   9805: __rt_lib_init_stdio_1
          409   9827: __rt_lib_init_user_alloc_1
          410   9854: __rt_lib_shutdown
          411   9872: __rt_lib_shutdown_cpp_1
          412   9896: __rt_lib_shutdown_fp_trap_1
          413   9924: __rt_lib_shutdown_heap_1
          414   9949: __rt_lib_shutdown_return
          415   9974: __rt_lib_shutdown_signal_1
          416  10001: __rt_lib_shutdown_stdio_1
          417  10027: __rt_lib_shutdown_user_alloc_1
          418  10058: __rt_entry
          419  10069: __rt_entry_presh_1
          420  10088: __rt_entry_sh
          421  10102: __rt_entry_li
          422  10116: __rt_entry_postsh_1
          423  10136: __rt_entry_main
          424  10152: __rt_entry_postli_1
          425  10172: __rt_exit
          426  10182: __rt_exit_ls
          427  10195: __rt_exit_prels_1
          428  10213: __rt_exit_exit
          429  10228: HardFault_Handler
          430  10246: getStackedReg
          431  10260: am_hal_interrupt_master_enable
          432  10291: am_hal_interrupt_master_disable
          433  10323: am_hal_interrupt_master_set
          434  10351: __user_initial_stackheap
          435  10376: __aeabi_llsl
          436  10389: _ll_shift_l
          437  10401: __aeabi_llsr
          438  10414: _ll_ushift_r
          439  10427: __aeabi_memcpy4
          440  10443: __aeabi_memcpy8
          441  10459: __rt_memcpy_w
          442  10473: _memcpy_lastbytes_aligned
          443  10499: __aeabi_memclr4
          444  10515: __aeabi_memclr8
          445  10531: __rt_memclr_w
          446  10545: _memset_w
          447  10555: __use_two_region_memory
          448  10579: __rt_heap_escrow$2region
          449  10604: __rt_heap_expand$2region
          450  10629: __user_setup_stackheap
          451  10652: exit
          452  10657: __user_libspace
          453  10673: __user_perproc_libspace
          454  10697: __user_perthread_libspace
          455  10723: _sys_exit
          456  10733: __I$use$semihosting
          457  10753: __use_no_semihosting_swi
          458  10778: __semihosting_library_function
          459  10809: am_bsp_iom_pins_disable
          460  10833: am_bsp_iom_pins_enable
          461  10856: am_bsp_itm_printf_enable
          462  10881: am_bsp_low_power_init
          463  10903: am_ctimer_isr
          464  10917: am_devices_spipsram_command_read
          465  10950: am_devices_spipsram_command_write
          466  10984: am_devices_spipsram_init
          467  11009: am_devices_spipsram_nonblocking_read
          468  11046: am_devices_spipsram_nonblocking_write
          469  11084: am_devices_spipsram_read_id
          470  11112: am_devices_spipsram_reset
          471  11138: am_devices_spipsram_term
          472  11163: am_hal_cachectrl_config
          473  11187: am_hal_cachectrl_enable
          474  11211: am_hal_cmdq_alloc_block
          475  11235: am_hal_cmdq_disable
          476  11255: am_hal_cmdq_enable
          477  11274: am_hal_cmdq_error_resume
          478  11299: am_hal_cmdq_get_status
          479  11322: am_hal_cmdq_init
          480  11339: am_hal_cmdq_post_block
          481  11362: am_hal_cmdq_post_loop_block
          482  11390: am_hal_cmdq_release_block
          483  11416: am_hal_cmdq_reset
          484  11434: am_hal_cmdq_term
          485  11451: am_hal_daxi_config
          486  11470: am_hal_daxi_control
          487  11490: am_hal_dcu_get
          488  11505: am_hal_dcu_update
          489  11523: am_hal_delay_us
          490  11539: am_hal_delay_us_status_change
          491  11569: am_hal_delay_us_status_check
          492  11598: am_hal_fault_capture_enable
          493  11626: am_hal_fault_status_get
          494  11650: am_hal_gpio_pinconfig
          495  11672: am_hal_iom_blocking_transfer
          496  11701: am_hal_iom_configure
          497  11722: am_hal_iom_control
          498  11741: am_hal_iom_disable
          499  11760: am_hal_iom_enable
          500  11778: am_hal_iom_highprio_transfer
          501  11807: am_hal_iom_initialize
          502  11829: am_hal_iom_interrupt_clear
          503  11856: am_hal_iom_interrupt_service
          504  11885: am_hal_iom_interrupt_status_get
          505  11917: am_hal_iom_power_ctrl
          506  11939: am_hal_iom_uninitialize
          507  11963: am_hal_itm_enable
          508  11981: am_hal_itm_print
          509  11998: am_hal_load_ui32
          510  12015: am_hal_mram_info_read
          511  12037: am_hal_pwrctrl_control
          512  12060: am_hal_pwrctrl_low_power_init
          513  12090: am_hal_pwrctrl_mcu_memory_config
          514  12123: am_hal_pwrctrl_periph_disable
          515  12153: am_hal_pwrctrl_periph_enable
          516  12182: am_hal_rtc_osc_disable
          517  12205: am_hal_sysctrl_sleep
          518  12226: am_hal_timer_clear
          519  12245: am_hal_timer_config
          520  12265: am_hal_timer_default_config_set
          521  12297: am_hal_timer_interrupt_clear
          522  12326: am_hal_timer_interrupt_disable
          523  12357: am_hal_timer_interrupt_enable
          524  12387: am_hal_timer_interrupt_status_get
          525  12421: am_hal_timer_start
          526  12440: am_hal_timer_stop
          527  12458: am_hal_tpiu_enable
          528  12477: am_hal_util_write_and_wait
          529  12504: am_iomaster0_isr
          530  12521: am_util_delay_us
          531  12538: am_util_faultisr_collect_data
          532  12568: am_util_stdio_printf
          533  12589: am_util_stdio_printf_init
          534  12615: am_util_stdio_terminal_clear
          535  12644: am_util_stdio_vsprintf
          536  12667: init_pattern
          537  12680: internal_timer_config
          538  12702: main
          539  12707: psram_init
          540  12718: psram_term
          541  12729: read_complete
          542  12743: read_psram
          543  12754: timer_config_b1
          544  12770: timer_init
          545  12781: validate_transaction
          546  12802: verify_psram_data
          547  12820: __aeabi_d2f
          548  12832: _d2f
          549  12837: __fpl_dnaninf
          550  12851: _fp_init
          551  12860: __fplib_config_fpu_vfp
          552  12883: __fplib_config_pureend_doubles
          553  12914: __fpl_fretinf
          554  12928: __I$use$fp
          555  12939: ui32MCUAllowed
          556  12954: ui32DSP0Allowed
          557  12970: ui32DSP1Allowed
          558  12986: ui32SharedAccess
          559  13003: sGlobalAccess
          560  13017: g_SPI_SpeedMax
          561  13032: am_hal_cachectrl_defaults
          562  13058: am_hal_daxi_defaults
          563  13079: g_am_hal_bootrom_helper
          564  13103: am_hal_gpio_pincfg_disabled
          565  13131: g_DefaultSRAMCfg
          566  13148: g_DefaultMcuMemCfg
          567  13167: am_hal_pwrctrl_peripheral_control
          568  13201: Region$$Table$$Base
          569  13221: Region$$Table$$Limit
          570  13242: g_bReadPsram
          571  13255: g_bVerifyReadData
          572  13273: g_IomDevHdl
          573  13285: g_pIOMHandle
          574  13298: device_func
          575  13310: g_IOMSave
          576  13320: g_sSpiPsramCfg
          577  13335: g_pfnCharPrint
          578  13350: g_ui32HALflags
          579  13365: g_AM_BSP_GPIO_IOM0_CS
          580  13387: g_AM_BSP_GPIO_IOM0_MISO
          581  13411: g_AM_BSP_GPIO_IOM0_MOSI
          582  13435: g_AM_BSP_GPIO_IOM0_SCK
          583  13458: g_AM_BSP_GPIO_IOM0_SCL
          584  13481: g_AM_BSP_GPIO_IOM0_SDA
          585  13504: g_AM_BSP_GPIO_IOM1_CS
          586  13526: g_AM_BSP_GPIO_IOM1_MISO
          587  13550: g_AM_BSP_GPIO_IOM1_MOSI
          588  13574: g_AM_BSP_GPIO_IOM1_SCK
          589  13597: g_AM_BSP_GPIO_IOM1_SCL
          590  13620: g_AM_BSP_GPIO_IOM1_SDA
          591  13643: g_AM_BSP_GPIO_IOM2_CS
          592  13665: g_AM_BSP_GPIO_IOM2_MISO
          593  13689: g_AM_BSP_GPIO_IOM2_MOSI
          594  13713: g_AM_BSP_GPIO_IOM2_SCK
          595  13736: g_AM_BSP_GPIO_IOM2_SCL
          596  13759: g_AM_BSP_GPIO_IOM2_SDA
          597  13782: g_AM_BSP_GPIO_IOM3_CS
          598  13804: g_AM_BSP_GPIO_IOM3_MISO
          599  13828: g_AM_BSP_GPIO_IOM3_MOSI
          600  13852: g_AM_BSP_GPIO_IOM3_SCK
          601  13875: g_AM_BSP_GPIO_IOM3_SCL
          602  13898: g_AM_BSP_GPIO_IOM3_SDA
          603  13921: g_AM_BSP_GPIO_IOM4_CS
          604  13943: g_AM_BSP_GPIO_IOM4_MISO
          605  13967: g_AM_BSP_GPIO_IOM4_MOSI
          606  13991: g_AM_BSP_GPIO_IOM4_SCK
          607  14014: g_AM_BSP_GPIO_IOM4_SCL
          608  14037: g_AM_BSP_GPIO_IOM4_SDA
          609  14060: g_AM_BSP_GPIO_IOM5_CS
          610  14082: g_AM_BSP_GPIO_IOM5_MISO
          611  14106: g_AM_BSP_GPIO_IOM5_MOSI
          612  14130: g_AM_BSP_GPIO_IOM5_SCK
          613  14153: g_AM_BSP_GPIO_IOM5_SCL
          614  14176: g_AM_BSP_GPIO_IOM5_SDA
          615  14199: g_AM_BSP_GPIO_IOM6_CS
          616  14221: g_AM_BSP_GPIO_IOM6_MISO
          617  14245: g_AM_BSP_GPIO_IOM6_MOSI
          618  14269: g_AM_BSP_GPIO_IOM6_SCK
          619  14292: g_AM_BSP_GPIO_IOM6_SCL
          620  14315: g_AM_BSP_GPIO_IOM6_SDA
          621  14338: g_AM_BSP_GPIO_IOM7_CS
          622  14360: g_AM_BSP_GPIO_IOM7_MISO
          623  14384: g_AM_BSP_GPIO_IOM7_MOSI
          624  14408: g_AM_BSP_GPIO_IOM7_SCK
          625  14431: g_AM_BSP_GPIO_IOM7_SCL
          626  14454: g_AM_BSP_GPIO_IOM7_SDA
          627  14477: g_AM_BSP_GPIO_ITM_SWO
          628  14499: gStartOff
          629  14509: gpDcuEnable
          630  14521: gpDcuLock
          631  14531: gDcuEnable
          632  14542: gDcuDisable
          633  14554: g_eCurrPwrMode
          634  14569: g_bVDDCbuckboosted
          635  14588: g_bVDDCLDOboosted
          636  14606: g_ui32TrimVer
          637  14620: g_ui32origSimobuckVDDFtrim
          638  14647: g_ui32origSimobuckVDDCtrim
          639  14674: g_ui32origLDOVDDCtrim
          640  14696: storeAndWFIfuncRAM
          641  14715: program_mram_tmc_tcycrd
          642  14739: gPatternBuf
          643  14751: gRxBuf
          644  14758: DMATCBBuffer
          645  14771: gAmAps6404l
          646  14783: gIomTransReadTxn
          647  14800: gIomTransWriteTxn
          648  14818: g_IOMhandles
          649  14831: __libspace_start
          650  14848: __temporary_stack_top$libspace
          651  14879: psGlobalAccessPtr
          652  14897: ui32MCUClaimed
          653  14912: ui32DSP0Claimed
          654  14928: ui32DSP1Claimed


** Section #14 '.note' (SHT_NOTE)
    Size   : 32 bytes (alignment 4)


** Section #15 '.comment' (SHT_PROGBITS)
    Size   : 32652 bytes


** Section #16 '.shstrtab' (SHT_STRTAB)
    Size   : 176 bytes

            #  Offset String
        ====================================

            1      1: MCU_MRAM
            2     10: MCU_TCM
            3     18: MCU_SRAM
            4     27: SHARED_SRAM
            5     39: .debug_abbrev
            6     53: .debug_frame
            7     66: .debug_info
            8     78: .debug_line
            9     90: .debug_loc
           10    101: .debug_macinfo
           11    116: .debug_pubnames
           12    132: .symtab
           13    140: .strtab
           14    148: .note
           15    154: .comment
           16    163: .shstrtab
           17    173: 
           18    174: 
           19    175: 


