
========================================================================

** ELF Header Information

    File Name: bin\mspi_quad_example.axf

    Machine class: ELFCLASS32 (32-bit)
    Data encoding: ELFDATA2LSB (Little endian)
    Header version: EV_CURRENT (Current version)
    Operating System ABI: none
    ABI Version: 0
    File Type: ET_EXEC (Executable) (2)
    Machine: EM_ARM (ARM)

    Image Entry point: 0x00018239
    Flags: EF_ARM_HASENTRY + EF_ARM_ABI_FLOAT_HARD (0x05000402)

    ARM ELF revision: 5 (ABI version 2)

    Conforms to Hard float procedure-call standard

    Built with
    Component: ARM Compiler 5.06 update 6 (build 750) Tool: armasm [4d35ec]
    Component: ARM Compiler 5.06 update 6 (build 750) Tool: armlink [4d35ed]

    Header size: 52 bytes (0x34)
    Program header entry size: 32 bytes (0x20)
    Section header entry size: 40 bytes (0x28)

    Program header entries: 1
    Section header entries: 17

    Program header offset: 1965524 (0x001dfdd4)
    Section header offset: 1965556 (0x001dfdf4)

    Section header string table index: 16

========================================================================

** Program header #0 (PT_LOAD) [PF_X + PF_W + PF_R + PF_ARM_ENTRY]
    Size : 61244 bytes (27652 bytes in file)
    Virtual address: 0x00018000 (Alignment 16)


========================================================================

** Section #1 'MCU_MRAM' (SHT_PROGBITS) [SHF_ALLOC + SHF_EXECINSTR]
    Size   : 27204 bytes (alignment 4)
    Address: 0x00018000

    $d
    RESET
    __Vectors
        0x00018000:    100084b8    ....    DCD    268469432
        0x00018004:    00018201    ....    DCD    98817
        0x00018008:    0001821f    ....    DCD    98847
        0x0001800c:    00018379    y...    DCD    99193
        0x00018010:    00018221    !...    DCD    98849
        0x00018014:    00018223    #...    DCD    98851
        0x00018018:    00018225    %...    DCD    98853
        0x0001801c:    00018227    '...    DCD    98855
        0x00018020:    00000000    ....    DCD    0
        0x00018024:    00000000    ....    DCD    0
        0x00018028:    00000000    ....    DCD    0
        0x0001802c:    00018229    )...    DCD    98857
        0x00018030:    0001822b    +...    DCD    98859
        0x00018034:    00000000    ....    DCD    0
        0x00018038:    0001822d    -...    DCD    98861
        0x0001803c:    0001822f    /...    DCD    98863
        0x00018040:    00018231    1...    DCD    98865
        0x00018044:    00018231    1...    DCD    98865
        0x00018048:    00018231    1...    DCD    98865
        0x0001804c:    00018231    1...    DCD    98865
        0x00018050:    00018231    1...    DCD    98865
        0x00018054:    00018231    1...    DCD    98865
        0x00018058:    00018231    1...    DCD    98865
        0x0001805c:    00018231    1...    DCD    98865
        0x00018060:    00018231    1...    DCD    98865
        0x00018064:    00018231    1...    DCD    98865
        0x00018068:    00018231    1...    DCD    98865
        0x0001806c:    00018231    1...    DCD    98865
        0x00018070:    00018231    1...    DCD    98865
        0x00018074:    00018231    1...    DCD    98865
        0x00018078:    00018231    1...    DCD    98865
        0x0001807c:    00018231    1...    DCD    98865
        0x00018080:    00018231    1...    DCD    98865
        0x00018084:    00018231    1...    DCD    98865
        0x00018088:    00018231    1...    DCD    98865
        0x0001808c:    00018231    1...    DCD    98865
        0x00018090:    00018231    1...    DCD    98865
        0x00018094:    00018231    1...    DCD    98865
        0x00018098:    0001c629    )...    DCD    116265
        0x0001809c:    00018231    1...    DCD    98865
        0x000180a0:    00018231    1...    DCD    98865
        0x000180a4:    00018231    1...    DCD    98865
        0x000180a8:    00018231    1...    DCD    98865
        0x000180ac:    00018231    1...    DCD    98865
        0x000180b0:    00018231    1...    DCD    98865
        0x000180b4:    00018231    1...    DCD    98865
        0x000180b8:    00018231    1...    DCD    98865
        0x000180bc:    00018231    1...    DCD    98865
        0x000180c0:    00018231    1...    DCD    98865
        0x000180c4:    00018231    1...    DCD    98865
        0x000180c8:    00018231    1...    DCD    98865
        0x000180cc:    00018231    1...    DCD    98865
        0x000180d0:    00018231    1...    DCD    98865
        0x000180d4:    00018231    1...    DCD    98865
        0x000180d8:    00018231    1...    DCD    98865
        0x000180dc:    00018231    1...    DCD    98865
        0x000180e0:    00018231    1...    DCD    98865
        0x000180e4:    00018231    1...    DCD    98865
        0x000180e8:    00018231    1...    DCD    98865
        0x000180ec:    00018231    1...    DCD    98865
        0x000180f0:    00018231    1...    DCD    98865
        0x000180f4:    00018231    1...    DCD    98865
        0x000180f8:    00018231    1...    DCD    98865
        0x000180fc:    00018231    1...    DCD    98865
        0x00018100:    00018231    1...    DCD    98865
        0x00018104:    00018231    1...    DCD    98865
        0x00018108:    00018231    1...    DCD    98865
        0x0001810c:    00018231    1...    DCD    98865
        0x00018110:    00018231    1...    DCD    98865
        0x00018114:    00018231    1...    DCD    98865
        0x00018118:    00018231    1...    DCD    98865
        0x0001811c:    00018231    1...    DCD    98865
        0x00018120:    00018231    1...    DCD    98865
        0x00018124:    00018231    1...    DCD    98865
        0x00018128:    00018231    1...    DCD    98865
        0x0001812c:    00018231    1...    DCD    98865
        0x00018130:    00018231    1...    DCD    98865
        0x00018134:    00018231    1...    DCD    98865
        0x00018138:    00018231    1...    DCD    98865
        0x0001813c:    00018231    1...    DCD    98865
        0x00018140:    00018231    1...    DCD    98865
        0x00018144:    00018231    1...    DCD    98865
        0x00018148:    00018231    1...    DCD    98865
        0x0001814c:    00018231    1...    DCD    98865
        0x00018150:    00018231    1...    DCD    98865
        0x00018154:    00018231    1...    DCD    98865
        0x00018158:    00018231    1...    DCD    98865
        0x0001815c:    00018231    1...    DCD    98865
        0x00018160:    00018231    1...    DCD    98865
        0x00018164:    00018231    1...    DCD    98865
        0x00018168:    00018231    1...    DCD    98865
        0x0001816c:    00018231    1...    DCD    98865
        0x00018170:    00018231    1...    DCD    98865
        0x00018174:    00018231    1...    DCD    98865
        0x00018178:    00018231    1...    DCD    98865
        0x0001817c:    00018231    1...    DCD    98865
        0x00018180:    00018231    1...    DCD    98865
        0x00018184:    00018231    1...    DCD    98865
        0x00018188:    00018231    1...    DCD    98865
        0x0001818c:    00018231    1...    DCD    98865
    __Patchable
        0x00018190:    00000000    ....    DCD    0
        0x00018194:    00000000    ....    DCD    0
        0x00018198:    00000000    ....    DCD    0
        0x0001819c:    00000000    ....    DCD    0
        0x000181a0:    00000000    ....    DCD    0
        0x000181a4:    00000000    ....    DCD    0
        0x000181a8:    00000000    ....    DCD    0
        0x000181ac:    00000000    ....    DCD    0
        0x000181b0:    00000000    ....    DCD    0
        0x000181b4:    00000000    ....    DCD    0
        0x000181b8:    00000000    ....    DCD    0
        0x000181bc:    00000000    ....    DCD    0
        0x000181c0:    00000000    ....    DCD    0
        0x000181c4:    00000000    ....    DCD    0
        0x000181c8:    00000000    ....    DCD    0
        0x000181cc:    00000000    ....    DCD    0
        0x000181d0:    00000000    ....    DCD    0
        0x000181d4:    00000000    ....    DCD    0
        0x000181d8:    00000000    ....    DCD    0
        0x000181dc:    00000000    ....    DCD    0
        0x000181e0:    00000000    ....    DCD    0
        0x000181e4:    00000000    ....    DCD    0
        0x000181e8:    00000000    ....    DCD    0
        0x000181ec:    00000000    ....    DCD    0
        0x000181f0:    00000000    ....    DCD    0
        0x000181f4:    00000000    ....    DCD    0
        0x000181f8:    00000000    ....    DCD    0
        0x000181fc:    00000000    ....    DCD    0
    $t
    $v0
    Reset_Handler
        0x00018200:    f64e5088    N..P    MOV      r0,#0xed88
        0x00018204:    f2ce0000    ....    MOVT     r0,#0xe000
        0x00018208:    6801        .h      LDR      r1,[r0,#0]
        0x0001820a:    f4410170    A.p.    ORR      r1,r1,#0xf00000
        0x0001820e:    6001        .`      STR      r1,[r0,#0]
        0x00018210:    f3bf8f4f    ..O.    DSB      
        0x00018214:    f3bf8f6f    ..o.    ISB      
        0x00018218:    4806        .H      LDR      r0,[pc,#24] ; [0x18234] = 0x18239
        0x0001821a:    4700        .G      BX       r0
        0x0001821c:    e7fe        ..      B        0x1821c ; Reset_Handler + 28
    NMI_Handler
        0x0001821e:    e7fe        ..      B        NMI_Handler ; 0x1821e
    MemManage_Handler
        0x00018220:    e7fe        ..      B        MemManage_Handler ; 0x18220
    BusFault_Handler
        0x00018222:    e7fe        ..      B        BusFault_Handler ; 0x18222
    UsageFault_Handler
        0x00018224:    e7fe        ..      B        UsageFault_Handler ; 0x18224
    SecureFault_Handler
        0x00018226:    e7fe        ..      B        SecureFault_Handler ; 0x18226
    SVC_Handler
        0x00018228:    e7fe        ..      B        SVC_Handler ; 0x18228
    DebugMon_Handler
        0x0001822a:    e7fe        ..      B        DebugMon_Handler ; 0x1822a
    PendSV_Handler
        0x0001822c:    e7fe        ..      B        PendSV_Handler ; 0x1822c
    SysTick_Handler
        0x0001822e:    e7fe        ..      B        SysTick_Handler ; 0x1822e
    am_cryptosec_isr
    am_default_isr
    am_adc_isr
    am_audadc0_isr
    am_brownout_isr
    am_cachecpu_isr
    am_clkgen_isr
    am_ctimer_isr
    am_disp_isr
    am_dsi_isr
    am_dspi2s0_isr
    am_dspi2s1_isr
    am_dspi2s2_isr
    am_dspi2s3_isr
    am_gpio0_001f_isr
    am_gpio0_203f_isr
    am_gpio0_405f_isr
    am_gpio0_607f_isr
    am_gpio1_001f_isr
    am_gpio1_203f_isr
    am_gpio1_405f_isr
    am_gpio1_607f_isr
    am_gpu_isr
    am_iomaster0_isr
    am_iomaster1_isr
    am_iomaster2_isr
    am_iomaster3_isr
    am_iomaster4_isr
    am_iomaster5_isr
    am_iomaster6_isr
    am_iomaster7_isr
    am_ioslave_acc_isr
    am_ioslave_ios_isr
    am_mspi0_isr
    am_mspi1_isr
    am_pdm0_isr
    am_pdm1_isr
    am_pdm2_isr
    am_pdm3_isr
    am_rtc_isr
    am_sdio_isr
    am_stimer_cmpr0_isr
    am_stimer_cmpr1_isr
    am_stimer_cmpr2_isr
    am_stimer_cmpr3_isr
    am_stimer_cmpr4_isr
    am_stimer_cmpr5_isr
    am_stimer_cmpr6_isr
    am_stimer_cmpr7_isr
    am_stimerof_isr
    am_timer00_isr
    am_timer01_isr
    am_timer02_isr
    am_timer03_isr
    am_timer04_isr
    am_timer05_isr
    am_timer06_isr
    am_timer07_isr
    am_timer08_isr
    am_timer09_isr
    am_timer10_isr
    am_timer11_isr
    am_timer12_isr
    am_timer13_isr
    am_timer14_isr
    am_timer15_isr
    am_uart1_isr
    am_uart2_isr
    am_uart3_isr
    am_uart_isr
    am_usb_isr
    am_vcomp_isr
    am_watchdog_isr
        0x00018230:    e7fe        ..      B        am_cryptosec_isr ; 0x18230
    $d
        0x00018232:    0000        ..      DCW    0
        0x00018234:    00018239    9...    DCD    98873
    $t
    !!!main
    __main
        0x00018238:    f000f802    ....    BL       __scatterload ; 0x18240
        0x0001823c:    f000f86a    ..j.    BL       __rt_entry ; 0x18314
    !!!scatter
    __scatterload
    __scatterload_rt2
    __scatterload_rt2_thumb_only
        0x00018240:    a00a        ..      ADR      r0,{pc}+0x2c ; 0x1826c
        0x00018242:    e8900c00    ....    LDM      r0,{r10,r11}
        0x00018246:    4482        .D      ADD      r10,r10,r0
        0x00018248:    4483        .D      ADD      r11,r11,r0
        0x0001824a:    f1aa0701    ....    SUB      r7,r10,#1
    __scatterload_null
        0x0001824e:    45da        .E      CMP      r10,r11
        0x00018250:    d101        ..      BNE      0x18256 ; __scatterload_null + 8
        0x00018252:    f000f85f    .._.    BL       __rt_entry ; 0x18314
        0x00018256:    f2af0e09    ....    ADR      lr,{pc}-7 ; 0x1824f
        0x0001825a:    e8ba000f    ....    LDM      r10!,{r0-r3}
        0x0001825e:    f0130f01    ....    TST      r3,#1
        0x00018262:    bf18        ..      IT       NE
        0x00018264:    1afb        ..      SUBNE    r3,r7,r3
        0x00018266:    f0430301    C...    ORR      r3,r3,#1
        0x0001826a:    4718        .G      BX       r3
    $d
        0x0001826c:    000067a8    .g..    DCD    26536
        0x00018270:    000067d8    .g..    DCD    26584
    $t
    !!dczerorl2
    __decompress
    __decompress1
        0x00018274:    440a        .D      ADD      r2,r2,r1
        0x00018276:    f04f0c00    O...    MOV      r12,#0
        0x0001827a:    f8103b01    ...;    LDRB     r3,[r0],#1
        0x0001827e:    f0130407    ....    ANDS     r4,r3,#7
        0x00018282:    bf08        ..      IT       EQ
        0x00018284:    f8104b01    ...K    LDRBEQ   r4,[r0],#1
        0x00018288:    111d        ..      ASRS     r5,r3,#4
        0x0001828a:    bf08        ..      IT       EQ
        0x0001828c:    f8105b01    ...[    LDRBEQ   r5,[r0],#1
        0x00018290:    1e64        d.      SUBS     r4,r4,#1
        0x00018292:    d005        ..      BEQ      0x182a0 ; __decompress + 44
        0x00018294:    f8106b01    ...k    LDRB     r6,[r0],#1
        0x00018298:    1e64        d.      SUBS     r4,r4,#1
        0x0001829a:    f8016b01    ...k    STRB     r6,[r1],#1
        0x0001829e:    d1f9        ..      BNE      0x18294 ; __decompress + 32
        0x000182a0:    f0130f08    ....    TST      r3,#8
        0x000182a4:    bf1e        ..      ITTT     NE
        0x000182a6:    f8104b01    ...K    LDRBNE   r4,[r0],#1
        0x000182aa:    1cad        ..      ADDNE    r5,r5,#2
        0x000182ac:    1b0c        ..      SUBNE    r4,r1,r4
        0x000182ae:    d109        ..      BNE      0x182c4 ; __decompress + 80
        0x000182b0:    1e6d        m.      SUBS     r5,r5,#1
        0x000182b2:    bf58        X.      IT       PL
        0x000182b4:    f801cb01    ....    STRBPL   r12,[r1],#1
        0x000182b8:    d5fa        ..      BPL      0x182b0 ; __decompress + 60
        0x000182ba:    e005        ..      B        0x182c8 ; __decompress + 84
        0x000182bc:    f8146b01    ...k    LDRB     r6,[r4],#1
        0x000182c0:    f8016b01    ...k    STRB     r6,[r1],#1
        0x000182c4:    1e6d        m.      SUBS     r5,r5,#1
        0x000182c6:    d5f9        ..      BPL      0x182bc ; __decompress + 72
        0x000182c8:    4291        .B      CMP      r1,r2
        0x000182ca:    d3d6        ..      BCC      0x1827a ; __decompress + 6
        0x000182cc:    4770        pG      BX       lr
        0x000182ce:    0000        ..      MOVS     r0,r0
    !!handler_copy
    __scatterload_copy
        0x000182d0:    3a10        .:      SUBS     r2,r2,#0x10
        0x000182d2:    bf24        $.      ITT      CS
        0x000182d4:    c878        x.      LDMCS    r0!,{r3-r6}
        0x000182d6:    c178        x.      STMCS    r1!,{r3-r6}
        0x000182d8:    d8fa        ..      BHI      __scatterload_copy ; 0x182d0
        0x000182da:    0752        R.      LSLS     r2,r2,#29
        0x000182dc:    bf24        $.      ITT      CS
        0x000182de:    c830        0.      LDMCS    r0!,{r4,r5}
        0x000182e0:    c130        0.      STMCS    r1!,{r4,r5}
        0x000182e2:    bf44        D.      ITT      MI
        0x000182e4:    6804        .h      LDRMI    r4,[r0,#0]
        0x000182e6:    600c        .`      STRMI    r4,[r1,#0]
        0x000182e8:    4770        pG      BX       lr
        0x000182ea:    0000        ..      MOVS     r0,r0
    !!handler_zi
    __scatterload_zeroinit
        0x000182ec:    2300        .#      MOVS     r3,#0
        0x000182ee:    2400        .$      MOVS     r4,#0
        0x000182f0:    2500        .%      MOVS     r5,#0
        0x000182f2:    2600        .&      MOVS     r6,#0
        0x000182f4:    3a10        .:      SUBS     r2,r2,#0x10
        0x000182f6:    bf28        (.      IT       CS
        0x000182f8:    c178        x.      STMCS    r1!,{r3-r6}
        0x000182fa:    d8fb        ..      BHI      0x182f4 ; __scatterload_zeroinit + 8
        0x000182fc:    0752        R.      LSLS     r2,r2,#29
        0x000182fe:    bf28        (.      IT       CS
        0x00018300:    c130        0.      STMCS    r1!,{r4,r5}
        0x00018302:    bf48        H.      IT       MI
        0x00018304:    600b        .`      STRMI    r3,[r1,#0]
        0x00018306:    4770        pG      BX       lr
    .ARM.Collect$$libinit$$00000000
    __rt_lib_init
        0x00018308:    b51f        ..      PUSH     {r0-r4,lr}
    .ARM.Collect$$libinit$$00000001
    __rt_lib_init_fp_1
        0x0001830a:    f006f91e    ....    BL       _fp_init ; 0x1e54a
    .ARM.Collect$$libinit$$00000004
    .ARM.Collect$$libinit$$0000000A
    .ARM.Collect$$libinit$$0000000C
    .ARM.Collect$$libinit$$0000000E
    .ARM.Collect$$libinit$$00000011
    .ARM.Collect$$libinit$$00000013
    .ARM.Collect$$libinit$$00000015
    .ARM.Collect$$libinit$$00000017
    .ARM.Collect$$libinit$$00000019
    .ARM.Collect$$libinit$$0000001B
    .ARM.Collect$$libinit$$0000001D
    .ARM.Collect$$libinit$$0000001F
    .ARM.Collect$$libinit$$00000021
    .ARM.Collect$$libinit$$00000023
    .ARM.Collect$$libinit$$00000025
    .ARM.Collect$$libinit$$0000002C
    .ARM.Collect$$libinit$$0000002E
    .ARM.Collect$$libinit$$00000030
    .ARM.Collect$$libinit$$00000032
    .ARM.Collect$$libinit$$00000033
    __rt_lib_init_alloca_1
    __rt_lib_init_argv_1
    __rt_lib_init_atexit_1
    __rt_lib_init_clock_1
    __rt_lib_init_cpp_1
    __rt_lib_init_exceptions_1
    __rt_lib_init_fp_trap_1
    __rt_lib_init_getenv_1
    __rt_lib_init_heap_1
    __rt_lib_init_lc_collate_1
    __rt_lib_init_lc_ctype_1
    __rt_lib_init_lc_monetary_1
    __rt_lib_init_lc_numeric_1
    __rt_lib_init_lc_time_1
    __rt_lib_init_preinit_1
    __rt_lib_init_rand_1
    __rt_lib_init_return
    __rt_lib_init_signal_1
    __rt_lib_init_stdio_1
    __rt_lib_init_user_alloc_1
        0x0001830e:    bd1f        ..      POP      {r0-r4,pc}
    .ARM.Collect$$libshutdown$$00000000
    __rt_lib_shutdown
        0x00018310:    b510        ..      PUSH     {r4,lr}
    .ARM.Collect$$libshutdown$$00000002
    .ARM.Collect$$libshutdown$$00000004
    .ARM.Collect$$libshutdown$$00000007
    .ARM.Collect$$libshutdown$$0000000A
    .ARM.Collect$$libshutdown$$0000000C
    .ARM.Collect$$libshutdown$$0000000F
    .ARM.Collect$$libshutdown$$00000010
    __rt_lib_shutdown_cpp_1
    __rt_lib_shutdown_fp_trap_1
    __rt_lib_shutdown_heap_1
    __rt_lib_shutdown_return
    __rt_lib_shutdown_signal_1
    __rt_lib_shutdown_stdio_1
    __rt_lib_shutdown_user_alloc_1
        0x00018312:    bd10        ..      POP      {r4,pc}
    .ARM.Collect$$rtentry$$00000000
    .ARM.Collect$$rtentry$$00000002
    .ARM.Collect$$rtentry$$00000004
    __rt_entry
    __rt_entry_presh_1
    __rt_entry_sh
        0x00018314:    f000f921    ..!.    BL       __user_setup_stackheap ; 0x1855a
        0x00018318:    4611        .F      MOV      r1,r2
    .ARM.Collect$$rtentry$$00000009
    .ARM.Collect$$rtentry$$0000000A
    __rt_entry_li
    __rt_entry_postsh_1
        0x0001831a:    f7fffff5    ....    BL       __rt_lib_init ; 0x18308
    .ARM.Collect$$rtentry$$0000000C
    .ARM.Collect$$rtentry$$0000000D
    __rt_entry_main
    __rt_entry_postli_1
        0x0001831e:    f005f8c3    ....    BL       main ; 0x1d4a8
        0x00018322:    f000f93f    ..?.    BL       exit ; 0x185a4
    .ARM.Collect$$rtexit$$00000000
    __rt_exit
        0x00018326:    b403        ..      PUSH     {r0,r1}
    .ARM.Collect$$rtexit$$00000002
    .ARM.Collect$$rtexit$$00000003
    __rt_exit_ls
    __rt_exit_prels_1
        0x00018328:    f7fffff2    ....    BL       __rt_lib_shutdown ; 0x18310
    .ARM.Collect$$rtexit$$00000004
    __rt_exit_exit
        0x0001832c:    bc03        ..      POP      {r0,r1}
        0x0001832e:    f000f947    ..G.    BL       _sys_exit ; 0x185c0
        0x00018332:    0000        ..      MOVS     r0,r0
    .emb_text
    $v0
    __asm___19_mspi_quad_example_c_ba1d92ee__xip_test_function
        0x00018334:    bf00        ..      NOP      
        0x00018336:    bf00        ..      NOP      
        0x00018338:    bf00        ..      NOP      
        0x0001833a:    bf00        ..      NOP      
        0x0001833c:    bf00        ..      NOP      
        0x0001833e:    bf00        ..      NOP      
        0x00018340:    bf00        ..      NOP      
        0x00018342:    bf00        ..      NOP      
        0x00018344:    bf00        ..      NOP      
        0x00018346:    bf00        ..      NOP      
        0x00018348:    bf00        ..      NOP      
        0x0001834a:    bf00        ..      NOP      
        0x0001834c:    bf00        ..      NOP      
        0x0001834e:    bf00        ..      NOP      
        0x00018350:    bf00        ..      NOP      
        0x00018352:    bf00        ..      NOP      
        0x00018354:    bf00        ..      NOP      
        0x00018356:    bf00        ..      NOP      
        0x00018358:    bf00        ..      NOP      
        0x0001835a:    bf00        ..      NOP      
        0x0001835c:    bf00        ..      NOP      
        0x0001835e:    bf00        ..      NOP      
        0x00018360:    bf00        ..      NOP      
        0x00018362:    bf00        ..      NOP      
        0x00018364:    bf00        ..      NOP      
        0x00018366:    bf00        ..      NOP      
        0x00018368:    bf00        ..      NOP      
        0x0001836a:    bf00        ..      NOP      
        0x0001836c:    bf00        ..      NOP      
        0x0001836e:    bf00        ..      NOP      
        0x00018370:    bf00        ..      NOP      
        0x00018372:    bf00        ..      NOP      
        0x00018374:    4770        pG      BX       lr
        0x00018376:    0000        ..      MOVS     r0,r0
    .emb_text
    $v0
    HardFault_Handler
        0x00018378:    b501        ..      PUSH     {r0,lr}
        0x0001837a:    f01e0f04    ....    TST      lr,#4
        0x0001837e:    bf0a        ..      ITET     EQ
        0x00018380:    f3ef8008    ....    MRSEQ    r0,MSP
        0x00018384:    f3ef8009    ....    MRSNE    r0,PSP
        0x00018388:    f1100008    ....    ADDSEQ   r0,r0,#8
        0x0001838c:    f004f970    ..p.    BL       am_util_faultisr_collect_data ; 0x1c670
        0x00018390:    bd01        ..      POP      {r0,pc}
    getStackedReg
        0x00018392:    0080        ..      LSLS     r0,r0,#2
        0x00018394:    1840        @.      ADDS     r0,r0,r1
        0x00018396:    6800        .h      LDR      r0,[r0,#0]
        0x00018398:    4770        pG      BX       lr
        0x0001839a:    0000        ..      MOVS     r0,r0
    .emb_text
    $v0
    am_hal_interrupt_master_enable
        0x0001839c:    f3ef8010    ....    MRS      r0,PRIMASK
        0x000183a0:    b662        b.      CPSIE    i
        0x000183a2:    4770        pG      BX       lr
    am_hal_interrupt_master_disable
        0x000183a4:    f3ef8010    ....    MRS      r0,PRIMASK
        0x000183a8:    b672        r.      CPSID    i
        0x000183aa:    4770        pG      BX       lr
    am_hal_interrupt_master_set
        0x000183ac:    f3808810    ....    MSR      PRIMASK,r0
        0x000183b0:    4770        pG      BX       lr
        0x000183b2:    0000        ..      MOVS     r0,r0
    .text
    $v0
    __user_initial_stackheap
        0x000183b4:    4802        .H      LDR      r0,[pc,#8] ; [0x183c0] = 0x100074b8
        0x000183b6:    4903        .I      LDR      r1,[pc,#12] ; [0x183c4] = 0x100084b8
        0x000183b8:    4a01        .J      LDR      r2,[pc,#4] ; [0x183c0] = 0x100074b8
        0x000183ba:    4b03        .K      LDR      r3,[pc,#12] ; [0x183c8] = 0x100074b8
        0x000183bc:    4770        pG      BX       lr
    $d
        0x000183be:    0000        ..      DCW    0
        0x000183c0:    100074b8    .t..    DCD    268465336
        0x000183c4:    100084b8    ....    DCD    268469432
        0x000183c8:    100074b8    .t..    DCD    268465336
    $t
    .text
    __aeabi_llsl
    _ll_shift_l
        0x000183cc:    f1b20320    .. .    SUBS     r3,r2,#0x20
        0x000183d0:    d50a        ..      BPL      0x183e8 ; __aeabi_llsl + 28
        0x000183d2:    f1c20320    .. .    RSB      r3,r2,#0x20
        0x000183d6:    fa01f102    ....    LSL      r1,r1,r2
        0x000183da:    fa20f303     ...    LSR      r3,r0,r3
        0x000183de:    fa00f002    ....    LSL      r0,r0,r2
        0x000183e2:    ea410103    A...    ORR      r1,r1,r3
        0x000183e6:    4770        pG      BX       lr
        0x000183e8:    fa00f103    ....    LSL      r1,r0,r3
        0x000183ec:    f04f0000    O...    MOV      r0,#0
        0x000183f0:    4770        pG      BX       lr
    .text
    __aeabi_llsr
    _ll_ushift_r
        0x000183f2:    f1b20320    .. .    SUBS     r3,r2,#0x20
        0x000183f6:    d50a        ..      BPL      0x1840e ; __aeabi_llsr + 28
        0x000183f8:    f1c20320    .. .    RSB      r3,r2,#0x20
        0x000183fc:    fa20f002     ...    LSR      r0,r0,r2
        0x00018400:    fa01f303    ....    LSL      r3,r1,r3
        0x00018404:    fa21f102    !...    LSR      r1,r1,r2
        0x00018408:    ea400003    @...    ORR      r0,r0,r3
        0x0001840c:    4770        pG      BX       lr
        0x0001840e:    fa21f003    !...    LSR      r0,r1,r3
        0x00018412:    f04f0100    O...    MOV      r1,#0
        0x00018416:    4770        pG      BX       lr
    .text
    __aeabi_memcpy
    __rt_memcpy
        0x00018418:    2a03        .*      CMP      r2,#3
        0x0001841a:    f2408030    @.0.    BLS.W    _memcpy_lastbytes ; 0x1847e
        0x0001841e:    f0100c03    ....    ANDS     r12,r0,#3
        0x00018422:    f0008015    ....    BEQ.W    0x18450 ; __aeabi_memcpy + 56
        0x00018426:    f8113b01    ...;    LDRB     r3,[r1],#1
        0x0001842a:    f1bc0f02    ....    CMP      r12,#2
        0x0001842e:    4462        bD      ADD      r2,r2,r12
        0x00018430:    bf98        ..      IT       LS
        0x00018432:    f811cb01    ....    LDRBLS   r12,[r1],#1
        0x00018436:    f8003b01    ...;    STRB     r3,[r0],#1
        0x0001843a:    bf38        8.      IT       CC
        0x0001843c:    f8113b01    ...;    LDRBCC   r3,[r1],#1
        0x00018440:    f1a20204    ....    SUB      r2,r2,#4
        0x00018444:    bf98        ..      IT       LS
        0x00018446:    f800cb01    ....    STRBLS   r12,[r0],#1
        0x0001844a:    bf38        8.      IT       CC
        0x0001844c:    f8003b01    ...;    STRBCC   r3,[r0],#1
        0x00018450:    f0110303    ....    ANDS     r3,r1,#3
        0x00018454:    f000804f    ..O.    BEQ.W    __aeabi_memcpy4 ; 0x184f6
        0x00018458:    3a08        .:      SUBS     r2,r2,#8
        0x0001845a:    f0c08008    ....    BCC.W    0x1846e ; __aeabi_memcpy + 86
        0x0001845e:    f8513b04    Q..;    LDR      r3,[r1],#4
        0x00018462:    3a08        .:      SUBS     r2,r2,#8
        0x00018464:    f851cb04    Q...    LDR      r12,[r1],#4
        0x00018468:    e8a01008    ....    STM      r0!,{r3,r12}
        0x0001846c:    e7f5        ..      B        0x1845a ; __aeabi_memcpy + 66
        0x0001846e:    1d12        ..      ADDS     r2,r2,#4
        0x00018470:    bf5c        \.      ITT      PL
        0x00018472:    f8513b04    Q..;    LDRPL    r3,[r1],#4
        0x00018476:    f8403b04    @..;    STRPL    r3,[r0],#4
        0x0001847a:    f3af8000    ....    NOP.W    
    _memcpy_lastbytes
        0x0001847e:    07d2        ..      LSLS     r2,r2,#31
        0x00018480:    bf24        $.      ITT      CS
        0x00018482:    f8113b01    ...;    LDRBCS   r3,[r1],#1
        0x00018486:    f811cb01    ....    LDRBCS   r12,[r1],#1
        0x0001848a:    bf48        H.      IT       MI
        0x0001848c:    f8112b01    ...+    LDRBMI   r2,[r1],#1
        0x00018490:    bf24        $.      ITT      CS
        0x00018492:    f8003b01    ...;    STRBCS   r3,[r0],#1
        0x00018496:    f800cb01    ....    STRBCS   r12,[r0],#1
        0x0001849a:    bf48        H.      IT       MI
        0x0001849c:    f8002b01    ...+    STRBMI   r2,[r0],#1
        0x000184a0:    4770        pG      BX       lr
    .text
    __aeabi_memclr4
    __aeabi_memclr8
    __rt_memclr_w
        0x000184a2:    f04f0200    O...    MOV      r2,#0
    _memset_w
        0x000184a6:    b500        ..      PUSH     {lr}
        0x000184a8:    4613        .F      MOV      r3,r2
        0x000184aa:    4694        .F      MOV      r12,r2
        0x000184ac:    4696        .F      MOV      lr,r2
        0x000184ae:    3920         9      SUBS     r1,r1,#0x20
        0x000184b0:    bf22        ".      ITTT     CS
        0x000184b2:    e8a0500c    ...P    STMCS    r0!,{r2,r3,r12,lr}
        0x000184b6:    e8a0500c    ...P    STMCS    r0!,{r2,r3,r12,lr}
        0x000184ba:    f1b10120    .. .    SUBSCS   r1,r1,#0x20
        0x000184be:    f4bfaff7    ....    BCS.W    0x184b0 ; _memset_w + 10
        0x000184c2:    0709        ..      LSLS     r1,r1,#28
        0x000184c4:    bf28        (.      IT       CS
        0x000184c6:    e8a0500c    ...P    STMCS    r0!,{r2,r3,r12,lr}
        0x000184ca:    bf48        H.      IT       MI
        0x000184cc:    c00c        ..      STMMI    r0!,{r2,r3}
        0x000184ce:    f85deb04    ]...    POP      {lr}
        0x000184d2:    0089        ..      LSLS     r1,r1,#2
        0x000184d4:    bf28        (.      IT       CS
        0x000184d6:    f8402b04    @..+    STRCS    r2,[r0],#4
        0x000184da:    bf08        ..      IT       EQ
        0x000184dc:    4770        pG      BXEQ     lr
        0x000184de:    bf48        H.      IT       MI
        0x000184e0:    f8202b02     ..+    STRHMI   r2,[r0],#2
        0x000184e4:    f0114f80    ...O    TST      r1,#0x40000000
        0x000184e8:    bf18        ..      IT       NE
        0x000184ea:    f8002b01    ...+    STRBNE   r2,[r0],#1
        0x000184ee:    4770        pG      BX       lr
    .text
    __use_two_region_memory
        0x000184f0:    4770        pG      BX       lr
    __rt_heap_escrow$2region
        0x000184f2:    4770        pG      BX       lr
    __rt_heap_expand$2region
        0x000184f4:    4770        pG      BX       lr
    .text
    __aeabi_memcpy4
    __aeabi_memcpy8
    __rt_memcpy_w
        0x000184f6:    b510        ..      PUSH     {r4,lr}
        0x000184f8:    3a20         :      SUBS     r2,r2,#0x20
        0x000184fa:    f0c0800b    ....    BCC.W    0x18514 ; __aeabi_memcpy4 + 30
        0x000184fe:    e8b15018    ...P    LDM      r1!,{r3,r4,r12,lr}
        0x00018502:    3a20         :      SUBS     r2,r2,#0x20
        0x00018504:    e8a05018    ...P    STM      r0!,{r3,r4,r12,lr}
        0x00018508:    e8b15018    ...P    LDM      r1!,{r3,r4,r12,lr}
        0x0001850c:    e8a05018    ...P    STM      r0!,{r3,r4,r12,lr}
        0x00018510:    f4bfaff5    ....    BCS.W    0x184fe ; __aeabi_memcpy4 + 8
        0x00018514:    ea5f7c02    _..|    LSLS     r12,r2,#28
        0x00018518:    bf24        $.      ITT      CS
        0x0001851a:    e8b15018    ...P    LDMCS    r1!,{r3,r4,r12,lr}
        0x0001851e:    e8a05018    ...P    STMCS    r0!,{r3,r4,r12,lr}
        0x00018522:    bf44        D.      ITT      MI
        0x00018524:    c918        ..      LDMMI    r1!,{r3,r4}
        0x00018526:    c018        ..      STMMI    r0!,{r3,r4}
        0x00018528:    e8bd4010    ...@    POP      {r4,lr}
        0x0001852c:    ea5f7c82    _..|    LSLS     r12,r2,#30
        0x00018530:    bf24        $.      ITT      CS
        0x00018532:    f8513b04    Q..;    LDRCS    r3,[r1],#4
        0x00018536:    f8403b04    @..;    STRCS    r3,[r0],#4
        0x0001853a:    bf08        ..      IT       EQ
        0x0001853c:    4770        pG      BXEQ     lr
    _memcpy_lastbytes_aligned
        0x0001853e:    07d2        ..      LSLS     r2,r2,#31
        0x00018540:    bf28        (.      IT       CS
        0x00018542:    f8313b02    1..;    LDRHCS   r3,[r1],#2
        0x00018546:    bf48        H.      IT       MI
        0x00018548:    f8112b01    ...+    LDRBMI   r2,[r1],#1
        0x0001854c:    bf28        (.      IT       CS
        0x0001854e:    f8203b02     ..;    STRHCS   r3,[r0],#2
        0x00018552:    bf48        H.      IT       MI
        0x00018554:    f8002b01    ...+    STRBMI   r2,[r0],#1
        0x00018558:    4770        pG      BX       lr
    .text
    __user_setup_stackheap
        0x0001855a:    4675        uF      MOV      r5,lr
        0x0001855c:    f000f82c    ..,.    BL       __user_libspace ; 0x185b8
        0x00018560:    46ae        .F      MOV      lr,r5
        0x00018562:    0005        ..      MOVS     r5,r0
        0x00018564:    4669        iF      MOV      r1,sp
        0x00018566:    4653        SF      MOV      r3,r10
        0x00018568:    f0200007     ...    BIC      r0,r0,#7
        0x0001856c:    4685        .F      MOV      sp,r0
        0x0001856e:    b018        ..      ADD      sp,sp,#0x60
        0x00018570:    b520         .      PUSH     {r5,lr}
        0x00018572:    f7ffff1f    ....    BL       __user_initial_stackheap ; 0x183b4
        0x00018576:    e8bd4020    .. @    POP      {r5,lr}
        0x0001857a:    f04f0600    O...    MOV      r6,#0
        0x0001857e:    f04f0700    O...    MOV      r7,#0
        0x00018582:    f04f0800    O...    MOV      r8,#0
        0x00018586:    f04f0b00    O...    MOV      r11,#0
        0x0001858a:    f0210107    !...    BIC      r1,r1,#7
        0x0001858e:    46ac        .F      MOV      r12,r5
        0x00018590:    e8ac09c0    ....    STM      r12!,{r6-r8,r11}
        0x00018594:    e8ac09c0    ....    STM      r12!,{r6-r8,r11}
        0x00018598:    e8ac09c0    ....    STM      r12!,{r6-r8,r11}
        0x0001859c:    e8ac09c0    ....    STM      r12!,{r6-r8,r11}
        0x000185a0:    468d        .F      MOV      sp,r1
        0x000185a2:    4770        pG      BX       lr
    .text
    exit
        0x000185a4:    b510        ..      PUSH     {r4,lr}
        0x000185a6:    4604        .F      MOV      r4,r0
        0x000185a8:    f3af8000    ....    NOP.W    
        0x000185ac:    4620         F      MOV      r0,r4
        0x000185ae:    e8bd4010    ...@    POP      {r4,lr}
        0x000185b2:    f7ffbeb8    ....    B.W      __rt_exit ; 0x18326
        0x000185b6:    0000        ..      MOVS     r0,r0
    .text
    __user_libspace
    __user_perproc_libspace
    __user_perthread_libspace
        0x000185b8:    4800        .H      LDR      r0,[pc,#0] ; [0x185bc] = 0x10007454
        0x000185ba:    4770        pG      BX       lr
    $d
        0x000185bc:    10007454    Tt..    DCD    268465236
    $t
    .text
    _sys_exit
        0x000185c0:    4901        .I      LDR      r1,[pc,#4] ; [0x185c8] = 0x20026
        0x000185c2:    2018        .       MOVS     r0,#0x18
        0x000185c4:    beab        ..      BKPT     #0xab
        0x000185c6:    e7fe        ..      B        0x185c6 ; _sys_exit + 6
    $d
        0x000185c8:    00020026    &...    DCD    131110
    $t
    .text
    __I$use$semihosting
    __use_no_semihosting_swi
        0x000185cc:    4770        pG      BX       lr
    .text
    __semihosting_library_function
        0x000185ce:    0000        ..      MOVS     r0,r0
    i.am_bsp_itm_printf_enable
    am_bsp_itm_printf_enable
        0x000185d0:    4817        .H      LDR      r0,[pc,#92] ; [0x18630] = 0x40021000
        0x000185d2:    b500        ..      PUSH     {lr}
        0x000185d4:    6880        .h      LDR      r0,[r0,#8]
        0x000185d6:    b083        ..      SUB      sp,sp,#0xc
        0x000185d8:    f4101f80    ....    TST      r0,#0x100000
        0x000185dc:    d010        ..      BEQ      0x18600 ; am_bsp_itm_printf_enable + 48
        0x000185de:    4815        .H      LDR      r0,[pc,#84] ; [0x18634] = 0x400c0a7c
        0x000185e0:    6800        .h      LDR      r0,[r0,#0]
        0x000185e2:    f0100f01    ....    TST      r0,#1
        0x000185e6:    d00b        ..      BEQ      0x18600 ; am_bsp_itm_printf_enable + 48
        0x000185e8:    4668        hF      MOV      r0,sp
        0x000185ea:    f001fceb    ....    BL       am_hal_dcu_get ; 0x19fc4
        0x000185ee:    9800        ..      LDR      r0,[sp,#0]
        0x000185f0:    f0100f10    ....    TST      r0,#0x10
        0x000185f4:    d108        ..      BNE      0x18608 ; am_bsp_itm_printf_enable + 56
        0x000185f6:    2110        .!      MOVS     r1,#0x10
        0x000185f8:    2001        .       MOVS     r0,#1
        0x000185fa:    f001fd2b    ..+.    BL       am_hal_dcu_update ; 0x1a054
        0x000185fe:    b118        ..      CBZ      r0,0x18608 ; am_bsp_itm_printf_enable + 56
        0x00018600:    b003        ..      ADD      sp,sp,#0xc
        0x00018602:    f04f30ff    O..0    MOV      r0,#0xffffffff
        0x00018606:    bd00        ..      POP      {pc}
        0x00018608:    490b        .I      LDR      r1,[pc,#44] ; [0x18638] = 0x1000013c
        0x0001860a:    2001        .       MOVS     r0,#1
        0x0001860c:    7008        .p      STRB     r0,[r1,#0]
        0x0001860e:    f001fe59    ..Y.    BL       am_hal_itm_enable ; 0x1a2c4
        0x00018612:    480a        .H      LDR      r0,[pc,#40] ; [0x1863c] = 0xf4240
        0x00018614:    f003ff46    ..F.    BL       am_hal_tpiu_enable ; 0x1c4a4
        0x00018618:    4809        .H      LDR      r0,[pc,#36] ; [0x18640] = 0x10000220
        0x0001861a:    6801        .h      LDR      r1,[r0,#0]
        0x0001861c:    9101        ..      STR      r1,[sp,#4]
        0x0001861e:    201c        .       MOVS     r0,#0x1c
        0x00018620:    f001fe26    ..&.    BL       am_hal_gpio_pinconfig ; 0x1a270
        0x00018624:    4807        .H      LDR      r0,[pc,#28] ; [0x18644] = 0x1a30d
        0x00018626:    f004fab1    ....    BL       am_util_stdio_printf_init ; 0x1cb8c
        0x0001862a:    b003        ..      ADD      sp,sp,#0xc
        0x0001862c:    2000        .       MOVS     r0,#0
        0x0001862e:    bd00        ..      POP      {pc}
    $d
        0x00018630:    40021000    ...@    DCD    1073876992
        0x00018634:    400c0a7c    |..@    DCD    1074530940
        0x00018638:    1000013c    <...    DCD    268435772
        0x0001863c:    000f4240    @B..    DCD    1000000
        0x00018640:    10000220     ...    DCD    268436000
        0x00018644:    0001a30d    ....    DCD    107277
    $t
    i.am_bsp_low_power_init
    am_bsp_low_power_init
        0x00018648:    b510        ..      PUSH     {r4,lr}
        0x0001864a:    f003fc51    ..Q.    BL       am_hal_pwrctrl_low_power_init ; 0x1bef0
        0x0001864e:    2100        .!      MOVS     r1,#0
        0x00018650:    4608        .F      MOV      r0,r1
        0x00018652:    f003fb8f    ....    BL       am_hal_pwrctrl_control ; 0x1bd74
        0x00018656:    e8bd4010    ...@    POP      {r4,lr}
        0x0001865a:    f003be09    ....    B.W      am_hal_rtc_osc_disable ; 0x1c270
        0x0001865e:    0000        ..      MOVS     r0,r0
    i.am_bsp_mspi_pins_enable
    am_bsp_mspi_pins_enable
        0x00018660:    b508        ..      PUSH     {r3,lr}
        0x00018662:    b188        ..      CBZ      r0,0x18688 ; am_bsp_mspi_pins_enable + 40
        0x00018664:    2801        .(      CMP      r0,#1
        0x00018666:    bf1c        ..      ITT      NE
        0x00018668:    2802        .(      CMPNE    r0,#2
        0x0001866a:    bd08        ..      POPNE    {r3,pc}
        0x0001866c:    2912        .)      CMP      r1,#0x12
        0x0001866e:    bf28        (.      IT       CS
        0x00018670:    bd08        ..      POPCS    {r3,pc}
        0x00018672:    e8dff001    ....    TBB      [pc,r1]
    $d
        0x00018676:    fcfd        ..      DCW    64765
        0x00018678:    f9fafbfb    ....    DCD    4193975291
        0x0001867c:    f5f6f7f8    ....    DCD    4126603256
        0x00018680:    fbfbfbfb    ....    DCD    4227595259
        0x00018684:    f9faf9fa    ....    DCD    4193974778
    $t
        0x00018688:    2912        .)      CMP      r1,#0x12
        0x0001868a:    bf28        (.      IT       CS
        0x0001868c:    bd08        ..      POPCS    {r3,pc}
        0x0001868e:    e8dff001    ....    TBB      [pc,r1]
    $d
        0x00018692:    2309        .#      DCW    8969
        0x00018694:    633deded    ..=c    DCD    1665002989
        0x00018698:    f0f1c789    ....    DCD    4042377097
        0x0001869c:    edededed    ....    DCD    3991793133
        0x000186a0:    633d633d    =c=c    DCD    1664967485
    $t
        0x000186a4:    48fe        .H      LDR      r0,[pc,#1016] ; [0x18aa0] = 0x100001b8
        0x000186a6:    6801        .h      LDR      r1,[r0,#0]
        0x000186a8:    9100        ..      STR      r1,[sp,#0]
        0x000186aa:    2049        I       MOVS     r0,#0x49
        0x000186ac:    f001fde0    ....    BL       am_hal_gpio_pinconfig ; 0x1a270
        0x000186b0:    48fc        .H      LDR      r0,[pc,#1008] ; [0x18aa4] = 0x100001c0
        0x000186b2:    6801        .h      LDR      r1,[r0,#0]
        0x000186b4:    9100        ..      STR      r1,[sp,#0]
        0x000186b6:    2040        @       MOVS     r0,#0x40
        0x000186b8:    f001fdda    ....    BL       am_hal_gpio_pinconfig ; 0x1a270
        0x000186bc:    48fa        .H      LDR      r0,[pc,#1000] ; [0x18aa8] = 0x100001c4
        0x000186be:    6801        .h      LDR      r1,[r0,#0]
        0x000186c0:    9100        ..      STR      r1,[sp,#0]
        0x000186c2:    2041        A       MOVS     r0,#0x41
        0x000186c4:    f001fdd4    ....    BL       am_hal_gpio_pinconfig ; 0x1a270
        0x000186c8:    48f8        .H      LDR      r0,[pc,#992] ; [0x18aac] = 0x100001e0
        0x000186ca:    6801        .h      LDR      r1,[r0,#0]
        0x000186cc:    9100        ..      STR      r1,[sp,#0]
        0x000186ce:    e8bd4008    ...@    POP      {r3,lr}
        0x000186d2:    2048        H       MOVS     r0,#0x48
        0x000186d4:    f001bdcc    ....    B.W      am_hal_gpio_pinconfig ; 0x1a270
        0x000186d8:    48f5        .H      LDR      r0,[pc,#980] ; [0x18ab0] = 0x100001bc
        0x000186da:    6801        .h      LDR      r1,[r0,#0]
        0x000186dc:    9100        ..      STR      r1,[sp,#0]
        0x000186de:    2034        4       MOVS     r0,#0x34
        0x000186e0:    f001fdc6    ....    BL       am_hal_gpio_pinconfig ; 0x1a270
        0x000186e4:    48ef        .H      LDR      r0,[pc,#956] ; [0x18aa4] = 0x100001c0
        0x000186e6:    6801        .h      LDR      r1,[r0,#0]
        0x000186e8:    9100        ..      STR      r1,[sp,#0]
        0x000186ea:    2040        @       MOVS     r0,#0x40
        0x000186ec:    f001fdc0    ....    BL       am_hal_gpio_pinconfig ; 0x1a270
        0x000186f0:    48ed        .H      LDR      r0,[pc,#948] ; [0x18aa8] = 0x100001c4
        0x000186f2:    6801        .h      LDR      r1,[r0,#0]
        0x000186f4:    9100        ..      STR      r1,[sp,#0]
        0x000186f6:    2041        A       MOVS     r0,#0x41
        0x000186f8:    f001fdba    ....    BL       am_hal_gpio_pinconfig ; 0x1a270
        0x000186fc:    48eb        .H      LDR      r0,[pc,#940] ; [0x18aac] = 0x100001e0
        0x000186fe:    6801        .h      LDR      r1,[r0,#0]
        0x00018700:    9100        ..      STR      r1,[sp,#0]
        0x00018702:    e8bd4008    ...@    POP      {r3,lr}
        0x00018706:    2048        H       MOVS     r0,#0x48
        0x00018708:    f001bdb2    ....    B.W      am_hal_gpio_pinconfig ; 0x1a270
        0x0001870c:    48e4        .H      LDR      r0,[pc,#912] ; [0x18aa0] = 0x100001b8
        0x0001870e:    6801        .h      LDR      r1,[r0,#0]
        0x00018710:    9100        ..      STR      r1,[sp,#0]
        0x00018712:    2049        I       MOVS     r0,#0x49
        0x00018714:    f001fdac    ....    BL       am_hal_gpio_pinconfig ; 0x1a270
        0x00018718:    48e2        .H      LDR      r0,[pc,#904] ; [0x18aa4] = 0x100001c0
        0x0001871a:    6801        .h      LDR      r1,[r0,#0]
        0x0001871c:    9100        ..      STR      r1,[sp,#0]
        0x0001871e:    2040        @       MOVS     r0,#0x40
        0x00018720:    f001fda6    ....    BL       am_hal_gpio_pinconfig ; 0x1a270
        0x00018724:    48e0        .H      LDR      r0,[pc,#896] ; [0x18aa8] = 0x100001c4
        0x00018726:    6801        .h      LDR      r1,[r0,#0]
        0x00018728:    9100        ..      STR      r1,[sp,#0]
        0x0001872a:    2041        A       MOVS     r0,#0x41
        0x0001872c:    f001fda0    ....    BL       am_hal_gpio_pinconfig ; 0x1a270
        0x00018730:    48e0        .H      LDR      r0,[pc,#896] ; [0x18ab4] = 0x100001c8
        0x00018732:    6801        .h      LDR      r1,[r0,#0]
        0x00018734:    9100        ..      STR      r1,[sp,#0]
        0x00018736:    2042        B       MOVS     r0,#0x42
        0x00018738:    f001fd9a    ....    BL       am_hal_gpio_pinconfig ; 0x1a270
        0x0001873c:    48de        .H      LDR      r0,[pc,#888] ; [0x18ab8] = 0x100001cc
        0x0001873e:    6801        .h      LDR      r1,[r0,#0]
        0x00018740:    9100        ..      STR      r1,[sp,#0]
        0x00018742:    2043        C       MOVS     r0,#0x43
        0x00018744:    f001fd94    ....    BL       am_hal_gpio_pinconfig ; 0x1a270
        0x00018748:    48d8        .H      LDR      r0,[pc,#864] ; [0x18aac] = 0x100001e0
        0x0001874a:    6801        .h      LDR      r1,[r0,#0]
        0x0001874c:    9100        ..      STR      r1,[sp,#0]
        0x0001874e:    e8bd4008    ...@    POP      {r3,lr}
        0x00018752:    2048        H       MOVS     r0,#0x48
        0x00018754:    f001bd8c    ....    B.W      am_hal_gpio_pinconfig ; 0x1a270
        0x00018758:    48d5        .H      LDR      r0,[pc,#852] ; [0x18ab0] = 0x100001bc
        0x0001875a:    6801        .h      LDR      r1,[r0,#0]
        0x0001875c:    9100        ..      STR      r1,[sp,#0]
        0x0001875e:    2034        4       MOVS     r0,#0x34
        0x00018760:    f001fd86    ....    BL       am_hal_gpio_pinconfig ; 0x1a270
        0x00018764:    48cf        .H      LDR      r0,[pc,#828] ; [0x18aa4] = 0x100001c0
        0x00018766:    6801        .h      LDR      r1,[r0,#0]
        0x00018768:    9100        ..      STR      r1,[sp,#0]
        0x0001876a:    2040        @       MOVS     r0,#0x40
        0x0001876c:    f001fd80    ....    BL       am_hal_gpio_pinconfig ; 0x1a270
        0x00018770:    48cd        .H      LDR      r0,[pc,#820] ; [0x18aa8] = 0x100001c4
        0x00018772:    6801        .h      LDR      r1,[r0,#0]
        0x00018774:    9100        ..      STR      r1,[sp,#0]
        0x00018776:    2041        A       MOVS     r0,#0x41
        0x00018778:    f001fd7a    ..z.    BL       am_hal_gpio_pinconfig ; 0x1a270
        0x0001877c:    48cd        .H      LDR      r0,[pc,#820] ; [0x18ab4] = 0x100001c8
        0x0001877e:    6801        .h      LDR      r1,[r0,#0]
        0x00018780:    9100        ..      STR      r1,[sp,#0]
        0x00018782:    2042        B       MOVS     r0,#0x42
        0x00018784:    f001fd74    ..t.    BL       am_hal_gpio_pinconfig ; 0x1a270
        0x00018788:    48cb        .H      LDR      r0,[pc,#812] ; [0x18ab8] = 0x100001cc
        0x0001878a:    6801        .h      LDR      r1,[r0,#0]
        0x0001878c:    9100        ..      STR      r1,[sp,#0]
        0x0001878e:    2043        C       MOVS     r0,#0x43
        0x00018790:    f001fd6e    ..n.    BL       am_hal_gpio_pinconfig ; 0x1a270
        0x00018794:    48c5        .H      LDR      r0,[pc,#788] ; [0x18aac] = 0x100001e0
        0x00018796:    6801        .h      LDR      r1,[r0,#0]
        0x00018798:    9100        ..      STR      r1,[sp,#0]
        0x0001879a:    e8bd4008    ...@    POP      {r3,lr}
        0x0001879e:    2048        H       MOVS     r0,#0x48
        0x000187a0:    f001bd66    ..f.    B.W      am_hal_gpio_pinconfig ; 0x1a270
        0x000187a4:    48be        .H      LDR      r0,[pc,#760] ; [0x18aa0] = 0x100001b8
        0x000187a6:    6801        .h      LDR      r1,[r0,#0]
        0x000187a8:    9100        ..      STR      r1,[sp,#0]
        0x000187aa:    2049        I       MOVS     r0,#0x49
        0x000187ac:    f001fd60    ..`.    BL       am_hal_gpio_pinconfig ; 0x1a270
        0x000187b0:    48bc        .H      LDR      r0,[pc,#752] ; [0x18aa4] = 0x100001c0
        0x000187b2:    6801        .h      LDR      r1,[r0,#0]
        0x000187b4:    9100        ..      STR      r1,[sp,#0]
        0x000187b6:    2040        @       MOVS     r0,#0x40
        0x000187b8:    f001fd5a    ..Z.    BL       am_hal_gpio_pinconfig ; 0x1a270
        0x000187bc:    48ba        .H      LDR      r0,[pc,#744] ; [0x18aa8] = 0x100001c4
        0x000187be:    6801        .h      LDR      r1,[r0,#0]
        0x000187c0:    9100        ..      STR      r1,[sp,#0]
        0x000187c2:    2041        A       MOVS     r0,#0x41
        0x000187c4:    f001fd54    ..T.    BL       am_hal_gpio_pinconfig ; 0x1a270
        0x000187c8:    48ba        .H      LDR      r0,[pc,#744] ; [0x18ab4] = 0x100001c8
        0x000187ca:    6801        .h      LDR      r1,[r0,#0]
        0x000187cc:    9100        ..      STR      r1,[sp,#0]
        0x000187ce:    2042        B       MOVS     r0,#0x42
        0x000187d0:    f001fd4e    ..N.    BL       am_hal_gpio_pinconfig ; 0x1a270
        0x000187d4:    48b8        .H      LDR      r0,[pc,#736] ; [0x18ab8] = 0x100001cc
        0x000187d6:    6801        .h      LDR      r1,[r0,#0]
        0x000187d8:    9100        ..      STR      r1,[sp,#0]
        0x000187da:    2043        C       MOVS     r0,#0x43
        0x000187dc:    f001fd48    ..H.    BL       am_hal_gpio_pinconfig ; 0x1a270
        0x000187e0:    48b6        .H      LDR      r0,[pc,#728] ; [0x18abc] = 0x100001d0
        0x000187e2:    6801        .h      LDR      r1,[r0,#0]
        0x000187e4:    9100        ..      STR      r1,[sp,#0]
        0x000187e6:    2044        D       MOVS     r0,#0x44
        0x000187e8:    f001fd42    ..B.    BL       am_hal_gpio_pinconfig ; 0x1a270
        0x000187ec:    48b4        .H      LDR      r0,[pc,#720] ; [0x18ac0] = 0x100001d4
        0x000187ee:    6801        .h      LDR      r1,[r0,#0]
        0x000187f0:    9100        ..      STR      r1,[sp,#0]
        0x000187f2:    2045        E       MOVS     r0,#0x45
        0x000187f4:    f001fd3c    ..<.    BL       am_hal_gpio_pinconfig ; 0x1a270
        0x000187f8:    48b2        .H      LDR      r0,[pc,#712] ; [0x18ac4] = 0x100001d8
        0x000187fa:    6801        .h      LDR      r1,[r0,#0]
        0x000187fc:    9100        ..      STR      r1,[sp,#0]
        0x000187fe:    2046        F       MOVS     r0,#0x46
        0x00018800:    f001fd36    ..6.    BL       am_hal_gpio_pinconfig ; 0x1a270
        0x00018804:    48b0        .H      LDR      r0,[pc,#704] ; [0x18ac8] = 0x100001dc
        0x00018806:    6801        .h      LDR      r1,[r0,#0]
        0x00018808:    9100        ..      STR      r1,[sp,#0]
        0x0001880a:    2047        G       MOVS     r0,#0x47
        0x0001880c:    f001fd30    ..0.    BL       am_hal_gpio_pinconfig ; 0x1a270
        0x00018810:    48a6        .H      LDR      r0,[pc,#664] ; [0x18aac] = 0x100001e0
        0x00018812:    6801        .h      LDR      r1,[r0,#0]
        0x00018814:    9100        ..      STR      r1,[sp,#0]
        0x00018816:    e8bd4008    ...@    POP      {r3,lr}
        0x0001881a:    2048        H       MOVS     r0,#0x48
        0x0001881c:    f001bd28    ..(.    B.W      am_hal_gpio_pinconfig ; 0x1a270
        0x00018820:    48a3        .H      LDR      r0,[pc,#652] ; [0x18ab0] = 0x100001bc
        0x00018822:    6801        .h      LDR      r1,[r0,#0]
        0x00018824:    9100        ..      STR      r1,[sp,#0]
        0x00018826:    2034        4       MOVS     r0,#0x34
        0x00018828:    f001fd22    ..".    BL       am_hal_gpio_pinconfig ; 0x1a270
        0x0001882c:    489d        .H      LDR      r0,[pc,#628] ; [0x18aa4] = 0x100001c0
        0x0001882e:    6801        .h      LDR      r1,[r0,#0]
        0x00018830:    9100        ..      STR      r1,[sp,#0]
        0x00018832:    2040        @       MOVS     r0,#0x40
        0x00018834:    f001fd1c    ....    BL       am_hal_gpio_pinconfig ; 0x1a270
        0x00018838:    489b        .H      LDR      r0,[pc,#620] ; [0x18aa8] = 0x100001c4
        0x0001883a:    6801        .h      LDR      r1,[r0,#0]
        0x0001883c:    9100        ..      STR      r1,[sp,#0]
        0x0001883e:    2041        A       MOVS     r0,#0x41
        0x00018840:    f001fd16    ....    BL       am_hal_gpio_pinconfig ; 0x1a270
        0x00018844:    489b        .H      LDR      r0,[pc,#620] ; [0x18ab4] = 0x100001c8
        0x00018846:    6801        .h      LDR      r1,[r0,#0]
        0x00018848:    9100        ..      STR      r1,[sp,#0]
        0x0001884a:    2042        B       MOVS     r0,#0x42
        0x0001884c:    f001fd10    ....    BL       am_hal_gpio_pinconfig ; 0x1a270
        0x00018850:    4899        .H      LDR      r0,[pc,#612] ; [0x18ab8] = 0x100001cc
        0x00018852:    6801        .h      LDR      r1,[r0,#0]
        0x00018854:    9100        ..      STR      r1,[sp,#0]
        0x00018856:    2043        C       MOVS     r0,#0x43
        0x00018858:    f001fd0a    ....    BL       am_hal_gpio_pinconfig ; 0x1a270
        0x0001885c:    4897        .H      LDR      r0,[pc,#604] ; [0x18abc] = 0x100001d0
        0x0001885e:    e00a        ..      B        0x18876 ; am_bsp_mspi_pins_enable + 534
        0x00018860:    e21b        ..      B        0x18c9a ; am_bsp_mspi_pins_enable + 1594
        0x00018862:    e1d6        ..      B        0x18c12 ; am_bsp_mspi_pins_enable + 1458
        0x00018864:    e197        ..      B        0x18b96 ; am_bsp_mspi_pins_enable + 1334
        0x00018866:    e158        X.      B        0x18b1a ; am_bsp_mspi_pins_enable + 1210
        0x00018868:    e106        ..      B        0x18a78 ; am_bsp_mspi_pins_enable + 1048
        0x0001886a:    e0df        ..      B        0x18a2c ; am_bsp_mspi_pins_enable + 972
        0x0001886c:    e259        Y.      B        0x18d22 ; am_bsp_mspi_pins_enable + 1730
        0x0001886e:    e0c3        ..      B        0x189f8 ; am_bsp_mspi_pins_enable + 920
        0x00018870:    e0a8        ..      B        0x189c4 ; am_bsp_mspi_pins_enable + 868
        0x00018872:    e063        c.      B        0x1893c ; am_bsp_mspi_pins_enable + 732
        0x00018874:    e01e        ..      B        0x188b4 ; am_bsp_mspi_pins_enable + 596
        0x00018876:    6801        .h      LDR      r1,[r0,#0]
        0x00018878:    9100        ..      STR      r1,[sp,#0]
        0x0001887a:    2044        D       MOVS     r0,#0x44
        0x0001887c:    f001fcf8    ....    BL       am_hal_gpio_pinconfig ; 0x1a270
        0x00018880:    488f        .H      LDR      r0,[pc,#572] ; [0x18ac0] = 0x100001d4
        0x00018882:    6801        .h      LDR      r1,[r0,#0]
        0x00018884:    9100        ..      STR      r1,[sp,#0]
        0x00018886:    2045        E       MOVS     r0,#0x45
        0x00018888:    f001fcf2    ....    BL       am_hal_gpio_pinconfig ; 0x1a270
        0x0001888c:    488d        .H      LDR      r0,[pc,#564] ; [0x18ac4] = 0x100001d8
        0x0001888e:    6801        .h      LDR      r1,[r0,#0]
        0x00018890:    9100        ..      STR      r1,[sp,#0]
        0x00018892:    2046        F       MOVS     r0,#0x46
        0x00018894:    f001fcec    ....    BL       am_hal_gpio_pinconfig ; 0x1a270
        0x00018898:    488b        .H      LDR      r0,[pc,#556] ; [0x18ac8] = 0x100001dc
        0x0001889a:    6801        .h      LDR      r1,[r0,#0]
        0x0001889c:    9100        ..      STR      r1,[sp,#0]
        0x0001889e:    2047        G       MOVS     r0,#0x47
        0x000188a0:    f001fce6    ....    BL       am_hal_gpio_pinconfig ; 0x1a270
        0x000188a4:    4881        .H      LDR      r0,[pc,#516] ; [0x18aac] = 0x100001e0
        0x000188a6:    6801        .h      LDR      r1,[r0,#0]
        0x000188a8:    9100        ..      STR      r1,[sp,#0]
        0x000188aa:    e8bd4008    ...@    POP      {r3,lr}
        0x000188ae:    2048        H       MOVS     r0,#0x48
        0x000188b0:    f001bcde    ....    B.W      am_hal_gpio_pinconfig ; 0x1a270
        0x000188b4:    4885        .H      LDR      r0,[pc,#532] ; [0x18acc] = 0x100001b0
        0x000188b6:    6801        .h      LDR      r1,[r0,#0]
        0x000188b8:    9100        ..      STR      r1,[sp,#0]
        0x000188ba:    2055        U       MOVS     r0,#0x55
        0x000188bc:    f001fcd8    ....    BL       am_hal_gpio_pinconfig ; 0x1a270
        0x000188c0:    4878        xH      LDR      r0,[pc,#480] ; [0x18aa4] = 0x100001c0
        0x000188c2:    6801        .h      LDR      r1,[r0,#0]
        0x000188c4:    9100        ..      STR      r1,[sp,#0]
        0x000188c6:    2040        @       MOVS     r0,#0x40
        0x000188c8:    f001fcd2    ....    BL       am_hal_gpio_pinconfig ; 0x1a270
        0x000188cc:    4876        vH      LDR      r0,[pc,#472] ; [0x18aa8] = 0x100001c4
        0x000188ce:    6801        .h      LDR      r1,[r0,#0]
        0x000188d0:    9100        ..      STR      r1,[sp,#0]
        0x000188d2:    2041        A       MOVS     r0,#0x41
        0x000188d4:    f001fccc    ....    BL       am_hal_gpio_pinconfig ; 0x1a270
        0x000188d8:    4876        vH      LDR      r0,[pc,#472] ; [0x18ab4] = 0x100001c8
        0x000188da:    6801        .h      LDR      r1,[r0,#0]
        0x000188dc:    9100        ..      STR      r1,[sp,#0]
        0x000188de:    2042        B       MOVS     r0,#0x42
        0x000188e0:    f001fcc6    ....    BL       am_hal_gpio_pinconfig ; 0x1a270
        0x000188e4:    4874        tH      LDR      r0,[pc,#464] ; [0x18ab8] = 0x100001cc
        0x000188e6:    6801        .h      LDR      r1,[r0,#0]
        0x000188e8:    9100        ..      STR      r1,[sp,#0]
        0x000188ea:    2043        C       MOVS     r0,#0x43
        0x000188ec:    f001fcc0    ....    BL       am_hal_gpio_pinconfig ; 0x1a270
        0x000188f0:    4872        rH      LDR      r0,[pc,#456] ; [0x18abc] = 0x100001d0
        0x000188f2:    6801        .h      LDR      r1,[r0,#0]
        0x000188f4:    9100        ..      STR      r1,[sp,#0]
        0x000188f6:    2044        D       MOVS     r0,#0x44
        0x000188f8:    f001fcba    ....    BL       am_hal_gpio_pinconfig ; 0x1a270
        0x000188fc:    4870        pH      LDR      r0,[pc,#448] ; [0x18ac0] = 0x100001d4
        0x000188fe:    6801        .h      LDR      r1,[r0,#0]
        0x00018900:    9100        ..      STR      r1,[sp,#0]
        0x00018902:    2045        E       MOVS     r0,#0x45
        0x00018904:    f001fcb4    ....    BL       am_hal_gpio_pinconfig ; 0x1a270
        0x00018908:    486e        nH      LDR      r0,[pc,#440] ; [0x18ac4] = 0x100001d8
        0x0001890a:    6801        .h      LDR      r1,[r0,#0]
        0x0001890c:    9100        ..      STR      r1,[sp,#0]
        0x0001890e:    2046        F       MOVS     r0,#0x46
        0x00018910:    f001fcae    ....    BL       am_hal_gpio_pinconfig ; 0x1a270
        0x00018914:    486c        lH      LDR      r0,[pc,#432] ; [0x18ac8] = 0x100001dc
        0x00018916:    6801        .h      LDR      r1,[r0,#0]
        0x00018918:    9100        ..      STR      r1,[sp,#0]
        0x0001891a:    2047        G       MOVS     r0,#0x47
        0x0001891c:    f001fca8    ....    BL       am_hal_gpio_pinconfig ; 0x1a270
        0x00018920:    4862        bH      LDR      r0,[pc,#392] ; [0x18aac] = 0x100001e0
        0x00018922:    6801        .h      LDR      r1,[r0,#0]
        0x00018924:    9100        ..      STR      r1,[sp,#0]
        0x00018926:    2048        H       MOVS     r0,#0x48
        0x00018928:    f001fca2    ....    BL       am_hal_gpio_pinconfig ; 0x1a270
        0x0001892c:    4868        hH      LDR      r0,[pc,#416] ; [0x18ad0] = 0x100001e4
        0x0001892e:    6801        .h      LDR      r1,[r0,#0]
        0x00018930:    9100        ..      STR      r1,[sp,#0]
        0x00018932:    e8bd4008    ...@    POP      {r3,lr}
        0x00018936:    2049        I       MOVS     r0,#0x49
        0x00018938:    f001bc9a    ....    B.W      am_hal_gpio_pinconfig ; 0x1a270
        0x0001893c:    4865        eH      LDR      r0,[pc,#404] ; [0x18ad4] = 0x100001b4
        0x0001893e:    6801        .h      LDR      r1,[r0,#0]
        0x00018940:    9100        ..      STR      r1,[sp,#0]
        0x00018942:    2055        U       MOVS     r0,#0x55
        0x00018944:    f001fc94    ....    BL       am_hal_gpio_pinconfig ; 0x1a270
        0x00018948:    4856        VH      LDR      r0,[pc,#344] ; [0x18aa4] = 0x100001c0
        0x0001894a:    6801        .h      LDR      r1,[r0,#0]
        0x0001894c:    9100        ..      STR      r1,[sp,#0]
        0x0001894e:    2040        @       MOVS     r0,#0x40
        0x00018950:    f001fc8e    ....    BL       am_hal_gpio_pinconfig ; 0x1a270
        0x00018954:    4854        TH      LDR      r0,[pc,#336] ; [0x18aa8] = 0x100001c4
        0x00018956:    6801        .h      LDR      r1,[r0,#0]
        0x00018958:    9100        ..      STR      r1,[sp,#0]
        0x0001895a:    2041        A       MOVS     r0,#0x41
        0x0001895c:    f001fc88    ....    BL       am_hal_gpio_pinconfig ; 0x1a270
        0x00018960:    4854        TH      LDR      r0,[pc,#336] ; [0x18ab4] = 0x100001c8
        0x00018962:    6801        .h      LDR      r1,[r0,#0]
        0x00018964:    9100        ..      STR      r1,[sp,#0]
        0x00018966:    2042        B       MOVS     r0,#0x42
        0x00018968:    f001fc82    ....    BL       am_hal_gpio_pinconfig ; 0x1a270
        0x0001896c:    4852        RH      LDR      r0,[pc,#328] ; [0x18ab8] = 0x100001cc
        0x0001896e:    6801        .h      LDR      r1,[r0,#0]
        0x00018970:    9100        ..      STR      r1,[sp,#0]
        0x00018972:    2043        C       MOVS     r0,#0x43
        0x00018974:    f001fc7c    ..|.    BL       am_hal_gpio_pinconfig ; 0x1a270
        0x00018978:    4850        PH      LDR      r0,[pc,#320] ; [0x18abc] = 0x100001d0
        0x0001897a:    6801        .h      LDR      r1,[r0,#0]
        0x0001897c:    9100        ..      STR      r1,[sp,#0]
        0x0001897e:    2044        D       MOVS     r0,#0x44
        0x00018980:    f001fc76    ..v.    BL       am_hal_gpio_pinconfig ; 0x1a270
        0x00018984:    484e        NH      LDR      r0,[pc,#312] ; [0x18ac0] = 0x100001d4
        0x00018986:    6801        .h      LDR      r1,[r0,#0]
        0x00018988:    9100        ..      STR      r1,[sp,#0]
        0x0001898a:    2045        E       MOVS     r0,#0x45
        0x0001898c:    f001fc70    ..p.    BL       am_hal_gpio_pinconfig ; 0x1a270
        0x00018990:    484c        LH      LDR      r0,[pc,#304] ; [0x18ac4] = 0x100001d8
        0x00018992:    6801        .h      LDR      r1,[r0,#0]
        0x00018994:    9100        ..      STR      r1,[sp,#0]
        0x00018996:    2046        F       MOVS     r0,#0x46
        0x00018998:    f001fc6a    ..j.    BL       am_hal_gpio_pinconfig ; 0x1a270
        0x0001899c:    484a        JH      LDR      r0,[pc,#296] ; [0x18ac8] = 0x100001dc
        0x0001899e:    6801        .h      LDR      r1,[r0,#0]
        0x000189a0:    9100        ..      STR      r1,[sp,#0]
        0x000189a2:    2047        G       MOVS     r0,#0x47
        0x000189a4:    f001fc64    ..d.    BL       am_hal_gpio_pinconfig ; 0x1a270
        0x000189a8:    4840        @H      LDR      r0,[pc,#256] ; [0x18aac] = 0x100001e0
        0x000189aa:    6801        .h      LDR      r1,[r0,#0]
        0x000189ac:    9100        ..      STR      r1,[sp,#0]
        0x000189ae:    2048        H       MOVS     r0,#0x48
        0x000189b0:    f001fc5e    ..^.    BL       am_hal_gpio_pinconfig ; 0x1a270
        0x000189b4:    4846        FH      LDR      r0,[pc,#280] ; [0x18ad0] = 0x100001e4
        0x000189b6:    6801        .h      LDR      r1,[r0,#0]
        0x000189b8:    9100        ..      STR      r1,[sp,#0]
        0x000189ba:    e8bd4008    ...@    POP      {r3,lr}
        0x000189be:    2049        I       MOVS     r0,#0x49
        0x000189c0:    f001bc56    ..V.    B.W      am_hal_gpio_pinconfig ; 0x1a270
        0x000189c4:    4844        DH      LDR      r0,[pc,#272] ; [0x18ad8] = 0x100001f0
        0x000189c6:    6801        .h      LDR      r1,[r0,#0]
        0x000189c8:    9100        ..      STR      r1,[sp,#0]
        0x000189ca:    2053        S       MOVS     r0,#0x53
        0x000189cc:    f001fc50    ..P.    BL       am_hal_gpio_pinconfig ; 0x1a270
        0x000189d0:    4842        BH      LDR      r0,[pc,#264] ; [0x18adc] = 0x100001f8
        0x000189d2:    6801        .h      LDR      r1,[r0,#0]
        0x000189d4:    9100        ..      STR      r1,[sp,#0]
        0x000189d6:    204a        J       MOVS     r0,#0x4a
        0x000189d8:    f001fc4a    ..J.    BL       am_hal_gpio_pinconfig ; 0x1a270
        0x000189dc:    4840        @H      LDR      r0,[pc,#256] ; [0x18ae0] = 0x100001fc
        0x000189de:    6801        .h      LDR      r1,[r0,#0]
        0x000189e0:    9100        ..      STR      r1,[sp,#0]
        0x000189e2:    204b        K       MOVS     r0,#0x4b
        0x000189e4:    f001fc44    ..D.    BL       am_hal_gpio_pinconfig ; 0x1a270
        0x000189e8:    483e        >H      LDR      r0,[pc,#248] ; [0x18ae4] = 0x10000218
        0x000189ea:    6801        .h      LDR      r1,[r0,#0]
        0x000189ec:    9100        ..      STR      r1,[sp,#0]
        0x000189ee:    e8bd4008    ...@    POP      {r3,lr}
        0x000189f2:    2052        R       MOVS     r0,#0x52
        0x000189f4:    f001bc3c    ..<.    B.W      am_hal_gpio_pinconfig ; 0x1a270
        0x000189f8:    483b        ;H      LDR      r0,[pc,#236] ; [0x18ae8] = 0x100001f4
        0x000189fa:    6801        .h      LDR      r1,[r0,#0]
        0x000189fc:    9100        ..      STR      r1,[sp,#0]
        0x000189fe:    2056        V       MOVS     r0,#0x56
        0x00018a00:    f001fc36    ..6.    BL       am_hal_gpio_pinconfig ; 0x1a270
        0x00018a04:    4835        5H      LDR      r0,[pc,#212] ; [0x18adc] = 0x100001f8
        0x00018a06:    6801        .h      LDR      r1,[r0,#0]
        0x00018a08:    9100        ..      STR      r1,[sp,#0]
        0x00018a0a:    204a        J       MOVS     r0,#0x4a
        0x00018a0c:    f001fc30    ..0.    BL       am_hal_gpio_pinconfig ; 0x1a270
        0x00018a10:    4833        3H      LDR      r0,[pc,#204] ; [0x18ae0] = 0x100001fc
        0x00018a12:    6801        .h      LDR      r1,[r0,#0]
        0x00018a14:    9100        ..      STR      r1,[sp,#0]
        0x00018a16:    204b        K       MOVS     r0,#0x4b
        0x00018a18:    f001fc2a    ..*.    BL       am_hal_gpio_pinconfig ; 0x1a270
        0x00018a1c:    4831        1H      LDR      r0,[pc,#196] ; [0x18ae4] = 0x10000218
        0x00018a1e:    6801        .h      LDR      r1,[r0,#0]
        0x00018a20:    9100        ..      STR      r1,[sp,#0]
        0x00018a22:    e8bd4008    ...@    POP      {r3,lr}
        0x00018a26:    2052        R       MOVS     r0,#0x52
        0x00018a28:    f001bc22    ..".    B.W      am_hal_gpio_pinconfig ; 0x1a270
        0x00018a2c:    482a        *H      LDR      r0,[pc,#168] ; [0x18ad8] = 0x100001f0
        0x00018a2e:    6801        .h      LDR      r1,[r0,#0]
        0x00018a30:    9100        ..      STR      r1,[sp,#0]
        0x00018a32:    2053        S       MOVS     r0,#0x53
        0x00018a34:    f001fc1c    ....    BL       am_hal_gpio_pinconfig ; 0x1a270
        0x00018a38:    4828        (H      LDR      r0,[pc,#160] ; [0x18adc] = 0x100001f8
        0x00018a3a:    6801        .h      LDR      r1,[r0,#0]
        0x00018a3c:    9100        ..      STR      r1,[sp,#0]
        0x00018a3e:    204a        J       MOVS     r0,#0x4a
        0x00018a40:    f001fc16    ....    BL       am_hal_gpio_pinconfig ; 0x1a270
        0x00018a44:    4826        &H      LDR      r0,[pc,#152] ; [0x18ae0] = 0x100001fc
        0x00018a46:    6801        .h      LDR      r1,[r0,#0]
        0x00018a48:    9100        ..      STR      r1,[sp,#0]
        0x00018a4a:    204b        K       MOVS     r0,#0x4b
        0x00018a4c:    f001fc10    ....    BL       am_hal_gpio_pinconfig ; 0x1a270
        0x00018a50:    4826        &H      LDR      r0,[pc,#152] ; [0x18aec] = 0x10000200
        0x00018a52:    6801        .h      LDR      r1,[r0,#0]
        0x00018a54:    9100        ..      STR      r1,[sp,#0]
        0x00018a56:    204c        L       MOVS     r0,#0x4c
        0x00018a58:    f001fc0a    ....    BL       am_hal_gpio_pinconfig ; 0x1a270
        0x00018a5c:    4824        $H      LDR      r0,[pc,#144] ; [0x18af0] = 0x10000204
        0x00018a5e:    6801        .h      LDR      r1,[r0,#0]
        0x00018a60:    9100        ..      STR      r1,[sp,#0]
        0x00018a62:    204d        M       MOVS     r0,#0x4d
        0x00018a64:    f001fc04    ....    BL       am_hal_gpio_pinconfig ; 0x1a270
        0x00018a68:    481e        .H      LDR      r0,[pc,#120] ; [0x18ae4] = 0x10000218
        0x00018a6a:    6801        .h      LDR      r1,[r0,#0]
        0x00018a6c:    9100        ..      STR      r1,[sp,#0]
        0x00018a6e:    e8bd4008    ...@    POP      {r3,lr}
        0x00018a72:    2052        R       MOVS     r0,#0x52
        0x00018a74:    f001bbfc    ....    B.W      am_hal_gpio_pinconfig ; 0x1a270
        0x00018a78:    481b        .H      LDR      r0,[pc,#108] ; [0x18ae8] = 0x100001f4
        0x00018a7a:    6801        .h      LDR      r1,[r0,#0]
        0x00018a7c:    9100        ..      STR      r1,[sp,#0]
        0x00018a7e:    2056        V       MOVS     r0,#0x56
        0x00018a80:    f001fbf6    ....    BL       am_hal_gpio_pinconfig ; 0x1a270
        0x00018a84:    4815        .H      LDR      r0,[pc,#84] ; [0x18adc] = 0x100001f8
        0x00018a86:    6801        .h      LDR      r1,[r0,#0]
        0x00018a88:    9100        ..      STR      r1,[sp,#0]
        0x00018a8a:    204a        J       MOVS     r0,#0x4a
        0x00018a8c:    f001fbf0    ....    BL       am_hal_gpio_pinconfig ; 0x1a270
        0x00018a90:    4813        .H      LDR      r0,[pc,#76] ; [0x18ae0] = 0x100001fc
        0x00018a92:    6801        .h      LDR      r1,[r0,#0]
        0x00018a94:    9100        ..      STR      r1,[sp,#0]
        0x00018a96:    204b        K       MOVS     r0,#0x4b
        0x00018a98:    f001fbea    ....    BL       am_hal_gpio_pinconfig ; 0x1a270
        0x00018a9c:    4813        .H      LDR      r0,[pc,#76] ; [0x18aec] = 0x10000200
        0x00018a9e:    e029        ).      B        0x18af4 ; am_bsp_mspi_pins_enable + 1172
    $d
        0x00018aa0:    100001b8    ....    DCD    268435896
        0x00018aa4:    100001c0    ....    DCD    268435904
        0x00018aa8:    100001c4    ....    DCD    268435908
        0x00018aac:    100001e0    ....    DCD    268435936
        0x00018ab0:    100001bc    ....    DCD    268435900
        0x00018ab4:    100001c8    ....    DCD    268435912
        0x00018ab8:    100001cc    ....    DCD    268435916
        0x00018abc:    100001d0    ....    DCD    268435920
        0x00018ac0:    100001d4    ....    DCD    268435924
        0x00018ac4:    100001d8    ....    DCD    268435928
        0x00018ac8:    100001dc    ....    DCD    268435932
        0x00018acc:    100001b0    ....    DCD    268435888
        0x00018ad0:    100001e4    ....    DCD    268435940
        0x00018ad4:    100001b4    ....    DCD    268435892
        0x00018ad8:    100001f0    ....    DCD    268435952
        0x00018adc:    100001f8    ....    DCD    268435960
        0x00018ae0:    100001fc    ....    DCD    268435964
        0x00018ae4:    10000218    ....    DCD    268435992
        0x00018ae8:    100001f4    ....    DCD    268435956
        0x00018aec:    10000200    ....    DCD    268435968
        0x00018af0:    10000204    ....    DCD    268435972
    $t
        0x00018af4:    6801        .h      LDR      r1,[r0,#0]
        0x00018af6:    9100        ..      STR      r1,[sp,#0]
        0x00018af8:    204c        L       MOVS     r0,#0x4c
        0x00018afa:    f001fbb9    ....    BL       am_hal_gpio_pinconfig ; 0x1a270
        0x00018afe:    4889        .H      LDR      r0,[pc,#548] ; [0x18d24] = 0x10000204
        0x00018b00:    6801        .h      LDR      r1,[r0,#0]
        0x00018b02:    9100        ..      STR      r1,[sp,#0]
        0x00018b04:    204d        M       MOVS     r0,#0x4d
        0x00018b06:    f001fbb3    ....    BL       am_hal_gpio_pinconfig ; 0x1a270
        0x00018b0a:    4887        .H      LDR      r0,[pc,#540] ; [0x18d28] = 0x10000218
        0x00018b0c:    6801        .h      LDR      r1,[r0,#0]
        0x00018b0e:    9100        ..      STR      r1,[sp,#0]
        0x00018b10:    e8bd4008    ...@    POP      {r3,lr}
        0x00018b14:    2052        R       MOVS     r0,#0x52
        0x00018b16:    f001bbab    ....    B.W      am_hal_gpio_pinconfig ; 0x1a270
        0x00018b1a:    4884        .H      LDR      r0,[pc,#528] ; [0x18d2c] = 0x100001f0
        0x00018b1c:    6801        .h      LDR      r1,[r0,#0]
        0x00018b1e:    9100        ..      STR      r1,[sp,#0]
        0x00018b20:    2053        S       MOVS     r0,#0x53
        0x00018b22:    f001fba5    ....    BL       am_hal_gpio_pinconfig ; 0x1a270
        0x00018b26:    4882        .H      LDR      r0,[pc,#520] ; [0x18d30] = 0x100001f8
        0x00018b28:    6801        .h      LDR      r1,[r0,#0]
        0x00018b2a:    9100        ..      STR      r1,[sp,#0]
        0x00018b2c:    204a        J       MOVS     r0,#0x4a
        0x00018b2e:    f001fb9f    ....    BL       am_hal_gpio_pinconfig ; 0x1a270
        0x00018b32:    4880        .H      LDR      r0,[pc,#512] ; [0x18d34] = 0x100001fc
        0x00018b34:    6801        .h      LDR      r1,[r0,#0]
        0x00018b36:    9100        ..      STR      r1,[sp,#0]
        0x00018b38:    204b        K       MOVS     r0,#0x4b
        0x00018b3a:    f001fb99    ....    BL       am_hal_gpio_pinconfig ; 0x1a270
        0x00018b3e:    487e        ~H      LDR      r0,[pc,#504] ; [0x18d38] = 0x10000200
        0x00018b40:    6801        .h      LDR      r1,[r0,#0]
        0x00018b42:    9100        ..      STR      r1,[sp,#0]
        0x00018b44:    204c        L       MOVS     r0,#0x4c
        0x00018b46:    f001fb93    ....    BL       am_hal_gpio_pinconfig ; 0x1a270
        0x00018b4a:    4876        vH      LDR      r0,[pc,#472] ; [0x18d24] = 0x10000204
        0x00018b4c:    6801        .h      LDR      r1,[r0,#0]
        0x00018b4e:    9100        ..      STR      r1,[sp,#0]
        0x00018b50:    204d        M       MOVS     r0,#0x4d
        0x00018b52:    f001fb8d    ....    BL       am_hal_gpio_pinconfig ; 0x1a270
        0x00018b56:    4879        yH      LDR      r0,[pc,#484] ; [0x18d3c] = 0x10000208
        0x00018b58:    6801        .h      LDR      r1,[r0,#0]
        0x00018b5a:    9100        ..      STR      r1,[sp,#0]
        0x00018b5c:    204e        N       MOVS     r0,#0x4e
        0x00018b5e:    f001fb87    ....    BL       am_hal_gpio_pinconfig ; 0x1a270
        0x00018b62:    4877        wH      LDR      r0,[pc,#476] ; [0x18d40] = 0x1000020c
        0x00018b64:    6801        .h      LDR      r1,[r0,#0]
        0x00018b66:    9100        ..      STR      r1,[sp,#0]
        0x00018b68:    204f        O       MOVS     r0,#0x4f
        0x00018b6a:    f001fb81    ....    BL       am_hal_gpio_pinconfig ; 0x1a270
        0x00018b6e:    4875        uH      LDR      r0,[pc,#468] ; [0x18d44] = 0x10000210
        0x00018b70:    6801        .h      LDR      r1,[r0,#0]
        0x00018b72:    9100        ..      STR      r1,[sp,#0]
        0x00018b74:    2050        P       MOVS     r0,#0x50
        0x00018b76:    f001fb7b    ..{.    BL       am_hal_gpio_pinconfig ; 0x1a270
        0x00018b7a:    4873        sH      LDR      r0,[pc,#460] ; [0x18d48] = 0x10000214
        0x00018b7c:    6801        .h      LDR      r1,[r0,#0]
        0x00018b7e:    9100        ..      STR      r1,[sp,#0]
        0x00018b80:    2051        Q       MOVS     r0,#0x51
        0x00018b82:    f001fb75    ..u.    BL       am_hal_gpio_pinconfig ; 0x1a270
        0x00018b86:    4868        hH      LDR      r0,[pc,#416] ; [0x18d28] = 0x10000218
        0x00018b88:    6801        .h      LDR      r1,[r0,#0]
        0x00018b8a:    9100        ..      STR      r1,[sp,#0]
        0x00018b8c:    e8bd4008    ...@    POP      {r3,lr}
        0x00018b90:    2052        R       MOVS     r0,#0x52
        0x00018b92:    f001bb6d    ..m.    B.W      am_hal_gpio_pinconfig ; 0x1a270
        0x00018b96:    486d        mH      LDR      r0,[pc,#436] ; [0x18d4c] = 0x100001f4
        0x00018b98:    6801        .h      LDR      r1,[r0,#0]
        0x00018b9a:    9100        ..      STR      r1,[sp,#0]
        0x00018b9c:    2056        V       MOVS     r0,#0x56
        0x00018b9e:    f001fb67    ..g.    BL       am_hal_gpio_pinconfig ; 0x1a270
        0x00018ba2:    4863        cH      LDR      r0,[pc,#396] ; [0x18d30] = 0x100001f8
        0x00018ba4:    6801        .h      LDR      r1,[r0,#0]
        0x00018ba6:    9100        ..      STR      r1,[sp,#0]
        0x00018ba8:    204a        J       MOVS     r0,#0x4a
        0x00018baa:    f001fb61    ..a.    BL       am_hal_gpio_pinconfig ; 0x1a270
        0x00018bae:    4861        aH      LDR      r0,[pc,#388] ; [0x18d34] = 0x100001fc
        0x00018bb0:    6801        .h      LDR      r1,[r0,#0]
        0x00018bb2:    9100        ..      STR      r1,[sp,#0]
        0x00018bb4:    204b        K       MOVS     r0,#0x4b
        0x00018bb6:    f001fb5b    ..[.    BL       am_hal_gpio_pinconfig ; 0x1a270
        0x00018bba:    485f        _H      LDR      r0,[pc,#380] ; [0x18d38] = 0x10000200
        0x00018bbc:    6801        .h      LDR      r1,[r0,#0]
        0x00018bbe:    9100        ..      STR      r1,[sp,#0]
        0x00018bc0:    204c        L       MOVS     r0,#0x4c
        0x00018bc2:    f001fb55    ..U.    BL       am_hal_gpio_pinconfig ; 0x1a270
        0x00018bc6:    4857        WH      LDR      r0,[pc,#348] ; [0x18d24] = 0x10000204
        0x00018bc8:    6801        .h      LDR      r1,[r0,#0]
        0x00018bca:    9100        ..      STR      r1,[sp,#0]
        0x00018bcc:    204d        M       MOVS     r0,#0x4d
        0x00018bce:    f001fb4f    ..O.    BL       am_hal_gpio_pinconfig ; 0x1a270
        0x00018bd2:    485a        ZH      LDR      r0,[pc,#360] ; [0x18d3c] = 0x10000208
        0x00018bd4:    6801        .h      LDR      r1,[r0,#0]
        0x00018bd6:    9100        ..      STR      r1,[sp,#0]
        0x00018bd8:    204e        N       MOVS     r0,#0x4e
        0x00018bda:    f001fb49    ..I.    BL       am_hal_gpio_pinconfig ; 0x1a270
        0x00018bde:    4858        XH      LDR      r0,[pc,#352] ; [0x18d40] = 0x1000020c
        0x00018be0:    6801        .h      LDR      r1,[r0,#0]
        0x00018be2:    9100        ..      STR      r1,[sp,#0]
        0x00018be4:    204f        O       MOVS     r0,#0x4f
        0x00018be6:    f001fb43    ..C.    BL       am_hal_gpio_pinconfig ; 0x1a270
        0x00018bea:    4856        VH      LDR      r0,[pc,#344] ; [0x18d44] = 0x10000210
        0x00018bec:    6801        .h      LDR      r1,[r0,#0]
        0x00018bee:    9100        ..      STR      r1,[sp,#0]
        0x00018bf0:    2050        P       MOVS     r0,#0x50
        0x00018bf2:    f001fb3d    ..=.    BL       am_hal_gpio_pinconfig ; 0x1a270
        0x00018bf6:    4854        TH      LDR      r0,[pc,#336] ; [0x18d48] = 0x10000214
        0x00018bf8:    6801        .h      LDR      r1,[r0,#0]
        0x00018bfa:    9100        ..      STR      r1,[sp,#0]
        0x00018bfc:    2051        Q       MOVS     r0,#0x51
        0x00018bfe:    f001fb37    ..7.    BL       am_hal_gpio_pinconfig ; 0x1a270
        0x00018c02:    4849        IH      LDR      r0,[pc,#292] ; [0x18d28] = 0x10000218
        0x00018c04:    6801        .h      LDR      r1,[r0,#0]
        0x00018c06:    9100        ..      STR      r1,[sp,#0]
        0x00018c08:    e8bd4008    ...@    POP      {r3,lr}
        0x00018c0c:    2052        R       MOVS     r0,#0x52
        0x00018c0e:    f001bb2f    ../.    B.W      am_hal_gpio_pinconfig ; 0x1a270
        0x00018c12:    484f        OH      LDR      r0,[pc,#316] ; [0x18d50] = 0x100001e8
        0x00018c14:    6801        .h      LDR      r1,[r0,#0]
        0x00018c16:    9100        ..      STR      r1,[sp,#0]
        0x00018c18:    2054        T       MOVS     r0,#0x54
        0x00018c1a:    f001fb29    ..).    BL       am_hal_gpio_pinconfig ; 0x1a270
        0x00018c1e:    4844        DH      LDR      r0,[pc,#272] ; [0x18d30] = 0x100001f8
        0x00018c20:    6801        .h      LDR      r1,[r0,#0]
        0x00018c22:    9100        ..      STR      r1,[sp,#0]
        0x00018c24:    204a        J       MOVS     r0,#0x4a
        0x00018c26:    f001fb23    ..#.    BL       am_hal_gpio_pinconfig ; 0x1a270
        0x00018c2a:    4842        BH      LDR      r0,[pc,#264] ; [0x18d34] = 0x100001fc
        0x00018c2c:    6801        .h      LDR      r1,[r0,#0]
        0x00018c2e:    9100        ..      STR      r1,[sp,#0]
        0x00018c30:    204b        K       MOVS     r0,#0x4b
        0x00018c32:    f001fb1d    ....    BL       am_hal_gpio_pinconfig ; 0x1a270
        0x00018c36:    4840        @H      LDR      r0,[pc,#256] ; [0x18d38] = 0x10000200
        0x00018c38:    6801        .h      LDR      r1,[r0,#0]
        0x00018c3a:    9100        ..      STR      r1,[sp,#0]
        0x00018c3c:    204c        L       MOVS     r0,#0x4c
        0x00018c3e:    f001fb17    ....    BL       am_hal_gpio_pinconfig ; 0x1a270
        0x00018c42:    4838        8H      LDR      r0,[pc,#224] ; [0x18d24] = 0x10000204
        0x00018c44:    6801        .h      LDR      r1,[r0,#0]
        0x00018c46:    9100        ..      STR      r1,[sp,#0]
        0x00018c48:    204d        M       MOVS     r0,#0x4d
        0x00018c4a:    f001fb11    ....    BL       am_hal_gpio_pinconfig ; 0x1a270
        0x00018c4e:    483b        ;H      LDR      r0,[pc,#236] ; [0x18d3c] = 0x10000208
        0x00018c50:    6801        .h      LDR      r1,[r0,#0]
        0x00018c52:    9100        ..      STR      r1,[sp,#0]
        0x00018c54:    204e        N       MOVS     r0,#0x4e
        0x00018c56:    f001fb0b    ....    BL       am_hal_gpio_pinconfig ; 0x1a270
        0x00018c5a:    4839        9H      LDR      r0,[pc,#228] ; [0x18d40] = 0x1000020c
        0x00018c5c:    6801        .h      LDR      r1,[r0,#0]
        0x00018c5e:    9100        ..      STR      r1,[sp,#0]
        0x00018c60:    204f        O       MOVS     r0,#0x4f
        0x00018c62:    f001fb05    ....    BL       am_hal_gpio_pinconfig ; 0x1a270
        0x00018c66:    4837        7H      LDR      r0,[pc,#220] ; [0x18d44] = 0x10000210
        0x00018c68:    6801        .h      LDR      r1,[r0,#0]
        0x00018c6a:    9100        ..      STR      r1,[sp,#0]
        0x00018c6c:    2050        P       MOVS     r0,#0x50
        0x00018c6e:    f001faff    ....    BL       am_hal_gpio_pinconfig ; 0x1a270
        0x00018c72:    4835        5H      LDR      r0,[pc,#212] ; [0x18d48] = 0x10000214
        0x00018c74:    6801        .h      LDR      r1,[r0,#0]
        0x00018c76:    9100        ..      STR      r1,[sp,#0]
        0x00018c78:    2051        Q       MOVS     r0,#0x51
        0x00018c7a:    f001faf9    ....    BL       am_hal_gpio_pinconfig ; 0x1a270
        0x00018c7e:    482a        *H      LDR      r0,[pc,#168] ; [0x18d28] = 0x10000218
        0x00018c80:    6801        .h      LDR      r1,[r0,#0]
        0x00018c82:    9100        ..      STR      r1,[sp,#0]
        0x00018c84:    2052        R       MOVS     r0,#0x52
        0x00018c86:    f001faf3    ....    BL       am_hal_gpio_pinconfig ; 0x1a270
        0x00018c8a:    4832        2H      LDR      r0,[pc,#200] ; [0x18d54] = 0x1000021c
        0x00018c8c:    6801        .h      LDR      r1,[r0,#0]
        0x00018c8e:    9100        ..      STR      r1,[sp,#0]
        0x00018c90:    e8bd4008    ...@    POP      {r3,lr}
        0x00018c94:    2053        S       MOVS     r0,#0x53
        0x00018c96:    f001baeb    ....    B.W      am_hal_gpio_pinconfig ; 0x1a270
        0x00018c9a:    482f        /H      LDR      r0,[pc,#188] ; [0x18d58] = 0x100001ec
        0x00018c9c:    6801        .h      LDR      r1,[r0,#0]
        0x00018c9e:    9100        ..      STR      r1,[sp,#0]
        0x00018ca0:    2054        T       MOVS     r0,#0x54
        0x00018ca2:    f001fae5    ....    BL       am_hal_gpio_pinconfig ; 0x1a270
        0x00018ca6:    4822        "H      LDR      r0,[pc,#136] ; [0x18d30] = 0x100001f8
        0x00018ca8:    6801        .h      LDR      r1,[r0,#0]
        0x00018caa:    9100        ..      STR      r1,[sp,#0]
        0x00018cac:    204a        J       MOVS     r0,#0x4a
        0x00018cae:    f001fadf    ....    BL       am_hal_gpio_pinconfig ; 0x1a270
        0x00018cb2:    4820         H      LDR      r0,[pc,#128] ; [0x18d34] = 0x100001fc
        0x00018cb4:    6801        .h      LDR      r1,[r0,#0]
        0x00018cb6:    9100        ..      STR      r1,[sp,#0]
        0x00018cb8:    204b        K       MOVS     r0,#0x4b
        0x00018cba:    f001fad9    ....    BL       am_hal_gpio_pinconfig ; 0x1a270
        0x00018cbe:    481e        .H      LDR      r0,[pc,#120] ; [0x18d38] = 0x10000200
        0x00018cc0:    6801        .h      LDR      r1,[r0,#0]
        0x00018cc2:    9100        ..      STR      r1,[sp,#0]
        0x00018cc4:    204c        L       MOVS     r0,#0x4c
        0x00018cc6:    f001fad3    ....    BL       am_hal_gpio_pinconfig ; 0x1a270
        0x00018cca:    4816        .H      LDR      r0,[pc,#88] ; [0x18d24] = 0x10000204
        0x00018ccc:    6801        .h      LDR      r1,[r0,#0]
        0x00018cce:    9100        ..      STR      r1,[sp,#0]
        0x00018cd0:    204d        M       MOVS     r0,#0x4d
        0x00018cd2:    f001facd    ....    BL       am_hal_gpio_pinconfig ; 0x1a270
        0x00018cd6:    4819        .H      LDR      r0,[pc,#100] ; [0x18d3c] = 0x10000208
        0x00018cd8:    6801        .h      LDR      r1,[r0,#0]
        0x00018cda:    9100        ..      STR      r1,[sp,#0]
        0x00018cdc:    204e        N       MOVS     r0,#0x4e
        0x00018cde:    f001fac7    ....    BL       am_hal_gpio_pinconfig ; 0x1a270
        0x00018ce2:    4817        .H      LDR      r0,[pc,#92] ; [0x18d40] = 0x1000020c
        0x00018ce4:    6801        .h      LDR      r1,[r0,#0]
        0x00018ce6:    9100        ..      STR      r1,[sp,#0]
        0x00018ce8:    204f        O       MOVS     r0,#0x4f
        0x00018cea:    f001fac1    ....    BL       am_hal_gpio_pinconfig ; 0x1a270
        0x00018cee:    4815        .H      LDR      r0,[pc,#84] ; [0x18d44] = 0x10000210
        0x00018cf0:    6801        .h      LDR      r1,[r0,#0]
        0x00018cf2:    9100        ..      STR      r1,[sp,#0]
        0x00018cf4:    2050        P       MOVS     r0,#0x50
        0x00018cf6:    f001fabb    ....    BL       am_hal_gpio_pinconfig ; 0x1a270
        0x00018cfa:    4813        .H      LDR      r0,[pc,#76] ; [0x18d48] = 0x10000214
        0x00018cfc:    6801        .h      LDR      r1,[r0,#0]
        0x00018cfe:    9100        ..      STR      r1,[sp,#0]
        0x00018d00:    2051        Q       MOVS     r0,#0x51
        0x00018d02:    f001fab5    ....    BL       am_hal_gpio_pinconfig ; 0x1a270
        0x00018d06:    4808        .H      LDR      r0,[pc,#32] ; [0x18d28] = 0x10000218
        0x00018d08:    6801        .h      LDR      r1,[r0,#0]
        0x00018d0a:    9100        ..      STR      r1,[sp,#0]
        0x00018d0c:    2052        R       MOVS     r0,#0x52
        0x00018d0e:    f001faaf    ....    BL       am_hal_gpio_pinconfig ; 0x1a270
        0x00018d12:    4810        .H      LDR      r0,[pc,#64] ; [0x18d54] = 0x1000021c
        0x00018d14:    6801        .h      LDR      r1,[r0,#0]
        0x00018d16:    9100        ..      STR      r1,[sp,#0]
        0x00018d18:    e8bd4008    ...@    POP      {r3,lr}
        0x00018d1c:    2053        S       MOVS     r0,#0x53
        0x00018d1e:    f001baa7    ....    B.W      am_hal_gpio_pinconfig ; 0x1a270
        0x00018d22:    bd08        ..      POP      {r3,pc}
    $d
        0x00018d24:    10000204    ....    DCD    268435972
        0x00018d28:    10000218    ....    DCD    268435992
        0x00018d2c:    100001f0    ....    DCD    268435952
        0x00018d30:    100001f8    ....    DCD    268435960
        0x00018d34:    100001fc    ....    DCD    268435964
        0x00018d38:    10000200    ....    DCD    268435968
        0x00018d3c:    10000208    ....    DCD    268435976
        0x00018d40:    1000020c    ....    DCD    268435980
        0x00018d44:    10000210    ....    DCD    268435984
        0x00018d48:    10000214    ....    DCD    268435988
        0x00018d4c:    100001f4    ....    DCD    268435956
        0x00018d50:    100001e8    ....    DCD    268435944
        0x00018d54:    1000021c    ....    DCD    268435996
        0x00018d58:    100001ec    ....    DCD    268435948
    $t
    i.am_device_deinit_flash
    am_device_deinit_flash
        0x00018d5c:    b570        p.      PUSH     {r4-r6,lr}
        0x00018d5e:    b0a2        ..      SUB      sp,sp,#0x88
        0x00018d60:    4605        .F      MOV      r5,r0
        0x00018d62:    462e        .F      MOV      r6,r5
        0x00018d64:    2180        .!      MOVS     r1,#0x80
        0x00018d66:    a802        ..      ADD      r0,sp,#8
        0x00018d68:    f7fffb9b    ....    BL       __aeabi_memclr4 ; 0x184a2
        0x00018d6c:    2000        .       MOVS     r0,#0
        0x00018d6e:    a902        ..      ADD      r1,sp,#8
        0x00018d70:    4603        .F      MOV      r3,r0
        0x00018d72:    4602        .F      MOV      r2,r0
        0x00018d74:    e9cd1000    ....    STRD     r1,r0,[sp,#0]
        0x00018d78:    2106        .!      MOVS     r1,#6
        0x00018d7a:    4628        (F      MOV      r0,r5
        0x00018d7c:    f000f8de    ....    BL       am_devices_mspi_atxp032_command_write ; 0x18f3c
        0x00018d80:    4604        .F      MOV      r4,r0
        0x00018d82:    b114        ..      CBZ      r4,0x18d8a ; am_device_deinit_flash + 46
        0x00018d84:    2001        .       MOVS     r0,#1
        0x00018d86:    b022        ".      ADD      sp,sp,#0x88
        0x00018d88:    bd70        p.      POP      {r4-r6,pc}
        0x00018d8a:    7c30        0|      LDRB     r0,[r6,#0x10]
        0x00018d8c:    2808        .(      CMP      r0,#8
        0x00018d8e:    d219        ..      BCS      0x18dc4 ; am_device_deinit_flash + 104
        0x00018d90:    e8dff000    ....    TBB      [pc,r0]
    $d
        0x00018d94:    18180504    ....    DCD    404227332
        0x00018d98:    09080706    ....    DCD    151521030
    $t
        0x00018d9c:    bf00        ..      NOP      
        0x00018d9e:    e013        ..      B        0x18dc8 ; am_device_deinit_flash + 108
        0x00018da0:    bf00        ..      NOP      
        0x00018da2:    bf00        ..      NOP      
        0x00018da4:    bf00        ..      NOP      
        0x00018da6:    2000        .       MOVS     r0,#0
        0x00018da8:    a902        ..      ADD      r1,sp,#8
        0x00018daa:    4603        .F      MOV      r3,r0
        0x00018dac:    4602        .F      MOV      r2,r0
        0x00018dae:    e9cd1000    ....    STRD     r1,r0,[sp,#0]
        0x00018db2:    21ff        .!      MOVS     r1,#0xff
        0x00018db4:    4628        (F      MOV      r0,r5
        0x00018db6:    f000f8c1    ....    BL       am_devices_mspi_atxp032_command_write ; 0x18f3c
        0x00018dba:    4604        .F      MOV      r4,r0
        0x00018dbc:    b10c        ..      CBZ      r4,0x18dc2 ; am_device_deinit_flash + 102
        0x00018dbe:    2001        .       MOVS     r0,#1
        0x00018dc0:    e7e1        ..      B        0x18d86 ; am_device_deinit_flash + 42
        0x00018dc2:    e001        ..      B        0x18dc8 ; am_device_deinit_flash + 108
        0x00018dc4:    2001        .       MOVS     r0,#1
        0x00018dc6:    e7de        ..      B        0x18d86 ; am_device_deinit_flash + 42
        0x00018dc8:    bf00        ..      NOP      
        0x00018dca:    2000        .       MOVS     r0,#0
        0x00018dcc:    a902        ..      ADD      r1,sp,#8
        0x00018dce:    4603        .F      MOV      r3,r0
        0x00018dd0:    4602        .F      MOV      r2,r0
        0x00018dd2:    e9cd1000    ....    STRD     r1,r0,[sp,#0]
        0x00018dd6:    2104        .!      MOVS     r1,#4
        0x00018dd8:    4628        (F      MOV      r0,r5
        0x00018dda:    f000f8af    ....    BL       am_devices_mspi_atxp032_command_write ; 0x18f3c
        0x00018dde:    4604        .F      MOV      r4,r0
        0x00018de0:    b10c        ..      CBZ      r4,0x18de6 ; am_device_deinit_flash + 138
        0x00018de2:    2001        .       MOVS     r0,#1
        0x00018de4:    e7cf        ..      B        0x18d86 ; am_device_deinit_flash + 42
        0x00018de6:    2000        .       MOVS     r0,#0
        0x00018de8:    e7cd        ..      B        0x18d86 ; am_device_deinit_flash + 42
    i.am_device_init_flash
    am_device_init_flash
        0x00018dea:    b530        0.      PUSH     {r4,r5,lr}
        0x00018dec:    b0a3        ..      SUB      sp,sp,#0x8c
        0x00018dee:    4604        .F      MOV      r4,r0
        0x00018df0:    2180        .!      MOVS     r1,#0x80
        0x00018df2:    a803        ..      ADD      r0,sp,#0xc
        0x00018df4:    f7fffb55    ..U.    BL       __aeabi_memclr4 ; 0x184a2
        0x00018df8:    4625        %F      MOV      r5,r4
        0x00018dfa:    2000        .       MOVS     r0,#0
        0x00018dfc:    a903        ..      ADD      r1,sp,#0xc
        0x00018dfe:    4603        .F      MOV      r3,r0
        0x00018e00:    4602        .F      MOV      r2,r0
        0x00018e02:    e9cd1000    ....    STRD     r1,r0,[sp,#0]
        0x00018e06:    2106        .!      MOVS     r1,#6
        0x00018e08:    4620         F      MOV      r0,r4
        0x00018e0a:    f000f897    ....    BL       am_devices_mspi_atxp032_command_write ; 0x18f3c
        0x00018e0e:    2003        .       MOVS     r0,#3
        0x00018e10:    9003        ..      STR      r0,[sp,#0xc]
        0x00018e12:    2002        .       MOVS     r0,#2
        0x00018e14:    a903        ..      ADD      r1,sp,#0xc
        0x00018e16:    2300        .#      MOVS     r3,#0
        0x00018e18:    461a        .F      MOV      r2,r3
        0x00018e1a:    e9cd1000    ....    STRD     r1,r0,[sp,#0]
        0x00018e1e:    2171        q!      MOVS     r1,#0x71
        0x00018e20:    4620         F      MOV      r0,r4
        0x00018e22:    f000f88b    ....    BL       am_devices_mspi_atxp032_command_write ; 0x18f3c
        0x00018e26:    2000        .       MOVS     r0,#0
        0x00018e28:    a903        ..      ADD      r1,sp,#0xc
        0x00018e2a:    4603        .F      MOV      r3,r0
        0x00018e2c:    4602        .F      MOV      r2,r0
        0x00018e2e:    e9cd1000    ....    STRD     r1,r0,[sp,#0]
        0x00018e32:    2106        .!      MOVS     r1,#6
        0x00018e34:    4620         F      MOV      r0,r4
        0x00018e36:    f000f881    ....    BL       am_devices_mspi_atxp032_command_write ; 0x18f3c
        0x00018e3a:    7c28        (|      LDRB     r0,[r5,#0x10]
        0x00018e3c:    2808        .(      CMP      r0,#8
        0x00018e3e:    d229        ).      BCS      0x18e94 ; am_device_init_flash + 170
        0x00018e40:    e8dff000    ....    TBB      [pc,r0]
    $d
        0x00018e44:    28280504    ..((    DCD    673711364
        0x00018e48:    1d1c1110    ....    DCD    488378640
    $t
        0x00018e4c:    bf00        ..      NOP      
        0x00018e4e:    2000        .       MOVS     r0,#0
        0x00018e50:    a903        ..      ADD      r1,sp,#0xc
        0x00018e52:    4603        .F      MOV      r3,r0
        0x00018e54:    4602        .F      MOV      r2,r0
        0x00018e56:    e9cd1000    ....    STRD     r1,r0,[sp,#0]
        0x00018e5a:    21ff        .!      MOVS     r1,#0xff
        0x00018e5c:    4620         F      MOV      r0,r4
        0x00018e5e:    f000f86d    ..m.    BL       am_devices_mspi_atxp032_command_write ; 0x18f3c
        0x00018e62:    e01a        ..      B        0x18e9a ; am_device_init_flash + 176
        0x00018e64:    bf00        ..      NOP      
        0x00018e66:    2000        .       MOVS     r0,#0
        0x00018e68:    a903        ..      ADD      r1,sp,#0xc
        0x00018e6a:    4603        .F      MOV      r3,r0
        0x00018e6c:    4602        .F      MOV      r2,r0
        0x00018e6e:    e9cd1000    ....    STRD     r1,r0,[sp,#0]
        0x00018e72:    2138        8!      MOVS     r1,#0x38
        0x00018e74:    4620         F      MOV      r0,r4
        0x00018e76:    f000f861    ..a.    BL       am_devices_mspi_atxp032_command_write ; 0x18f3c
        0x00018e7a:    e00e        ..      B        0x18e9a ; am_device_init_flash + 176
        0x00018e7c:    bf00        ..      NOP      
        0x00018e7e:    2000        .       MOVS     r0,#0
        0x00018e80:    a903        ..      ADD      r1,sp,#0xc
        0x00018e82:    4603        .F      MOV      r3,r0
        0x00018e84:    4602        .F      MOV      r2,r0
        0x00018e86:    e9cd1000    ....    STRD     r1,r0,[sp,#0]
        0x00018e8a:    21e8        .!      MOVS     r1,#0xe8
        0x00018e8c:    4620         F      MOV      r0,r4
        0x00018e8e:    f000f855    ..U.    BL       am_devices_mspi_atxp032_command_write ; 0x18f3c
        0x00018e92:    e002        ..      B        0x18e9a ; am_device_init_flash + 176
        0x00018e94:    2001        .       MOVS     r0,#1
        0x00018e96:    b023        #.      ADD      sp,sp,#0x8c
        0x00018e98:    bd30        0.      POP      {r4,r5,pc}
        0x00018e9a:    bf00        ..      NOP      
        0x00018e9c:    2000        .       MOVS     r0,#0
        0x00018e9e:    e7fa        ..      B        0x18e96 ; am_device_init_flash + 172
    i.am_devices_mspi_atxp032_command_read
    am_devices_mspi_atxp032_command_read
        0x00018ea0:    e92d4ff0    -..O    PUSH     {r4-r11,lr}
        0x00018ea4:    b087        ..      SUB      sp,sp,#0x1c
        0x00018ea6:    4606        .F      MOV      r6,r0
        0x00018ea8:    460f        .F      MOV      r7,r1
        0x00018eaa:    4690        .F      MOV      r8,r2
        0x00018eac:    4699        .F      MOV      r9,r3
        0x00018eae:    e9ddab10    ....    LDRD     r10,r11,[sp,#0x40]
        0x00018eb2:    4634        4F      MOV      r4,r6
        0x00018eb4:    2118        .!      MOVS     r1,#0x18
        0x00018eb6:    a801        ..      ADD      r0,sp,#4
        0x00018eb8:    f7fffaf3    ....    BL       __aeabi_memclr4 ; 0x184a2
        0x00018ebc:    7ce0        .|      LDRB     r0,[r4,#0x13]
        0x00018ebe:    2801        .(      CMP      r0,#1
        0x00018ec0:    d10c        ..      BNE      0x18edc ; am_devices_mspi_atxp032_command_read + 60
        0x00018ec2:    2002        .       MOVS     r0,#2
        0x00018ec4:    9000        ..      STR      r0,[sp,#0]
        0x00018ec6:    466a        jF      MOV      r2,sp
        0x00018ec8:    2111        .!      MOVS     r1,#0x11
        0x00018eca:    6860        `h      LDR      r0,[r4,#4]
        0x00018ecc:    f001fbdc    ....    BL       am_hal_mspi_control ; 0x1a688
        0x00018ed0:    4605        .F      MOV      r5,r0
        0x00018ed2:    b11d        ..      CBZ      r5,0x18edc ; am_devices_mspi_atxp032_command_read + 60
        0x00018ed4:    4628        (F      MOV      r0,r5
        0x00018ed6:    b007        ..      ADD      sp,sp,#0x1c
        0x00018ed8:    e8bd8ff0    ....    POP      {r4-r11,pc}
        0x00018edc:    2000        .       MOVS     r0,#0
        0x00018ede:    f88d000a    ....    STRB     r0,[sp,#0xa]
        0x00018ee2:    f88d800b    ....    STRB     r8,[sp,#0xb]
        0x00018ee6:    f8cd900c    ....    STR      r9,[sp,#0xc]
        0x00018eea:    2001        .       MOVS     r0,#1
        0x00018eec:    f88d0010    ....    STRB     r0,[sp,#0x10]
        0x00018ef0:    f8ad7012    ...p    STRH     r7,[sp,#0x12]
        0x00018ef4:    2000        .       MOVS     r0,#0
        0x00018ef6:    f88d0014    ....    STRB     r0,[sp,#0x14]
        0x00018efa:    f8cdb004    ....    STR      r11,[sp,#4]
        0x00018efe:    f8cda018    ....    STR      r10,[sp,#0x18]
        0x00018f02:    f88d0009    ....    STRB     r0,[sp,#9]
        0x00018f06:    f88d0015    ....    STRB     r0,[sp,#0x15]
        0x00018f0a:    f88d0016    ....    STRB     r0,[sp,#0x16]
        0x00018f0e:    4a0a        .J      LDR      r2,[pc,#40] ; [0x18f38] = 0xf4240
        0x00018f10:    a901        ..      ADD      r1,sp,#4
        0x00018f12:    6860        `h      LDR      r0,[r4,#4]
        0x00018f14:    f001fa62    ..b.    BL       am_hal_mspi_blocking_transfer ; 0x1a3dc
        0x00018f18:    4605        .F      MOV      r5,r0
        0x00018f1a:    b10d        ..      CBZ      r5,0x18f20 ; am_devices_mspi_atxp032_command_read + 128
        0x00018f1c:    4628        (F      MOV      r0,r5
        0x00018f1e:    e7da        ..      B        0x18ed6 ; am_devices_mspi_atxp032_command_read + 54
        0x00018f20:    7ce0        .|      LDRB     r0,[r4,#0x13]
        0x00018f22:    2801        .(      CMP      r0,#1
        0x00018f24:    d106        ..      BNE      0x18f34 ; am_devices_mspi_atxp032_command_read + 148
        0x00018f26:    9000        ..      STR      r0,[sp,#0]
        0x00018f28:    466a        jF      MOV      r2,sp
        0x00018f2a:    2111        .!      MOVS     r1,#0x11
        0x00018f2c:    6860        `h      LDR      r0,[r4,#4]
        0x00018f2e:    f001fbab    ....    BL       am_hal_mspi_control ; 0x1a688
        0x00018f32:    4605        .F      MOV      r5,r0
        0x00018f34:    4628        (F      MOV      r0,r5
        0x00018f36:    e7ce        ..      B        0x18ed6 ; am_devices_mspi_atxp032_command_read + 54
    $d
        0x00018f38:    000f4240    @B..    DCD    1000000
    $t
    i.am_devices_mspi_atxp032_command_write
    am_devices_mspi_atxp032_command_write
        0x00018f3c:    e92d4ff0    -..O    PUSH     {r4-r11,lr}
        0x00018f40:    b087        ..      SUB      sp,sp,#0x1c
        0x00018f42:    4606        .F      MOV      r6,r0
        0x00018f44:    460f        .F      MOV      r7,r1
        0x00018f46:    4690        .F      MOV      r8,r2
        0x00018f48:    4699        .F      MOV      r9,r3
        0x00018f4a:    e9ddab10    ....    LDRD     r10,r11,[sp,#0x40]
        0x00018f4e:    4634        4F      MOV      r4,r6
        0x00018f50:    2118        .!      MOVS     r1,#0x18
        0x00018f52:    a801        ..      ADD      r0,sp,#4
        0x00018f54:    f7fffaa5    ....    BL       __aeabi_memclr4 ; 0x184a2
        0x00018f58:    7ce0        .|      LDRB     r0,[r4,#0x13]
        0x00018f5a:    2801        .(      CMP      r0,#1
        0x00018f5c:    d10c        ..      BNE      0x18f78 ; am_devices_mspi_atxp032_command_write + 60
        0x00018f5e:    2002        .       MOVS     r0,#2
        0x00018f60:    9000        ..      STR      r0,[sp,#0]
        0x00018f62:    466a        jF      MOV      r2,sp
        0x00018f64:    2111        .!      MOVS     r1,#0x11
        0x00018f66:    6860        `h      LDR      r0,[r4,#4]
        0x00018f68:    f001fb8e    ....    BL       am_hal_mspi_control ; 0x1a688
        0x00018f6c:    4605        .F      MOV      r5,r0
        0x00018f6e:    b11d        ..      CBZ      r5,0x18f78 ; am_devices_mspi_atxp032_command_write + 60
        0x00018f70:    4628        (F      MOV      r0,r5
        0x00018f72:    b007        ..      ADD      sp,sp,#0x1c
        0x00018f74:    e8bd8ff0    ....    POP      {r4-r11,pc}
        0x00018f78:    f8cdb004    ....    STR      r11,[sp,#4]
        0x00018f7c:    2001        .       MOVS     r0,#1
        0x00018f7e:    f88d000a    ....    STRB     r0,[sp,#0xa]
        0x00018f82:    f88d800b    ....    STRB     r8,[sp,#0xb]
        0x00018f86:    f8cd900c    ....    STR      r9,[sp,#0xc]
        0x00018f8a:    f88d0010    ....    STRB     r0,[sp,#0x10]
        0x00018f8e:    f8ad7012    ...p    STRH     r7,[sp,#0x12]
        0x00018f92:    2000        .       MOVS     r0,#0
        0x00018f94:    f88d0014    ....    STRB     r0,[sp,#0x14]
        0x00018f98:    f8cda018    ....    STR      r10,[sp,#0x18]
        0x00018f9c:    f88d0009    ....    STRB     r0,[sp,#9]
        0x00018fa0:    f88d0015    ....    STRB     r0,[sp,#0x15]
        0x00018fa4:    f88d0016    ....    STRB     r0,[sp,#0x16]
        0x00018fa8:    4a0a        .J      LDR      r2,[pc,#40] ; [0x18fd4] = 0xf4240
        0x00018faa:    a901        ..      ADD      r1,sp,#4
        0x00018fac:    6860        `h      LDR      r0,[r4,#4]
        0x00018fae:    f001fa15    ....    BL       am_hal_mspi_blocking_transfer ; 0x1a3dc
        0x00018fb2:    4605        .F      MOV      r5,r0
        0x00018fb4:    b10d        ..      CBZ      r5,0x18fba ; am_devices_mspi_atxp032_command_write + 126
        0x00018fb6:    4628        (F      MOV      r0,r5
        0x00018fb8:    e7db        ..      B        0x18f72 ; am_devices_mspi_atxp032_command_write + 54
        0x00018fba:    7ce0        .|      LDRB     r0,[r4,#0x13]
        0x00018fbc:    2801        .(      CMP      r0,#1
        0x00018fbe:    d106        ..      BNE      0x18fce ; am_devices_mspi_atxp032_command_write + 146
        0x00018fc0:    9000        ..      STR      r0,[sp,#0]
        0x00018fc2:    466a        jF      MOV      r2,sp
        0x00018fc4:    2111        .!      MOVS     r1,#0x11
        0x00018fc6:    6860        `h      LDR      r0,[r4,#4]
        0x00018fc8:    f001fb5e    ..^.    BL       am_hal_mspi_control ; 0x1a688
        0x00018fcc:    4605        .F      MOV      r5,r0
        0x00018fce:    4628        (F      MOV      r0,r5
        0x00018fd0:    e7cf        ..      B        0x18f72 ; am_devices_mspi_atxp032_command_write + 54
    $d
        0x00018fd2:    0000        ..      DCW    0
        0x00018fd4:    000f4240    @B..    DCD    1000000
    $t
    i.am_devices_mspi_atxp032_deinit
    am_devices_mspi_atxp032_deinit
        0x00018fd8:    b570        p.      PUSH     {r4-r6,lr}
        0x00018fda:    4606        .F      MOV      r6,r0
        0x00018fdc:    4634        4F      MOV      r4,r6
        0x00018fde:    4630        0F      MOV      r0,r6
        0x00018fe0:    f7fffebc    ....    BL       am_device_deinit_flash ; 0x18d5c
        0x00018fe4:    4605        .F      MOV      r5,r0
        0x00018fe6:    b10d        ..      CBZ      r5,0x18fec ; am_devices_mspi_atxp032_deinit + 20
        0x00018fe8:    2001        .       MOVS     r0,#1
        0x00018fea:    bd70        p.      POP      {r4-r6,pc}
        0x00018fec:    4630        0F      MOV      r0,r6
        0x00018fee:    f000fb8d    ....    BL       am_devices_mspi_atxp032_reset ; 0x1970c
        0x00018ff2:    b108        ..      CBZ      r0,0x18ff8 ; am_devices_mspi_atxp032_deinit + 32
        0x00018ff4:    2001        .       MOVS     r0,#1
        0x00018ff6:    e7f8        ..      B        0x18fea ; am_devices_mspi_atxp032_deinit + 18
        0x00018ff8:    f04f31ff    O..1    MOV      r1,#0xffffffff
        0x00018ffc:    6860        `h      LDR      r0,[r4,#4]
        0x00018ffe:    f002fa6d    ..m.    BL       am_hal_mspi_interrupt_disable ; 0x1b4dc
        0x00019002:    4605        .F      MOV      r5,r0
        0x00019004:    b10d        ..      CBZ      r5,0x1900a ; am_devices_mspi_atxp032_deinit + 50
        0x00019006:    2001        .       MOVS     r0,#1
        0x00019008:    e7ef        ..      B        0x18fea ; am_devices_mspi_atxp032_deinit + 18
        0x0001900a:    f04f31ff    O..1    MOV      r1,#0xffffffff
        0x0001900e:    6860        `h      LDR      r0,[r4,#4]
        0x00019010:    f002fa4a    ..J.    BL       am_hal_mspi_interrupt_clear ; 0x1b4a8
        0x00019014:    4605        .F      MOV      r5,r0
        0x00019016:    b10d        ..      CBZ      r5,0x1901c ; am_devices_mspi_atxp032_deinit + 68
        0x00019018:    2001        .       MOVS     r0,#1
        0x0001901a:    e7e6        ..      B        0x18fea ; am_devices_mspi_atxp032_deinit + 18
        0x0001901c:    6860        `h      LDR      r0,[r4,#4]
        0x0001901e:    f002f989    ....    BL       am_hal_mspi_disable ; 0x1b334
        0x00019022:    4605        .F      MOV      r5,r0
        0x00019024:    b10d        ..      CBZ      r5,0x1902a ; am_devices_mspi_atxp032_deinit + 82
        0x00019026:    2001        .       MOVS     r0,#1
        0x00019028:    e7df        ..      B        0x18fea ; am_devices_mspi_atxp032_deinit + 18
        0x0001902a:    2200        ."      MOVS     r2,#0
        0x0001902c:    2102        .!      MOVS     r1,#2
        0x0001902e:    6860        `h      LDR      r0,[r4,#4]
        0x00019030:    f002fcc0    ....    BL       am_hal_mspi_power_control ; 0x1b9b4
        0x00019034:    b120         .      CBZ      r0,0x19040 ; am_devices_mspi_atxp032_deinit + 104
        0x00019036:    a008        ..      ADR      r0,{pc}+0x22 ; 0x19058
        0x00019038:    f003fd8a    ....    BL       am_util_stdio_printf ; 0x1cb50
        0x0001903c:    2001        .       MOVS     r0,#1
        0x0001903e:    e7d4        ..      B        0x18fea ; am_devices_mspi_atxp032_deinit + 18
        0x00019040:    6860        `h      LDR      r0,[r4,#4]
        0x00019042:    f002f813    ....    BL       am_hal_mspi_deinitialize ; 0x1b06c
        0x00019046:    4605        .F      MOV      r5,r0
        0x00019048:    b10d        ..      CBZ      r5,0x1904e ; am_devices_mspi_atxp032_deinit + 118
        0x0001904a:    2001        .       MOVS     r0,#1
        0x0001904c:    e7cd        ..      B        0x18fea ; am_devices_mspi_atxp032_deinit + 18
        0x0001904e:    2000        .       MOVS     r0,#0
        0x00019050:    77a0        .w      STRB     r0,[r4,#0x1e]
        0x00019052:    bf00        ..      NOP      
        0x00019054:    e7c9        ..      B        0x18fea ; am_devices_mspi_atxp032_deinit + 18
    $d
        0x00019056:    0000        ..      DCW    0
        0x00019058:    6f727245    Erro    DCD    1869771333
        0x0001905c:    202d2072    r -     DCD    539828338
        0x00019060:    6c696146    Fail    DCD    1818845510
        0x00019064:    74206465    ed t    DCD    1948279909
        0x00019068:    6f70206f    o po    DCD    1869619311
        0x0001906c:    20726577    wer     DCD    544367991
        0x00019070:    4d206e6f    on M    DCD    1293971055
        0x00019074:    2e495053    SPI.    DCD    776556627
        0x00019078:    0000000a    ....    DCD    10
    $t
    i.am_devices_mspi_atxp032_disable_scrambling
    am_devices_mspi_atxp032_disable_scrambling
        0x0001907c:    b570        p.      PUSH     {r4-r6,lr}
        0x0001907e:    b0a2        ..      SUB      sp,sp,#0x88
        0x00019080:    4604        .F      MOV      r4,r0
        0x00019082:    4626        &F      MOV      r6,r4
        0x00019084:    2180        .!      MOVS     r1,#0x80
        0x00019086:    a802        ..      ADD      r0,sp,#8
        0x00019088:    f7fffa0b    ....    BL       __aeabi_memclr4 ; 0x184a2
        0x0001908c:    2000        .       MOVS     r0,#0
        0x0001908e:    a902        ..      ADD      r1,sp,#8
        0x00019090:    4603        .F      MOV      r3,r0
        0x00019092:    4602        .F      MOV      r2,r0
        0x00019094:    e9cd1000    ....    STRD     r1,r0,[sp,#0]
        0x00019098:    2106        .!      MOVS     r1,#6
        0x0001909a:    4620         F      MOV      r0,r4
        0x0001909c:    f7ffff4e    ..N.    BL       am_devices_mspi_atxp032_command_write ; 0x18f3c
        0x000190a0:    4605        .F      MOV      r5,r0
        0x000190a2:    b115        ..      CBZ      r5,0x190aa ; am_devices_mspi_atxp032_disable_scrambling + 46
        0x000190a4:    2001        .       MOVS     r0,#1
        0x000190a6:    b022        ".      ADD      sp,sp,#0x88
        0x000190a8:    bd70        p.      POP      {r4-r6,pc}
        0x000190aa:    4b07        .K      LDR      r3,[pc,#28] ; [0x190c8] = 0x10000054
        0x000190ac:    6831        1h      LDR      r1,[r6,#0]
        0x000190ae:    eb031201    ....    ADD      r2,r3,r1,LSL #4
        0x000190b2:    2106        .!      MOVS     r1,#6
        0x000190b4:    6870        ph      LDR      r0,[r6,#4]
        0x000190b6:    f001fae7    ....    BL       am_hal_mspi_control ; 0x1a688
        0x000190ba:    4605        .F      MOV      r5,r0
        0x000190bc:    b10d        ..      CBZ      r5,0x190c2 ; am_devices_mspi_atxp032_disable_scrambling + 70
        0x000190be:    2001        .       MOVS     r0,#1
        0x000190c0:    e7f1        ..      B        0x190a6 ; am_devices_mspi_atxp032_disable_scrambling + 42
        0x000190c2:    2000        .       MOVS     r0,#0
        0x000190c4:    e7ef        ..      B        0x190a6 ; am_devices_mspi_atxp032_disable_scrambling + 42
    $d
        0x000190c6:    0000        ..      DCW    0
        0x000190c8:    10000054    T...    DCD    268435540
    $t
    i.am_devices_mspi_atxp032_disable_xip
    am_devices_mspi_atxp032_disable_xip
        0x000190cc:    b570        p.      PUSH     {r4-r6,lr}
        0x000190ce:    b0a2        ..      SUB      sp,sp,#0x88
        0x000190d0:    4604        .F      MOV      r4,r0
        0x000190d2:    4626        &F      MOV      r6,r4
        0x000190d4:    2180        .!      MOVS     r1,#0x80
        0x000190d6:    a802        ..      ADD      r0,sp,#8
        0x000190d8:    f7fff9e3    ....    BL       __aeabi_memclr4 ; 0x184a2
        0x000190dc:    2000        .       MOVS     r0,#0
        0x000190de:    a902        ..      ADD      r1,sp,#8
        0x000190e0:    4603        .F      MOV      r3,r0
        0x000190e2:    4602        .F      MOV      r2,r0
        0x000190e4:    e9cd1000    ....    STRD     r1,r0,[sp,#0]
        0x000190e8:    2106        .!      MOVS     r1,#6
        0x000190ea:    4620         F      MOV      r0,r4
        0x000190ec:    f7ffff26    ..&.    BL       am_devices_mspi_atxp032_command_write ; 0x18f3c
        0x000190f0:    4605        .F      MOV      r5,r0
        0x000190f2:    b115        ..      CBZ      r5,0x190fa ; am_devices_mspi_atxp032_disable_xip + 46
        0x000190f4:    2001        .       MOVS     r0,#1
        0x000190f6:    b022        ".      ADD      sp,sp,#0x88
        0x000190f8:    bd70        p.      POP      {r4-r6,pc}
        0x000190fa:    4b07        .K      LDR      r3,[pc,#28] ; [0x19118] = 0x10000054
        0x000190fc:    6831        1h      LDR      r1,[r6,#0]
        0x000190fe:    eb031201    ....    ADD      r2,r3,r1,LSL #4
        0x00019102:    210e        .!      MOVS     r1,#0xe
        0x00019104:    6870        ph      LDR      r0,[r6,#4]
        0x00019106:    f001fabf    ....    BL       am_hal_mspi_control ; 0x1a688
        0x0001910a:    4605        .F      MOV      r5,r0
        0x0001910c:    b10d        ..      CBZ      r5,0x19112 ; am_devices_mspi_atxp032_disable_xip + 70
        0x0001910e:    2001        .       MOVS     r0,#1
        0x00019110:    e7f1        ..      B        0x190f6 ; am_devices_mspi_atxp032_disable_xip + 42
        0x00019112:    2000        .       MOVS     r0,#0
        0x00019114:    e7ef        ..      B        0x190f6 ; am_devices_mspi_atxp032_disable_xip + 42
    $d
        0x00019116:    0000        ..      DCW    0
        0x00019118:    10000054    T...    DCD    268435540
    $t
    i.am_devices_mspi_atxp032_enable_scrambling
    am_devices_mspi_atxp032_enable_scrambling
        0x0001911c:    b570        p.      PUSH     {r4-r6,lr}
        0x0001911e:    4604        .F      MOV      r4,r0
        0x00019120:    4625        %F      MOV      r5,r4
        0x00019122:    4b07        .K      LDR      r3,[pc,#28] ; [0x19140] = 0x10000054
        0x00019124:    6829        )h      LDR      r1,[r5,#0]
        0x00019126:    eb031201    ....    ADD      r2,r3,r1,LSL #4
        0x0001912a:    2107        .!      MOVS     r1,#7
        0x0001912c:    6868        hh      LDR      r0,[r5,#4]
        0x0001912e:    f001faab    ....    BL       am_hal_mspi_control ; 0x1a688
        0x00019132:    4606        .F      MOV      r6,r0
        0x00019134:    b10e        ..      CBZ      r6,0x1913a ; am_devices_mspi_atxp032_enable_scrambling + 30
        0x00019136:    2001        .       MOVS     r0,#1
        0x00019138:    bd70        p.      POP      {r4-r6,pc}
        0x0001913a:    2000        .       MOVS     r0,#0
        0x0001913c:    e7fc        ..      B        0x19138 ; am_devices_mspi_atxp032_enable_scrambling + 28
    $d
        0x0001913e:    0000        ..      DCW    0
        0x00019140:    10000054    T...    DCD    268435540
    $t
    i.am_devices_mspi_atxp032_enable_xip
    am_devices_mspi_atxp032_enable_xip
        0x00019144:    b570        p.      PUSH     {r4-r6,lr}
        0x00019146:    4605        .F      MOV      r5,r0
        0x00019148:    462c        ,F      MOV      r4,r5
        0x0001914a:    4b11        .K      LDR      r3,[pc,#68] ; [0x19190] = 0x10000054
        0x0001914c:    6821        !h      LDR      r1,[r4,#0]
        0x0001914e:    eb031201    ....    ADD      r2,r3,r1,LSL #4
        0x00019152:    210c        .!      MOVS     r1,#0xc
        0x00019154:    6860        `h      LDR      r0,[r4,#4]
        0x00019156:    f001fa97    ....    BL       am_hal_mspi_control ; 0x1a688
        0x0001915a:    4606        .F      MOV      r6,r0
        0x0001915c:    b10e        ..      CBZ      r6,0x19162 ; am_devices_mspi_atxp032_enable_xip + 30
        0x0001915e:    2001        .       MOVS     r0,#1
        0x00019160:    bd70        p.      POP      {r4-r6,pc}
        0x00019162:    4b0b        .K      LDR      r3,[pc,#44] ; [0x19190] = 0x10000054
        0x00019164:    6821        !h      LDR      r1,[r4,#0]
        0x00019166:    eb031201    ....    ADD      r2,r3,r1,LSL #4
        0x0001916a:    210f        .!      MOVS     r1,#0xf
        0x0001916c:    6860        `h      LDR      r0,[r4,#4]
        0x0001916e:    f001fa8b    ....    BL       am_hal_mspi_control ; 0x1a688
        0x00019172:    4606        .F      MOV      r6,r0
        0x00019174:    b10e        ..      CBZ      r6,0x1917a ; am_devices_mspi_atxp032_enable_xip + 54
        0x00019176:    2001        .       MOVS     r0,#1
        0x00019178:    e7f2        ..      B        0x19160 ; am_devices_mspi_atxp032_enable_xip + 28
        0x0001917a:    21c0        .!      MOVS     r1,#0xc0
        0x0001917c:    6860        `h      LDR      r0,[r4,#4]
        0x0001917e:    f002f9ad    ....    BL       am_hal_mspi_interrupt_disable ; 0x1b4dc
        0x00019182:    4606        .F      MOV      r6,r0
        0x00019184:    b10e        ..      CBZ      r6,0x1918a ; am_devices_mspi_atxp032_enable_xip + 70
        0x00019186:    2001        .       MOVS     r0,#1
        0x00019188:    e7ea        ..      B        0x19160 ; am_devices_mspi_atxp032_enable_xip + 28
        0x0001918a:    2000        .       MOVS     r0,#0
        0x0001918c:    e7e8        ..      B        0x19160 ; am_devices_mspi_atxp032_enable_xip + 28
    $d
        0x0001918e:    0000        ..      DCW    0
        0x00019190:    10000054    T...    DCD    268435540
    $t
    i.am_devices_mspi_atxp032_id
    am_devices_mspi_atxp032_id
        0x00019194:    b570        p.      PUSH     {r4-r6,lr}
        0x00019196:    b086        ..      SUB      sp,sp,#0x18
        0x00019198:    4605        .F      MOV      r5,r0
        0x0001919a:    200b        .       MOVS     r0,#0xb
        0x0001919c:    a903        ..      ADD      r1,sp,#0xc
        0x0001919e:    2300        .#      MOVS     r3,#0
        0x000191a0:    461a        .F      MOV      r2,r3
        0x000191a2:    e9cd1000    ....    STRD     r1,r0,[sp,#0]
        0x000191a6:    219f        .!      MOVS     r1,#0x9f
        0x000191a8:    4628        (F      MOV      r0,r5
        0x000191aa:    f7fffe79    ..y.    BL       am_devices_mspi_atxp032_command_read ; 0x18ea0
        0x000191ae:    4606        .F      MOV      r6,r0
        0x000191b0:    f89d0013    ....    LDRB     r0,[sp,#0x13]
        0x000191b4:    0400        ..      LSLS     r0,r0,#16
        0x000191b6:    f89d1014    ....    LDRB     r1,[sp,#0x14]
        0x000191ba:    ea402001    @..     ORR      r0,r0,r1,LSL #8
        0x000191be:    f89d1015    ....    LDRB     r1,[sp,#0x15]
        0x000191c2:    ea400401    @...    ORR      r4,r0,r1
        0x000191c6:    4804        .H      LDR      r0,[pc,#16] ; [0x191d8] = 0x43a700
        0x000191c8:    4284        .B      CMP      r4,r0
        0x000191ca:    d103        ..      BNE      0x191d4 ; am_devices_mspi_atxp032_id + 64
        0x000191cc:    b916        ..      CBNZ     r6,0x191d4 ; am_devices_mspi_atxp032_id + 64
        0x000191ce:    2000        .       MOVS     r0,#0
        0x000191d0:    b006        ..      ADD      sp,sp,#0x18
        0x000191d2:    bd70        p.      POP      {r4-r6,pc}
        0x000191d4:    2001        .       MOVS     r0,#1
        0x000191d6:    e7fb        ..      B        0x191d0 ; am_devices_mspi_atxp032_id + 60
    $d
        0x000191d8:    0043a700    ..C.    DCD    4433664
    $t
    i.am_devices_mspi_atxp032_init
    am_devices_mspi_atxp032_init
        0x000191dc:    e92d47f0    -..G    PUSH     {r4-r10,lr}
        0x000191e0:    b090        ..      SUB      sp,sp,#0x40
        0x000191e2:    4680        .F      MOV      r8,r0
        0x000191e4:    460d        .F      MOV      r5,r1
        0x000191e6:    4691        .F      MOV      r9,r2
        0x000191e8:    469a        .F      MOV      r10,r3
        0x000191ea:    48b2        .H      LDR      r0,[pc,#712] ; [0x194b4] = 0x10000108
        0x000191ec:    6847        Gh      LDR      r7,[r0,#4]
        0x000191ee:    2400        .$      MOVS     r4,#0
        0x000191f0:    f1b80f03    ....    CMP      r8,#3
        0x000191f4:    d800        ..      BHI      0x191f8 ; am_devices_mspi_atxp032_init + 28
        0x000191f6:    b91d        ..      CBNZ     r5,0x19200 ; am_devices_mspi_atxp032_init + 36
        0x000191f8:    2001        .       MOVS     r0,#1
        0x000191fa:    b010        ..      ADD      sp,sp,#0x40
        0x000191fc:    e8bd87f0    ....    POP      {r4-r10,pc}
        0x00019200:    2400        .$      MOVS     r4,#0
        0x00019202:    e006        ..      B        0x19212 ; am_devices_mspi_atxp032_init + 54
        0x00019204:    48ac        .H      LDR      r0,[pc,#688] ; [0x194b8] = 0x100057e8
        0x00019206:    eb001044    ..D.    ADD      r0,r0,r4,LSL #5
        0x0001920a:    7f80        ..      LDRB     r0,[r0,#0x1e]
        0x0001920c:    b900        ..      CBNZ     r0,0x19210 ; am_devices_mspi_atxp032_init + 52
        0x0001920e:    e002        ..      B        0x19216 ; am_devices_mspi_atxp032_init + 58
        0x00019210:    1c64        d.      ADDS     r4,r4,#1
        0x00019212:    2c00        .,      CMP      r4,#0
        0x00019214:    d0f6        ..      BEQ      0x19204 ; am_devices_mspi_atxp032_init + 40
        0x00019216:    bf00        ..      NOP      
        0x00019218:    2c01        .,      CMP      r4,#1
        0x0001921a:    d101        ..      BNE      0x19220 ; am_devices_mspi_atxp032_init + 68
        0x0001921c:    2001        .       MOVS     r0,#1
        0x0001921e:    e7ec        ..      B        0x191fa ; am_devices_mspi_atxp032_init + 30
        0x00019220:    2000        .       MOVS     r0,#0
        0x00019222:    e00d        ..      B        0x19240 ; am_devices_mspi_atxp032_init + 100
        0x00019224:    7829        )x      LDRB     r1,[r5,#0]
        0x00019226:    4aa3        .J      LDR      r2,[pc,#652] ; [0x194b4] = 0x10000108
        0x00019228:    f8122030    ..0     LDRB     r2,[r2,r0,LSL #3]
        0x0001922c:    4291        .B      CMP      r1,r2
        0x0001922e:    d106        ..      BNE      0x1923e ; am_devices_mspi_atxp032_init + 98
        0x00019230:    49a0        .I      LDR      r1,[pc,#640] ; [0x194b4] = 0x10000108
        0x00019232:    eb0101c0    ....    ADD      r1,r1,r0,LSL #3
        0x00019236:    684f        Oh      LDR      r7,[r1,#4]
        0x00019238:    7869        ix      LDRB     r1,[r5,#1]
        0x0001923a:    72f9        .r      STRB     r1,[r7,#0xb]
        0x0001923c:    e002        ..      B        0x19244 ; am_devices_mspi_atxp032_init + 104
        0x0001923e:    1c40        @.      ADDS     r0,r0,#1
        0x00019240:    2806        .(      CMP      r0,#6
        0x00019242:    d3ef        ..      BCC      0x19224 ; am_devices_mspi_atxp032_init + 72
        0x00019244:    bf00        ..      NOP      
        0x00019246:    f000ffeb    ....    BL       am_hal_fault_capture_enable ; 0x1a220
        0x0001924a:    7a38        8z      LDRB     r0,[r7,#8]
        0x0001924c:    2808        .(      CMP      r0,#8
        0x0001924e:    d274        t.      BCS      0x1933a ; am_devices_mspi_atxp032_init + 350
        0x00019250:    e8dff000    ....    TBB      [pc,r0]
    $d
        0x00019254:    b9b95e04    .^..    DCD    3115933188
        0x00019258:    60065f05    ._.`    DCD    1611030277
    $t
        0x0001925c:    bf00        ..      NOP      
        0x0001925e:    bf00        ..      NOP      
        0x00019260:    4995        .I      LDR      r1,[pc,#596] ; [0x194b8] = 0x100057e8
        0x00019262:    eb011144    ..D.    ADD      r1,r1,r4,LSL #5
        0x00019266:    f1010008    ....    ADD      r0,r1,#8
        0x0001926a:    2216        ."      MOVS     r2,#0x16
        0x0001926c:    4993        .I      LDR      r1,[pc,#588] ; [0x194bc] = 0x10000084
        0x0001926e:    f7fff8d3    ....    BL       __aeabi_memcpy ; 0x18418
        0x00019272:    a909        ..      ADD      r1,sp,#0x24
        0x00019274:    4640        @F      MOV      r0,r8
        0x00019276:    f002f8ed    ....    BL       am_hal_mspi_initialize ; 0x1b454
        0x0001927a:    b120         .      CBZ      r0,0x19286 ; am_devices_mspi_atxp032_init + 170
        0x0001927c:    a090        ..      ADR      r0,{pc}+0x244 ; 0x194c0
        0x0001927e:    f003fc67    ..g.    BL       am_util_stdio_printf ; 0x1cb50
        0x00019282:    2001        .       MOVS     r0,#1
        0x00019284:    e7b9        ..      B        0x191fa ; am_devices_mspi_atxp032_init + 30
        0x00019286:    2200        ."      MOVS     r2,#0
        0x00019288:    4611        .F      MOV      r1,r2
        0x0001928a:    9809        ..      LDR      r0,[sp,#0x24]
        0x0001928c:    f002fb92    ....    BL       am_hal_mspi_power_control ; 0x1b9b4
        0x00019290:    b120         .      CBZ      r0,0x1929c ; am_devices_mspi_atxp032_init + 192
        0x00019292:    a094        ..      ADR      r0,{pc}+0x252 ; 0x194e4
        0x00019294:    f003fc5c    ..\.    BL       am_util_stdio_printf ; 0x1cb50
        0x00019298:    2001        .       MOVS     r0,#1
        0x0001929a:    e7ae        ..      B        0x191fa ; am_devices_mspi_atxp032_init + 30
        0x0001929c:    2216        ."      MOVS     r2,#0x16
        0x0001929e:    4987        .I      LDR      r1,[pc,#540] ; [0x194bc] = 0x10000084
        0x000192a0:    a80a        ..      ADD      r0,sp,#0x28
        0x000192a2:    f7fff8b9    ....    BL       __aeabi_memcpy ; 0x18418
        0x000192a6:    4a98        .J      LDR      r2,[pc,#608] ; [0x19508] = 0x100057dc
        0x000192a8:    ca07        ..      LDM      r2,{r0-r2}
        0x000192aa:    e88d0007    ....    STM      sp,{r0-r2}
        0x000192ae:    68a8        .h      LDR      r0,[r5,#8]
        0x000192b0:    9000        ..      STR      r0,[sp,#0]
        0x000192b2:    6868        hh      LDR      r0,[r5,#4]
        0x000192b4:    9001        ..      STR      r0,[sp,#4]
        0x000192b6:    4669        iF      MOV      r1,sp
        0x000192b8:    9809        ..      LDR      r0,[sp,#0x24]
        0x000192ba:    f001f9a9    ....    BL       am_hal_mspi_configure ; 0x1a610
        0x000192be:    b120         .      CBZ      r0,0x192ca ; am_devices_mspi_atxp032_init + 238
        0x000192c0:    a092        ..      ADR      r0,{pc}+0x24c ; 0x1950c
        0x000192c2:    f003fc45    ..E.    BL       am_util_stdio_printf ; 0x1cb50
        0x000192c6:    2001        .       MOVS     r0,#1
        0x000192c8:    e797        ..      B        0x191fa ; am_devices_mspi_atxp032_init + 30
        0x000192ca:    487c        |H      LDR      r0,[pc,#496] ; [0x194bc] = 0x10000084
        0x000192cc:    7ac0        .z      LDRB     r0,[r0,#0xb]
        0x000192ce:    2801        .(      CMP      r0,#1
        0x000192d0:    d105        ..      BNE      0x192de ; am_devices_mspi_atxp032_init + 258
        0x000192d2:    f89d0028    ..(.    LDRB     r0,[sp,#0x28]
        0x000192d6:    1c40        @.      ADDS     r0,r0,#1
        0x000192d8:    b2c0        ..      UXTB     r0,r0
        0x000192da:    f88d0028    ..(.    STRB     r0,[sp,#0x28]
        0x000192de:    a90a        ..      ADD      r1,sp,#0x28
        0x000192e0:    9809        ..      LDR      r0,[sp,#0x24]
        0x000192e2:    f001ff03    ....    BL       am_hal_mspi_device_configure ; 0x1b0ec
        0x000192e6:    b120         .      CBZ      r0,0x192f2 ; am_devices_mspi_atxp032_init + 278
        0x000192e8:    a093        ..      ADR      r0,{pc}+0x250 ; 0x19538
        0x000192ea:    f003fc31    ..1.    BL       am_util_stdio_printf ; 0x1cb50
        0x000192ee:    2001        .       MOVS     r0,#1
        0x000192f0:    e783        ..      B        0x191fa ; am_devices_mspi_atxp032_init + 30
        0x000192f2:    9809        ..      LDR      r0,[sp,#0x24]
        0x000192f4:    f002f854    ..T.    BL       am_hal_mspi_enable ; 0x1b3a0
        0x000192f8:    b120         .      CBZ      r0,0x19304 ; am_devices_mspi_atxp032_init + 296
        0x000192fa:    a098        ..      ADR      r0,{pc}+0x262 ; 0x1955c
        0x000192fc:    f003fc28    ..(.    BL       am_util_stdio_printf ; 0x1cb50
        0x00019300:    2001        .       MOVS     r0,#1
        0x00019302:    e77a        z.      B        0x191fa ; am_devices_mspi_atxp032_init + 30
        0x00019304:    486d        mH      LDR      r0,[pc,#436] ; [0x194bc] = 0x10000084
        0x00019306:    7a01        .z      LDRB     r1,[r0,#8]
        0x00019308:    4640        @F      MOV      r0,r8
        0x0001930a:    f7fff9a9    ....    BL       am_bsp_mspi_pins_enable ; 0x18660
        0x0001930e:    e05c        \.      B        0x193ca ; am_devices_mspi_atxp032_init + 494
        0x00019310:    bf00        ..      NOP      
        0x00019312:    bf00        ..      NOP      
        0x00019314:    4968        hI      LDR      r1,[pc,#416] ; [0x194b8] = 0x100057e8
        0x00019316:    eb011144    ..D.    ADD      r1,r1,r4,LSL #5
        0x0001931a:    f1010008    ....    ADD      r0,r1,#8
        0x0001931e:    2216        ."      MOVS     r2,#0x16
        0x00019320:    4996        .I      LDR      r1,[pc,#600] ; [0x1957c] = 0x1000009a
        0x00019322:    f7fff879    ..y.    BL       __aeabi_memcpy ; 0x18418
        0x00019326:    a909        ..      ADD      r1,sp,#0x24
        0x00019328:    4640        @F      MOV      r0,r8
        0x0001932a:    f002f893    ....    BL       am_hal_mspi_initialize ; 0x1b454
        0x0001932e:    b128        (.      CBZ      r0,0x1933c ; am_devices_mspi_atxp032_init + 352
        0x00019330:    a063        c.      ADR      r0,{pc}+0x190 ; 0x194c0
        0x00019332:    f003fc0d    ....    BL       am_util_stdio_printf ; 0x1cb50
        0x00019336:    2001        .       MOVS     r0,#1
        0x00019338:    e75f        _.      B        0x191fa ; am_devices_mspi_atxp032_init + 30
        0x0001933a:    e044        D.      B        0x193c6 ; am_devices_mspi_atxp032_init + 490
        0x0001933c:    2200        ."      MOVS     r2,#0
        0x0001933e:    4611        .F      MOV      r1,r2
        0x00019340:    9809        ..      LDR      r0,[sp,#0x24]
        0x00019342:    f002fb37    ..7.    BL       am_hal_mspi_power_control ; 0x1b9b4
        0x00019346:    b120         .      CBZ      r0,0x19352 ; am_devices_mspi_atxp032_init + 374
        0x00019348:    a066        f.      ADR      r0,{pc}+0x19c ; 0x194e4
        0x0001934a:    f003fc01    ....    BL       am_util_stdio_printf ; 0x1cb50
        0x0001934e:    2001        .       MOVS     r0,#1
        0x00019350:    e753        S.      B        0x191fa ; am_devices_mspi_atxp032_init + 30
        0x00019352:    2216        ."      MOVS     r2,#0x16
        0x00019354:    4989        .I      LDR      r1,[pc,#548] ; [0x1957c] = 0x1000009a
        0x00019356:    a80a        ..      ADD      r0,sp,#0x28
        0x00019358:    f7fff85e    ..^.    BL       __aeabi_memcpy ; 0x18418
        0x0001935c:    4a6a        jJ      LDR      r2,[pc,#424] ; [0x19508] = 0x100057dc
        0x0001935e:    ca07        ..      LDM      r2,{r0-r2}
        0x00019360:    e88d0007    ....    STM      sp,{r0-r2}
        0x00019364:    68a8        .h      LDR      r0,[r5,#8]
        0x00019366:    9000        ..      STR      r0,[sp,#0]
        0x00019368:    6868        hh      LDR      r0,[r5,#4]
        0x0001936a:    9001        ..      STR      r0,[sp,#4]
        0x0001936c:    4669        iF      MOV      r1,sp
        0x0001936e:    9809        ..      LDR      r0,[sp,#0x24]
        0x00019370:    f001f94e    ..N.    BL       am_hal_mspi_configure ; 0x1a610
        0x00019374:    b120         .      CBZ      r0,0x19380 ; am_devices_mspi_atxp032_init + 420
        0x00019376:    a065        e.      ADR      r0,{pc}+0x196 ; 0x1950c
        0x00019378:    f003fbea    ....    BL       am_util_stdio_printf ; 0x1cb50
        0x0001937c:    2001        .       MOVS     r0,#1
        0x0001937e:    e73c        <.      B        0x191fa ; am_devices_mspi_atxp032_init + 30
        0x00019380:    487e        ~H      LDR      r0,[pc,#504] ; [0x1957c] = 0x1000009a
        0x00019382:    7ac0        .z      LDRB     r0,[r0,#0xb]
        0x00019384:    2801        .(      CMP      r0,#1
        0x00019386:    d105        ..      BNE      0x19394 ; am_devices_mspi_atxp032_init + 440
        0x00019388:    f89d0028    ..(.    LDRB     r0,[sp,#0x28]
        0x0001938c:    1c40        @.      ADDS     r0,r0,#1
        0x0001938e:    b2c0        ..      UXTB     r0,r0
        0x00019390:    f88d0028    ..(.    STRB     r0,[sp,#0x28]
        0x00019394:    a90a        ..      ADD      r1,sp,#0x28
        0x00019396:    9809        ..      LDR      r0,[sp,#0x24]
        0x00019398:    f001fea8    ....    BL       am_hal_mspi_device_configure ; 0x1b0ec
        0x0001939c:    b120         .      CBZ      r0,0x193a8 ; am_devices_mspi_atxp032_init + 460
        0x0001939e:    a066        f.      ADR      r0,{pc}+0x19a ; 0x19538
        0x000193a0:    f003fbd6    ....    BL       am_util_stdio_printf ; 0x1cb50
        0x000193a4:    2001        .       MOVS     r0,#1
        0x000193a6:    e728        (.      B        0x191fa ; am_devices_mspi_atxp032_init + 30
        0x000193a8:    9809        ..      LDR      r0,[sp,#0x24]
        0x000193aa:    f001fff9    ....    BL       am_hal_mspi_enable ; 0x1b3a0
        0x000193ae:    b120         .      CBZ      r0,0x193ba ; am_devices_mspi_atxp032_init + 478
        0x000193b0:    a06a        j.      ADR      r0,{pc}+0x1ac ; 0x1955c
        0x000193b2:    f003fbcd    ....    BL       am_util_stdio_printf ; 0x1cb50
        0x000193b6:    2001        .       MOVS     r0,#1
        0x000193b8:    e71f        ..      B        0x191fa ; am_devices_mspi_atxp032_init + 30
        0x000193ba:    4870        pH      LDR      r0,[pc,#448] ; [0x1957c] = 0x1000009a
        0x000193bc:    7a01        .z      LDRB     r1,[r0,#8]
        0x000193be:    4640        @F      MOV      r0,r8
        0x000193c0:    f7fff94e    ..N.    BL       am_bsp_mspi_pins_enable ; 0x18660
        0x000193c4:    e001        ..      B        0x193ca ; am_devices_mspi_atxp032_init + 494
        0x000193c6:    2001        .       MOVS     r0,#1
        0x000193c8:    e717        ..      B        0x191fa ; am_devices_mspi_atxp032_init + 30
        0x000193ca:    bf00        ..      NOP      
        0x000193cc:    493a        :I      LDR      r1,[pc,#232] ; [0x194b8] = 0x100057e8
        0x000193ce:    eb011144    ..D.    ADD      r1,r1,r4,LSL #5
        0x000193d2:    9809        ..      LDR      r0,[sp,#0x24]
        0x000193d4:    6048        H`      STR      r0,[r1,#4]
        0x000193d6:    4838        8H      LDR      r0,[pc,#224] ; [0x194b8] = 0x100057e8
        0x000193d8:    eb001044    ..D.    ADD      r0,r0,r4,LSL #5
        0x000193dc:    f8c08000    ....    STR      r8,[r0,#0]
        0x000193e0:    4935        5I      LDR      r1,[pc,#212] ; [0x194b8] = 0x100057e8
        0x000193e2:    eb011044    ..D.    ADD      r0,r1,r4,LSL #5
        0x000193e6:    f000f991    ....    BL       am_devices_mspi_atxp032_reset ; 0x1970c
        0x000193ea:    b108        ..      CBZ      r0,0x193f0 ; am_devices_mspi_atxp032_init + 532
        0x000193ec:    2001        .       MOVS     r0,#1
        0x000193ee:    e704        ..      B        0x191fa ; am_devices_mspi_atxp032_init + 30
        0x000193f0:    4931        1I      LDR      r1,[pc,#196] ; [0x194b8] = 0x100057e8
        0x000193f2:    eb011144    ..D.    ADD      r1,r1,r4,LSL #5
        0x000193f6:    f1010008    ....    ADD      r0,r1,#8
        0x000193fa:    2216        ."      MOVS     r2,#0x16
        0x000193fc:    4639        9F      MOV      r1,r7
        0x000193fe:    f7fff80b    ....    BL       __aeabi_memcpy ; 0x18418
        0x00019402:    492d        -I      LDR      r1,[pc,#180] ; [0x194b8] = 0x100057e8
        0x00019404:    eb011044    ..D.    ADD      r0,r1,r4,LSL #5
        0x00019408:    f7fffcef    ....    BL       am_device_init_flash ; 0x18dea
        0x0001940c:    4606        .F      MOV      r6,r0
        0x0001940e:    b10e        ..      CBZ      r6,0x19414 ; am_devices_mspi_atxp032_init + 568
        0x00019410:    2001        .       MOVS     r0,#1
        0x00019412:    e6f2        ..      B        0x191fa ; am_devices_mspi_atxp032_init + 30
        0x00019414:    4928        (I      LDR      r1,[pc,#160] ; [0x194b8] = 0x100057e8
        0x00019416:    eb011044    ..D.    ADD      r0,r1,r4,LSL #5
        0x0001941a:    f7fffe93    ....    BL       am_devices_mspi_atxp032_enable_xip ; 0x19144
        0x0001941e:    9809        ..      LDR      r0,[sp,#0x24]
        0x00019420:    f001ff88    ....    BL       am_hal_mspi_disable ; 0x1b334
        0x00019424:    4606        .F      MOV      r6,r0
        0x00019426:    b10e        ..      CBZ      r6,0x1942c ; am_devices_mspi_atxp032_init + 592
        0x00019428:    2001        .       MOVS     r0,#1
        0x0001942a:    e6e6        ..      B        0x191fa ; am_devices_mspi_atxp032_init + 30
        0x0001942c:    2216        ."      MOVS     r2,#0x16
        0x0001942e:    4639        9F      MOV      r1,r7
        0x00019430:    a803        ..      ADD      r0,sp,#0xc
        0x00019432:    f7fefff1    ....    BL       __aeabi_memcpy ; 0x18418
        0x00019436:    f89d0017    ....    LDRB     r0,[sp,#0x17]
        0x0001943a:    2801        .(      CMP      r0,#1
        0x0001943c:    d105        ..      BNE      0x1944a ; am_devices_mspi_atxp032_init + 622
        0x0001943e:    f89d000c    ....    LDRB     r0,[sp,#0xc]
        0x00019442:    1c40        @.      ADDS     r0,r0,#1
        0x00019444:    b2c0        ..      UXTB     r0,r0
        0x00019446:    f88d000c    ....    STRB     r0,[sp,#0xc]
        0x0001944a:    a903        ..      ADD      r1,sp,#0xc
        0x0001944c:    9809        ..      LDR      r0,[sp,#0x24]
        0x0001944e:    f001fe4d    ..M.    BL       am_hal_mspi_device_configure ; 0x1b0ec
        0x00019452:    4606        .F      MOV      r6,r0
        0x00019454:    b10e        ..      CBZ      r6,0x1945a ; am_devices_mspi_atxp032_init + 638
        0x00019456:    2001        .       MOVS     r0,#1
        0x00019458:    e6cf        ..      B        0x191fa ; am_devices_mspi_atxp032_init + 30
        0x0001945a:    9809        ..      LDR      r0,[sp,#0x24]
        0x0001945c:    f001ffa0    ....    BL       am_hal_mspi_enable ; 0x1b3a0
        0x00019460:    4606        .F      MOV      r6,r0
        0x00019462:    b10e        ..      CBZ      r6,0x19468 ; am_devices_mspi_atxp032_init + 652
        0x00019464:    2001        .       MOVS     r0,#1
        0x00019466:    e6c8        ..      B        0x191fa ; am_devices_mspi_atxp032_init + 30
        0x00019468:    7a39        9z      LDRB     r1,[r7,#8]
        0x0001946a:    4640        @F      MOV      r0,r8
        0x0001946c:    f7fff8f8    ....    BL       am_bsp_mspi_pins_enable ; 0x18660
        0x00019470:    f44f51d4    O..Q    MOV      r1,#0x1a80
        0x00019474:    9809        ..      LDR      r0,[sp,#0x24]
        0x00019476:    f002f817    ....    BL       am_hal_mspi_interrupt_clear ; 0x1b4a8
        0x0001947a:    4606        .F      MOV      r6,r0
        0x0001947c:    b10e        ..      CBZ      r6,0x19482 ; am_devices_mspi_atxp032_init + 678
        0x0001947e:    2001        .       MOVS     r0,#1
        0x00019480:    e6bb        ..      B        0x191fa ; am_devices_mspi_atxp032_init + 30
        0x00019482:    f44f51d4    O..Q    MOV      r1,#0x1a80
        0x00019486:    9809        ..      LDR      r0,[sp,#0x24]
        0x00019488:    f002f846    ..F.    BL       am_hal_mspi_interrupt_enable ; 0x1b518
        0x0001948c:    4606        .F      MOV      r6,r0
        0x0001948e:    b10e        ..      CBZ      r6,0x19494 ; am_devices_mspi_atxp032_init + 696
        0x00019490:    2001        .       MOVS     r0,#1
        0x00019492:    e6b2        ..      B        0x191fa ; am_devices_mspi_atxp032_init + 30
        0x00019494:    2001        .       MOVS     r0,#1
        0x00019496:    4908        .I      LDR      r1,[pc,#32] ; [0x194b8] = 0x100057e8
        0x00019498:    eb011144    ..D.    ADD      r1,r1,r4,LSL #5
        0x0001949c:    7788        .w      STRB     r0,[r1,#0x1e]
        0x0001949e:    9809        ..      LDR      r0,[sp,#0x24]
        0x000194a0:    f8ca0000    ....    STR      r0,[r10,#0]
        0x000194a4:    4804        .H      LDR      r0,[pc,#16] ; [0x194b8] = 0x100057e8
        0x000194a6:    eb001044    ..D.    ADD      r0,r0,r4,LSL #5
        0x000194aa:    f8c90000    ....    STR      r0,[r9,#0]
        0x000194ae:    2000        .       MOVS     r0,#0
        0x000194b0:    e6a3        ..      B        0x191fa ; am_devices_mspi_atxp032_init + 30
    $d
        0x000194b2:    0000        ..      DCW    0
        0x000194b4:    10000108    ....    DCD    268435720
        0x000194b8:    100057e8    .W..    DCD    268457960
        0x000194bc:    10000084    ....    DCD    268435588
        0x000194c0:    6f727245    Erro    DCD    1869771333
        0x000194c4:    202d2072    r -     DCD    539828338
        0x000194c8:    6c696146    Fail    DCD    1818845510
        0x000194cc:    74206465    ed t    DCD    1948279909
        0x000194d0:    6e69206f    o in    DCD    1852383343
        0x000194d4:    61697469    itia    DCD    1634301033
        0x000194d8:    657a696c    lize    DCD    1702521196
        0x000194dc:    50534d20     MSP    DCD    1347636512
        0x000194e0:    000a2e49    I...    DCD    667209
        0x000194e4:    6f727245    Erro    DCD    1869771333
        0x000194e8:    202d2072    r -     DCD    539828338
        0x000194ec:    6c696146    Fail    DCD    1818845510
        0x000194f0:    74206465    ed t    DCD    1948279909
        0x000194f4:    6f70206f    o po    DCD    1869619311
        0x000194f8:    20726577    wer     DCD    544367991
        0x000194fc:    4d206e6f    on M    DCD    1293971055
        0x00019500:    2e495053    SPI.    DCD    776556627
        0x00019504:    0000000a    ....    DCD    10
        0x00019508:    100057dc    .W..    DCD    268457948
        0x0001950c:    6f727245    Erro    DCD    1869771333
        0x00019510:    202d2072    r -     DCD    539828338
        0x00019514:    6c696146    Fail    DCD    1818845510
        0x00019518:    74206465    ed t    DCD    1948279909
        0x0001951c:    6f63206f    o co    DCD    1868767343
        0x00019520:    6769666e    nfig    DCD    1734960750
        0x00019524:    20657275    ure     DCD    543519349
        0x00019528:    4950534d    MSPI    DCD    1230000973
        0x0001952c:    76656420     dev    DCD    1986356256
        0x00019530:    2e656369    ice.    DCD    778396521
        0x00019534:    0000000a    ....    DCD    10
        0x00019538:    6f727245    Erro    DCD    1869771333
        0x0001953c:    202d2072    r -     DCD    539828338
        0x00019540:    6c696146    Fail    DCD    1818845510
        0x00019544:    74206465    ed t    DCD    1948279909
        0x00019548:    6f63206f    o co    DCD    1868767343
        0x0001954c:    6769666e    nfig    DCD    1734960750
        0x00019550:    20657275    ure     DCD    543519349
        0x00019554:    4950534d    MSPI    DCD    1230000973
        0x00019558:    00000a2e    ....    DCD    2606
        0x0001955c:    6f727245    Erro    DCD    1869771333
        0x00019560:    202d2072    r -     DCD    539828338
        0x00019564:    6c696146    Fail    DCD    1818845510
        0x00019568:    74206465    ed t    DCD    1948279909
        0x0001956c:    6e65206f    o en    DCD    1852121199
        0x00019570:    656c6261    able    DCD    1701601889
        0x00019574:    50534d20     MSP    DCD    1347636512
        0x00019578:    000a2e49    I...    DCD    667209
        0x0001957c:    1000009a    ....    DCD    268435610
    $t
    i.am_devices_mspi_atxp032_mass_erase
    am_devices_mspi_atxp032_mass_erase
        0x00019580:    b5f0        ..      PUSH     {r4-r7,lr}
        0x00019582:    b0a3        ..      SUB      sp,sp,#0x8c
        0x00019584:    4607        .F      MOV      r7,r0
        0x00019586:    2500        .%      MOVS     r5,#0
        0x00019588:    2180        .!      MOVS     r1,#0x80
        0x0001958a:    a803        ..      ADD      r0,sp,#0xc
        0x0001958c:    f7feff89    ....    BL       __aeabi_memclr4 ; 0x184a2
        0x00019590:    2000        .       MOVS     r0,#0
        0x00019592:    a903        ..      ADD      r1,sp,#0xc
        0x00019594:    4603        .F      MOV      r3,r0
        0x00019596:    4602        .F      MOV      r2,r0
        0x00019598:    e9cd1000    ....    STRD     r1,r0,[sp,#0]
        0x0001959c:    2106        .!      MOVS     r1,#6
        0x0001959e:    4638        8F      MOV      r0,r7
        0x000195a0:    f7fffccc    ....    BL       am_devices_mspi_atxp032_command_write ; 0x18f3c
        0x000195a4:    4604        .F      MOV      r4,r0
        0x000195a6:    b114        ..      CBZ      r4,0x195ae ; am_devices_mspi_atxp032_mass_erase + 46
        0x000195a8:    2001        .       MOVS     r0,#1
        0x000195aa:    b023        #.      ADD      sp,sp,#0x8c
        0x000195ac:    bdf0        ..      POP      {r4-r7,pc}
        0x000195ae:    2000        .       MOVS     r0,#0
        0x000195b0:    a903        ..      ADD      r1,sp,#0xc
        0x000195b2:    4603        .F      MOV      r3,r0
        0x000195b4:    4602        .F      MOV      r2,r0
        0x000195b6:    e9cd1000    ....    STRD     r1,r0,[sp,#0]
        0x000195ba:    21c7        .!      MOVS     r1,#0xc7
        0x000195bc:    4638        8F      MOV      r0,r7
        0x000195be:    f7fffcbd    ....    BL       am_devices_mspi_atxp032_command_write ; 0x18f3c
        0x000195c2:    4604        .F      MOV      r4,r0
        0x000195c4:    b10c        ..      CBZ      r4,0x195ca ; am_devices_mspi_atxp032_mass_erase + 74
        0x000195c6:    2001        .       MOVS     r0,#1
        0x000195c8:    e7ef        ..      B        0x195aa ; am_devices_mspi_atxp032_mass_erase + 42
        0x000195ca:    2600        .&      MOVS     r6,#0
        0x000195cc:    e016        ..      B        0x195fc ; am_devices_mspi_atxp032_mass_erase + 124
        0x000195ce:    2000        .       MOVS     r0,#0
        0x000195d0:    9003        ..      STR      r0,[sp,#0xc]
        0x000195d2:    2001        .       MOVS     r0,#1
        0x000195d4:    a903        ..      ADD      r1,sp,#0xc
        0x000195d6:    2300        .#      MOVS     r3,#0
        0x000195d8:    461a        .F      MOV      r2,r3
        0x000195da:    e9cd1000    ....    STRD     r1,r0,[sp,#0]
        0x000195de:    2105        .!      MOVS     r1,#5
        0x000195e0:    4638        8F      MOV      r0,r7
        0x000195e2:    f7fffc5d    ..].    BL       am_devices_mspi_atxp032_command_read ; 0x18ea0
        0x000195e6:    9803        ..      LDR      r0,[sp,#0xc]
        0x000195e8:    f0000001    ....    AND      r0,r0,#1
        0x000195ec:    f0800501    ....    EOR      r5,r0,#1
        0x000195f0:    b105        ..      CBZ      r5,0x195f4 ; am_devices_mspi_atxp032_mass_erase + 116
        0x000195f2:    e006        ..      B        0x19602 ; am_devices_mspi_atxp032_mass_erase + 130
        0x000195f4:    200a        .       MOVS     r0,#0xa
        0x000195f6:    f003f82b    ..+.    BL       am_util_delay_ms ; 0x1c650
        0x000195fa:    1c76        v.      ADDS     r6,r6,#1
        0x000195fc:    480b        .H      LDR      r0,[pc,#44] ; [0x1962c] = 0xf4240
        0x000195fe:    4286        .B      CMP      r6,r0
        0x00019600:    d3e5        ..      BCC      0x195ce ; am_devices_mspi_atxp032_mass_erase + 78
        0x00019602:    bf00        ..      NOP      
        0x00019604:    b90d        ..      CBNZ     r5,0x1960a ; am_devices_mspi_atxp032_mass_erase + 138
        0x00019606:    2001        .       MOVS     r0,#1
        0x00019608:    e7cf        ..      B        0x195aa ; am_devices_mspi_atxp032_mass_erase + 42
        0x0001960a:    2000        .       MOVS     r0,#0
        0x0001960c:    a903        ..      ADD      r1,sp,#0xc
        0x0001960e:    4603        .F      MOV      r3,r0
        0x00019610:    4602        .F      MOV      r2,r0
        0x00019612:    e9cd1000    ....    STRD     r1,r0,[sp,#0]
        0x00019616:    2104        .!      MOVS     r1,#4
        0x00019618:    4638        8F      MOV      r0,r7
        0x0001961a:    f7fffc8f    ....    BL       am_devices_mspi_atxp032_command_write ; 0x18f3c
        0x0001961e:    4604        .F      MOV      r4,r0
        0x00019620:    b10c        ..      CBZ      r4,0x19626 ; am_devices_mspi_atxp032_mass_erase + 166
        0x00019622:    2001        .       MOVS     r0,#1
        0x00019624:    e7c1        ..      B        0x195aa ; am_devices_mspi_atxp032_mass_erase + 42
        0x00019626:    2000        .       MOVS     r0,#0
        0x00019628:    e7bf        ..      B        0x195aa ; am_devices_mspi_atxp032_mass_erase + 42
    $d
        0x0001962a:    0000        ..      DCW    0
        0x0001962c:    000f4240    @B..    DCD    1000000
    $t
    i.am_devices_mspi_atxp032_read
    am_devices_mspi_atxp032_read
        0x00019630:    e92d4ff0    -..O    PUSH     {r4-r11,lr}
        0x00019634:    b089        ..      SUB      sp,sp,#0x24
        0x00019636:    4605        .F      MOV      r5,r0
        0x00019638:    460e        .F      MOV      r6,r1
        0x0001963a:    4617        .F      MOV      r7,r2
        0x0001963c:    4698        .F      MOV      r8,r3
        0x0001963e:    f8ddb048    ..H.    LDR      r11,[sp,#0x48]
        0x00019642:    46a9        .F      MOV      r9,r5
        0x00019644:    2001        .       MOVS     r0,#1
        0x00019646:    f88d000c    ....    STRB     r0,[sp,#0xc]
        0x0001964a:    2000        .       MOVS     r0,#0
        0x0001964c:    f88d000d    ....    STRB     r0,[sp,#0xd]
        0x00019650:    f8cd8010    ....    STR      r8,[sp,#0x10]
        0x00019654:    9705        ..      STR      r7,[sp,#0x14]
        0x00019656:    9606        ..      STR      r6,[sp,#0x18]
        0x00019658:    9007        ..      STR      r0,[sp,#0x1c]
        0x0001965a:    9008        ..      STR      r0,[sp,#0x20]
        0x0001965c:    f1bb0f00    ....    CMP      r11,#0
        0x00019660:    d03d        =.      BEQ      0x196de ; am_devices_mspi_atxp032_read + 174
        0x00019662:    1e40        @.      SUBS     r0,r0,#1
        0x00019664:    9002        ..      STR      r0,[sp,#8]
        0x00019666:    a802        ..      ADD      r0,sp,#8
        0x00019668:    9000        ..      STR      r0,[sp,#0]
        0x0001966a:    4b24        $K      LDR      r3,[pc,#144] ; [0x196fc] = 0x1e057
        0x0001966c:    2201        ."      MOVS     r2,#1
        0x0001966e:    a903        ..      ADD      r1,sp,#0xc
        0x00019670:    f8d90004    ....    LDR      r0,[r9,#4]
        0x00019674:    f002f8e2    ....    BL       am_hal_mspi_nonblocking_transfer ; 0x1b83c
        0x00019678:    4604        .F      MOV      r4,r0
        0x0001967a:    b11c        ..      CBZ      r4,0x19684 ; am_devices_mspi_atxp032_read + 84
        0x0001967c:    2001        .       MOVS     r0,#1
        0x0001967e:    b009        ..      ADD      sp,sp,#0x24
        0x00019680:    e8bd8ff0    ....    POP      {r4-r11,pc}
        0x00019684:    f04f0a00    O...    MOV      r10,#0
        0x00019688:    e00b        ..      B        0x196a2 ; am_devices_mspi_atxp032_read + 114
        0x0001968a:    9802        ..      LDR      r0,[sp,#8]
        0x0001968c:    b118        ..      CBZ      r0,0x19696 ; am_devices_mspi_atxp032_read + 102
        0x0001968e:    9802        ..      LDR      r0,[sp,#8]
        0x00019690:    f1b06f00    ...o    CMP      r0,#0x8000000
        0x00019694:    d100        ..      BNE      0x19698 ; am_devices_mspi_atxp032_read + 104
        0x00019696:    e007        ..      B        0x196a8 ; am_devices_mspi_atxp032_read + 120
        0x00019698:    2001        .       MOVS     r0,#1
        0x0001969a:    f002ffe2    ....    BL       am_util_delay_us ; 0x1c662
        0x0001969e:    f10a0a01    ....    ADD      r10,r10,#1
        0x000196a2:    4817        .H      LDR      r0,[pc,#92] ; [0x19700] = 0xf4240
        0x000196a4:    4582        .E      CMP      r10,r0
        0x000196a6:    d3f0        ..      BCC      0x1968a ; am_devices_mspi_atxp032_read + 90
        0x000196a8:    bf00        ..      NOP      
        0x000196aa:    9802        ..      LDR      r0,[sp,#8]
        0x000196ac:    f1b06f00    ...o    CMP      r0,#0x8000000
        0x000196b0:    d10f        ..      BNE      0x196d2 ; am_devices_mspi_atxp032_read + 162
        0x000196b2:    f7fefe77    ..w.    BL       am_hal_interrupt_master_disable ; 0x183a4
        0x000196b6:    9001        ..      STR      r0,[sp,#4]
        0x000196b8:    4812        .H      LDR      r0,[pc,#72] ; [0x19704] = 0x40010214
        0x000196ba:    6800        .h      LDR      r0,[r0,#0]
        0x000196bc:    f4800080    ....    EOR      r0,r0,#0x400000
        0x000196c0:    4911        .I      LDR      r1,[pc,#68] ; [0x19708] = 0x40010000
        0x000196c2:    f8c10214    ....    STR      r0,[r1,#0x214]
        0x000196c6:    9801        ..      LDR      r0,[sp,#4]
        0x000196c8:    f7fefe70    ..p.    BL       am_hal_interrupt_master_set ; 0x183ac
        0x000196cc:    f04f6000    O..`    MOV      r0,#0x8000000
        0x000196d0:    e7d5        ..      B        0x1967e ; am_devices_mspi_atxp032_read + 78
        0x000196d2:    9802        ..      LDR      r0,[sp,#8]
        0x000196d4:    b908        ..      CBNZ     r0,0x196da ; am_devices_mspi_atxp032_read + 170
        0x000196d6:    2000        .       MOVS     r0,#0
        0x000196d8:    e7d1        ..      B        0x1967e ; am_devices_mspi_atxp032_read + 78
        0x000196da:    2001        .       MOVS     r0,#1
        0x000196dc:    e7cf        ..      B        0x1967e ; am_devices_mspi_atxp032_read + 78
        0x000196de:    2000        .       MOVS     r0,#0
        0x000196e0:    9000        ..      STR      r0,[sp,#0]
        0x000196e2:    2300        .#      MOVS     r3,#0
        0x000196e4:    2201        ."      MOVS     r2,#1
        0x000196e6:    a903        ..      ADD      r1,sp,#0xc
        0x000196e8:    f8d90004    ....    LDR      r0,[r9,#4]
        0x000196ec:    f002f8a6    ....    BL       am_hal_mspi_nonblocking_transfer ; 0x1b83c
        0x000196f0:    4604        .F      MOV      r4,r0
        0x000196f2:    b10c        ..      CBZ      r4,0x196f8 ; am_devices_mspi_atxp032_read + 200
        0x000196f4:    2001        .       MOVS     r0,#1
        0x000196f6:    e7c2        ..      B        0x1967e ; am_devices_mspi_atxp032_read + 78
        0x000196f8:    2000        .       MOVS     r0,#0
        0x000196fa:    e7c0        ..      B        0x1967e ; am_devices_mspi_atxp032_read + 78
    $d
        0x000196fc:    0001e057    W...    DCD    122967
        0x00019700:    000f4240    @B..    DCD    1000000
        0x00019704:    40010214    ...@    DCD    1073807892
        0x00019708:    40010000    ...@    DCD    1073807360
    $t
    i.am_devices_mspi_atxp032_reset
    am_devices_mspi_atxp032_reset
        0x0001970c:    b530        0.      PUSH     {r4,r5,lr}
        0x0001970e:    b0a3        ..      SUB      sp,sp,#0x8c
        0x00019710:    4605        .F      MOV      r5,r0
        0x00019712:    2180        .!      MOVS     r1,#0x80
        0x00019714:    a803        ..      ADD      r0,sp,#0xc
        0x00019716:    f7fefec4    ....    BL       __aeabi_memclr4 ; 0x184a2
        0x0001971a:    2000        .       MOVS     r0,#0
        0x0001971c:    a903        ..      ADD      r1,sp,#0xc
        0x0001971e:    4603        .F      MOV      r3,r0
        0x00019720:    4602        .F      MOV      r2,r0
        0x00019722:    e9cd1000    ....    STRD     r1,r0,[sp,#0]
        0x00019726:    2106        .!      MOVS     r1,#6
        0x00019728:    4628        (F      MOV      r0,r5
        0x0001972a:    f7fffc07    ....    BL       am_devices_mspi_atxp032_command_write ; 0x18f3c
        0x0001972e:    4604        .F      MOV      r4,r0
        0x00019730:    b114        ..      CBZ      r4,0x19738 ; am_devices_mspi_atxp032_reset + 44
        0x00019732:    2001        .       MOVS     r0,#1
        0x00019734:    b023        #.      ADD      sp,sp,#0x8c
        0x00019736:    bd30        0.      POP      {r4,r5,pc}
        0x00019738:    2000        .       MOVS     r0,#0
        0x0001973a:    a903        ..      ADD      r1,sp,#0xc
        0x0001973c:    4603        .F      MOV      r3,r0
        0x0001973e:    4602        .F      MOV      r2,r0
        0x00019740:    e9cd1000    ....    STRD     r1,r0,[sp,#0]
        0x00019744:    21ff        .!      MOVS     r1,#0xff
        0x00019746:    4628        (F      MOV      r0,r5
        0x00019748:    f7fffbf8    ....    BL       am_devices_mspi_atxp032_command_write ; 0x18f3c
        0x0001974c:    4604        .F      MOV      r4,r0
        0x0001974e:    b10c        ..      CBZ      r4,0x19754 ; am_devices_mspi_atxp032_reset + 72
        0x00019750:    2001        .       MOVS     r0,#1
        0x00019752:    e7ef        ..      B        0x19734 ; am_devices_mspi_atxp032_reset + 40
        0x00019754:    2000        .       MOVS     r0,#0
        0x00019756:    a903        ..      ADD      r1,sp,#0xc
        0x00019758:    4603        .F      MOV      r3,r0
        0x0001975a:    4602        .F      MOV      r2,r0
        0x0001975c:    e9cd1000    ....    STRD     r1,r0,[sp,#0]
        0x00019760:    2104        .!      MOVS     r1,#4
        0x00019762:    4628        (F      MOV      r0,r5
        0x00019764:    f7fffbea    ....    BL       am_devices_mspi_atxp032_command_write ; 0x18f3c
        0x00019768:    4604        .F      MOV      r4,r0
        0x0001976a:    b10c        ..      CBZ      r4,0x19770 ; am_devices_mspi_atxp032_reset + 100
        0x0001976c:    2001        .       MOVS     r0,#1
        0x0001976e:    e7e1        ..      B        0x19734 ; am_devices_mspi_atxp032_reset + 40
        0x00019770:    2000        .       MOVS     r0,#0
        0x00019772:    e7df        ..      B        0x19734 ; am_devices_mspi_atxp032_reset + 40
    i.am_devices_mspi_atxp032_sector_erase
    am_devices_mspi_atxp032_sector_erase
        0x00019774:    e92d43f0    -..C    PUSH     {r4-r9,lr}
        0x00019778:    b0a3        ..      SUB      sp,sp,#0x8c
        0x0001977a:    4605        .F      MOV      r5,r0
        0x0001977c:    460e        .F      MOV      r6,r1
        0x0001977e:    2700        .'      MOVS     r7,#0
        0x00019780:    46a9        .F      MOV      r9,r5
        0x00019782:    2180        .!      MOVS     r1,#0x80
        0x00019784:    a803        ..      ADD      r0,sp,#0xc
        0x00019786:    f7fefe8c    ....    BL       __aeabi_memclr4 ; 0x184a2
        0x0001978a:    2000        .       MOVS     r0,#0
        0x0001978c:    a903        ..      ADD      r1,sp,#0xc
        0x0001978e:    4603        .F      MOV      r3,r0
        0x00019790:    4602        .F      MOV      r2,r0
        0x00019792:    e9cd1000    ....    STRD     r1,r0,[sp,#0]
        0x00019796:    2106        .!      MOVS     r1,#6
        0x00019798:    4628        (F      MOV      r0,r5
        0x0001979a:    f7fffbcf    ....    BL       am_devices_mspi_atxp032_command_write ; 0x18f3c
        0x0001979e:    4604        .F      MOV      r4,r0
        0x000197a0:    b11c        ..      CBZ      r4,0x197aa ; am_devices_mspi_atxp032_sector_erase + 54
        0x000197a2:    2001        .       MOVS     r0,#1
        0x000197a4:    b023        #.      ADD      sp,sp,#0x8c
        0x000197a6:    e8bd83f0    ....    POP      {r4-r9,pc}
        0x000197aa:    2000        .       MOVS     r0,#0
        0x000197ac:    a903        ..      ADD      r1,sp,#0xc
        0x000197ae:    4633        3F      MOV      r3,r6
        0x000197b0:    2201        ."      MOVS     r2,#1
        0x000197b2:    e9cd1000    ....    STRD     r1,r0,[sp,#0]
        0x000197b6:    2139        9!      MOVS     r1,#0x39
        0x000197b8:    4628        (F      MOV      r0,r5
        0x000197ba:    f7fffbbf    ....    BL       am_devices_mspi_atxp032_command_write ; 0x18f3c
        0x000197be:    4604        .F      MOV      r4,r0
        0x000197c0:    b10c        ..      CBZ      r4,0x197c6 ; am_devices_mspi_atxp032_sector_erase + 82
        0x000197c2:    2001        .       MOVS     r0,#1
        0x000197c4:    e7ee        ..      B        0x197a4 ; am_devices_mspi_atxp032_sector_erase + 48
        0x000197c6:    2000        .       MOVS     r0,#0
        0x000197c8:    a903        ..      ADD      r1,sp,#0xc
        0x000197ca:    4603        .F      MOV      r3,r0
        0x000197cc:    4602        .F      MOV      r2,r0
        0x000197ce:    e9cd1000    ....    STRD     r1,r0,[sp,#0]
        0x000197d2:    2106        .!      MOVS     r1,#6
        0x000197d4:    4628        (F      MOV      r0,r5
        0x000197d6:    f7fffbb1    ....    BL       am_devices_mspi_atxp032_command_write ; 0x18f3c
        0x000197da:    4604        .F      MOV      r4,r0
        0x000197dc:    b10c        ..      CBZ      r4,0x197e2 ; am_devices_mspi_atxp032_sector_erase + 110
        0x000197de:    2001        .       MOVS     r0,#1
        0x000197e0:    e7e0        ..      B        0x197a4 ; am_devices_mspi_atxp032_sector_erase + 48
        0x000197e2:    2000        .       MOVS     r0,#0
        0x000197e4:    a903        ..      ADD      r1,sp,#0xc
        0x000197e6:    4633        3F      MOV      r3,r6
        0x000197e8:    2201        ."      MOVS     r2,#1
        0x000197ea:    e9cd1000    ....    STRD     r1,r0,[sp,#0]
        0x000197ee:    21d8        .!      MOVS     r1,#0xd8
        0x000197f0:    4628        (F      MOV      r0,r5
        0x000197f2:    f7fffba3    ....    BL       am_devices_mspi_atxp032_command_write ; 0x18f3c
        0x000197f6:    4604        .F      MOV      r4,r0
        0x000197f8:    b10c        ..      CBZ      r4,0x197fe ; am_devices_mspi_atxp032_sector_erase + 138
        0x000197fa:    2001        .       MOVS     r0,#1
        0x000197fc:    e7d2        ..      B        0x197a4 ; am_devices_mspi_atxp032_sector_erase + 48
        0x000197fe:    f04f0800    O...    MOV      r8,#0
        0x00019802:    e046        F.      B        0x19892 ; am_devices_mspi_atxp032_sector_erase + 286
        0x00019804:    f8990010    ....    LDRB     r0,[r9,#0x10]
        0x00019808:    2808        .(      CMP      r0,#8
        0x0001980a:    d238        8.      BCS      0x1987e ; am_devices_mspi_atxp032_sector_erase + 266
        0x0001980c:    e8dff000    ....    TBB      [pc,r0]
    $d
        0x00019810:    37370504    ..77    DCD    926352644
        0x00019814:    27261615    ..&'    DCD    656807445
    $t
        0x00019818:    bf00        ..      NOP      
        0x0001981a:    2002        .       MOVS     r0,#2
        0x0001981c:    a903        ..      ADD      r1,sp,#0xc
        0x0001981e:    2300        .#      MOVS     r3,#0
        0x00019820:    461a        .F      MOV      r2,r3
        0x00019822:    e9cd1000    ....    STRD     r1,r0,[sp,#0]
        0x00019826:    2105        .!      MOVS     r1,#5
        0x00019828:    4628        (F      MOV      r0,r5
        0x0001982a:    f7fffb39    ..9.    BL       am_devices_mspi_atxp032_command_read ; 0x18ea0
        0x0001982e:    9803        ..      LDR      r0,[sp,#0xc]
        0x00019830:    f0000001    ....    AND      r0,r0,#1
        0x00019834:    f0800701    ....    EOR      r7,r0,#1
        0x00019838:    e023        #.      B        0x19882 ; am_devices_mspi_atxp032_sector_erase + 270
        0x0001983a:    bf00        ..      NOP      
        0x0001983c:    2004        .       MOVS     r0,#4
        0x0001983e:    a903        ..      ADD      r1,sp,#0xc
        0x00019840:    2300        .#      MOVS     r3,#0
        0x00019842:    461a        .F      MOV      r2,r3
        0x00019844:    e9cd1000    ....    STRD     r1,r0,[sp,#0]
        0x00019848:    2105        .!      MOVS     r1,#5
        0x0001984a:    4628        (F      MOV      r0,r5
        0x0001984c:    f7fffb28    ..(.    BL       am_devices_mspi_atxp032_command_read ; 0x18ea0
        0x00019850:    9803        ..      LDR      r0,[sp,#0xc]
        0x00019852:    f3c04000    ...@    UBFX     r0,r0,#16,#1
        0x00019856:    f0800701    ....    EOR      r7,r0,#1
        0x0001985a:    e012        ..      B        0x19882 ; am_devices_mspi_atxp032_sector_erase + 270
        0x0001985c:    bf00        ..      NOP      
        0x0001985e:    2006        .       MOVS     r0,#6
        0x00019860:    a903        ..      ADD      r1,sp,#0xc
        0x00019862:    2300        .#      MOVS     r3,#0
        0x00019864:    461a        .F      MOV      r2,r3
        0x00019866:    e9cd1000    ....    STRD     r1,r0,[sp,#0]
        0x0001986a:    2105        .!      MOVS     r1,#5
        0x0001986c:    4628        (F      MOV      r0,r5
        0x0001986e:    f7fffb17    ....    BL       am_devices_mspi_atxp032_command_read ; 0x18ea0
        0x00019872:    9804        ..      LDR      r0,[sp,#0x10]
        0x00019874:    f0000001    ....    AND      r0,r0,#1
        0x00019878:    f0800701    ....    EOR      r7,r0,#1
        0x0001987c:    e001        ..      B        0x19882 ; am_devices_mspi_atxp032_sector_erase + 270
        0x0001987e:    2001        .       MOVS     r0,#1
        0x00019880:    e790        ..      B        0x197a4 ; am_devices_mspi_atxp032_sector_erase + 48
        0x00019882:    bf00        ..      NOP      
        0x00019884:    b107        ..      CBZ      r7,0x19888 ; am_devices_mspi_atxp032_sector_erase + 276
        0x00019886:    e007        ..      B        0x19898 ; am_devices_mspi_atxp032_sector_erase + 292
        0x00019888:    200a        .       MOVS     r0,#0xa
        0x0001988a:    f002fee1    ....    BL       am_util_delay_ms ; 0x1c650
        0x0001988e:    f1080801    ....    ADD      r8,r8,#1
        0x00019892:    480b        .H      LDR      r0,[pc,#44] ; [0x198c0] = 0xf4240
        0x00019894:    4580        .E      CMP      r8,r0
        0x00019896:    d3b5        ..      BCC      0x19804 ; am_devices_mspi_atxp032_sector_erase + 144
        0x00019898:    bf00        ..      NOP      
        0x0001989a:    b90f        ..      CBNZ     r7,0x198a0 ; am_devices_mspi_atxp032_sector_erase + 300
        0x0001989c:    2001        .       MOVS     r0,#1
        0x0001989e:    e781        ..      B        0x197a4 ; am_devices_mspi_atxp032_sector_erase + 48
        0x000198a0:    2000        .       MOVS     r0,#0
        0x000198a2:    a903        ..      ADD      r1,sp,#0xc
        0x000198a4:    4603        .F      MOV      r3,r0
        0x000198a6:    4602        .F      MOV      r2,r0
        0x000198a8:    e9cd1000    ....    STRD     r1,r0,[sp,#0]
        0x000198ac:    2104        .!      MOVS     r1,#4
        0x000198ae:    4628        (F      MOV      r0,r5
        0x000198b0:    f7fffb44    ..D.    BL       am_devices_mspi_atxp032_command_write ; 0x18f3c
        0x000198b4:    4604        .F      MOV      r4,r0
        0x000198b6:    b10c        ..      CBZ      r4,0x198bc ; am_devices_mspi_atxp032_sector_erase + 328
        0x000198b8:    2001        .       MOVS     r0,#1
        0x000198ba:    e773        s.      B        0x197a4 ; am_devices_mspi_atxp032_sector_erase + 48
        0x000198bc:    2000        .       MOVS     r0,#0
        0x000198be:    e771        q.      B        0x197a4 ; am_devices_mspi_atxp032_sector_erase + 48
    $d
        0x000198c0:    000f4240    @B..    DCD    1000000
    $t
    i.am_devices_mspi_atxp032_write
    am_devices_mspi_atxp032_write
        0x000198c4:    e92d4fff    -..O    PUSH     {r0-r11,lr}
        0x000198c8:    b0ab        ..      SUB      sp,sp,#0xac
        0x000198ca:    4606        .F      MOV      r6,r0
        0x000198cc:    460f        .F      MOV      r7,r1
        0x000198ce:    2000        .       MOVS     r0,#0
        0x000198d0:    9024        $.      STR      r0,[sp,#0x90]
        0x000198d2:    9c2e        ..      LDR      r4,[sp,#0xb8]
        0x000198d4:    f8dd80b4    ....    LDR      r8,[sp,#0xb4]
        0x000198d8:    46b9        .F      MOV      r9,r7
        0x000198da:    46b2        .F      MOV      r10,r6
        0x000198dc:    2180        .!      MOVS     r1,#0x80
        0x000198de:    a804        ..      ADD      r0,sp,#0x10
        0x000198e0:    f7fefddf    ....    BL       __aeabi_memclr4 ; 0x184a2
        0x000198e4:    e0ac        ..      B        0x19a40 ; am_devices_mspi_atxp032_write + 380
        0x000198e6:    2000        .       MOVS     r0,#0
        0x000198e8:    a904        ..      ADD      r1,sp,#0x10
        0x000198ea:    4603        .F      MOV      r3,r0
        0x000198ec:    4602        .F      MOV      r2,r0
        0x000198ee:    e9cd1000    ....    STRD     r1,r0,[sp,#0]
        0x000198f2:    2106        .!      MOVS     r1,#6
        0x000198f4:    4630        0F      MOV      r0,r6
        0x000198f6:    f7fffb21    ..!.    BL       am_devices_mspi_atxp032_command_write ; 0x18f3c
        0x000198fa:    4605        .F      MOV      r5,r0
        0x000198fc:    b11d        ..      CBZ      r5,0x19906 ; am_devices_mspi_atxp032_write + 66
        0x000198fe:    2001        .       MOVS     r0,#1
        0x00019900:    b02f        /.      ADD      sp,sp,#0xbc
        0x00019902:    e8bd8ff0    ....    POP      {r4-r11,pc}
        0x00019906:    2001        .       MOVS     r0,#1
        0x00019908:    f88d0094    ....    STRB     r0,[sp,#0x94]
        0x0001990c:    f88d0095    ....    STRB     r0,[sp,#0x95]
        0x00019910:    f5b47f80    ....    CMP      r4,#0x100
        0x00019914:    d904        ..      BLS      0x19920 ; am_devices_mspi_atxp032_write + 92
        0x00019916:    0200        ..      LSLS     r0,r0,#8
        0x00019918:    9026        &.      STR      r0,[sp,#0x98]
        0x0001991a:    f5a47480    ...t    SUB      r4,r4,#0x100
        0x0001991e:    e001        ..      B        0x19924 ; am_devices_mspi_atxp032_write + 96
        0x00019920:    9426        &.      STR      r4,[sp,#0x98]
        0x00019922:    2400        .$      MOVS     r4,#0
        0x00019924:    f8cd809c    ....    STR      r8,[sp,#0x9c]
        0x00019928:    f5087880    ...x    ADD      r8,r8,#0x100
        0x0001992c:    f8cd90a0    ....    STR      r9,[sp,#0xa0]
        0x00019930:    f5097980    ...y    ADD      r9,r9,#0x100
        0x00019934:    2000        .       MOVS     r0,#0
        0x00019936:    9029        ).      STR      r0,[sp,#0xa4]
        0x00019938:    902a        *.      STR      r0,[sp,#0xa8]
        0x0001993a:    1e40        @.      SUBS     r0,r0,#1
        0x0001993c:    9003        ..      STR      r0,[sp,#0xc]
        0x0001993e:    a803        ..      ADD      r0,sp,#0xc
        0x00019940:    9000        ..      STR      r0,[sp,#0]
        0x00019942:    4b42        BK      LDR      r3,[pc,#264] ; [0x19a4c] = 0x1e057
        0x00019944:    2201        ."      MOVS     r2,#1
        0x00019946:    a925        %.      ADD      r1,sp,#0x94
        0x00019948:    f8da0004    ....    LDR      r0,[r10,#4]
        0x0001994c:    f001ff76    ..v.    BL       am_hal_mspi_nonblocking_transfer ; 0x1b83c
        0x00019950:    4605        .F      MOV      r5,r0
        0x00019952:    b10d        ..      CBZ      r5,0x19958 ; am_devices_mspi_atxp032_write + 148
        0x00019954:    2001        .       MOVS     r0,#1
        0x00019956:    e7d3        ..      B        0x19900 ; am_devices_mspi_atxp032_write + 60
        0x00019958:    f04f0b00    O...    MOV      r11,#0
        0x0001995c:    e007        ..      B        0x1996e ; am_devices_mspi_atxp032_write + 170
        0x0001995e:    9803        ..      LDR      r0,[sp,#0xc]
        0x00019960:    b900        ..      CBNZ     r0,0x19964 ; am_devices_mspi_atxp032_write + 160
        0x00019962:    e007        ..      B        0x19974 ; am_devices_mspi_atxp032_write + 176
        0x00019964:    2001        .       MOVS     r0,#1
        0x00019966:    f002fe7c    ..|.    BL       am_util_delay_us ; 0x1c662
        0x0001996a:    f10b0b01    ....    ADD      r11,r11,#1
        0x0001996e:    4838        8H      LDR      r0,[pc,#224] ; [0x19a50] = 0xf4240
        0x00019970:    4583        .E      CMP      r11,r0
        0x00019972:    d3f4        ..      BCC      0x1995e ; am_devices_mspi_atxp032_write + 154
        0x00019974:    bf00        ..      NOP      
        0x00019976:    9803        ..      LDR      r0,[sp,#0xc]
        0x00019978:    b108        ..      CBZ      r0,0x1997e ; am_devices_mspi_atxp032_write + 186
        0x0001997a:    2001        .       MOVS     r0,#1
        0x0001997c:    e7c0        ..      B        0x19900 ; am_devices_mspi_atxp032_write + 60
        0x0001997e:    f04f0b00    O...    MOV      r11,#0
        0x00019982:    e04a        J.      B        0x19a1a ; am_devices_mspi_atxp032_write + 342
        0x00019984:    f89a0010    ....    LDRB     r0,[r10,#0x10]
        0x00019988:    2808        .(      CMP      r0,#8
        0x0001998a:    d23b        ;.      BCS      0x19a04 ; am_devices_mspi_atxp032_write + 320
        0x0001998c:    e8dff000    ....    TBB      [pc,r0]
    $d
        0x00019990:    3a3a0504    ..::    DCD    976880900
        0x00019994:    29281716    ..()    DCD    690493206
    $t
        0x00019998:    bf00        ..      NOP      
        0x0001999a:    2002        .       MOVS     r0,#2
        0x0001999c:    a904        ..      ADD      r1,sp,#0x10
        0x0001999e:    2300        .#      MOVS     r3,#0
        0x000199a0:    461a        .F      MOV      r2,r3
        0x000199a2:    e9cd1000    ....    STRD     r1,r0,[sp,#0]
        0x000199a6:    2105        .!      MOVS     r1,#5
        0x000199a8:    4630        0F      MOV      r0,r6
        0x000199aa:    f7fffa79    ..y.    BL       am_devices_mspi_atxp032_command_read ; 0x18ea0
        0x000199ae:    9804        ..      LDR      r0,[sp,#0x10]
        0x000199b0:    f0000001    ....    AND      r0,r0,#1
        0x000199b4:    f0800001    ....    EOR      r0,r0,#1
        0x000199b8:    9024        $.      STR      r0,[sp,#0x90]
        0x000199ba:    e025        %.      B        0x19a08 ; am_devices_mspi_atxp032_write + 324
        0x000199bc:    bf00        ..      NOP      
        0x000199be:    2004        .       MOVS     r0,#4
        0x000199c0:    a904        ..      ADD      r1,sp,#0x10
        0x000199c2:    2300        .#      MOVS     r3,#0
        0x000199c4:    461a        .F      MOV      r2,r3
        0x000199c6:    e9cd1000    ....    STRD     r1,r0,[sp,#0]
        0x000199ca:    2105        .!      MOVS     r1,#5
        0x000199cc:    4630        0F      MOV      r0,r6
        0x000199ce:    f7fffa67    ..g.    BL       am_devices_mspi_atxp032_command_read ; 0x18ea0
        0x000199d2:    9804        ..      LDR      r0,[sp,#0x10]
        0x000199d4:    f3c04000    ...@    UBFX     r0,r0,#16,#1
        0x000199d8:    f0800001    ....    EOR      r0,r0,#1
        0x000199dc:    9024        $.      STR      r0,[sp,#0x90]
        0x000199de:    e013        ..      B        0x19a08 ; am_devices_mspi_atxp032_write + 324
        0x000199e0:    bf00        ..      NOP      
        0x000199e2:    2006        .       MOVS     r0,#6
        0x000199e4:    a904        ..      ADD      r1,sp,#0x10
        0x000199e6:    2300        .#      MOVS     r3,#0
        0x000199e8:    461a        .F      MOV      r2,r3
        0x000199ea:    e9cd1000    ....    STRD     r1,r0,[sp,#0]
        0x000199ee:    2105        .!      MOVS     r1,#5
        0x000199f0:    4630        0F      MOV      r0,r6
        0x000199f2:    f7fffa55    ..U.    BL       am_devices_mspi_atxp032_command_read ; 0x18ea0
        0x000199f6:    9805        ..      LDR      r0,[sp,#0x14]
        0x000199f8:    f0000001    ....    AND      r0,r0,#1
        0x000199fc:    f0800001    ....    EOR      r0,r0,#1
        0x00019a00:    9024        $.      STR      r0,[sp,#0x90]
        0x00019a02:    e001        ..      B        0x19a08 ; am_devices_mspi_atxp032_write + 324
        0x00019a04:    2001        .       MOVS     r0,#1
        0x00019a06:    e77b        {.      B        0x19900 ; am_devices_mspi_atxp032_write + 60
        0x00019a08:    bf00        ..      NOP      
        0x00019a0a:    2064        d       MOVS     r0,#0x64
        0x00019a0c:    f002fe29    ..).    BL       am_util_delay_us ; 0x1c662
        0x00019a10:    9824        $.      LDR      r0,[sp,#0x90]
        0x00019a12:    b100        ..      CBZ      r0,0x19a16 ; am_devices_mspi_atxp032_write + 338
        0x00019a14:    e004        ..      B        0x19a20 ; am_devices_mspi_atxp032_write + 348
        0x00019a16:    f10b0b01    ....    ADD      r11,r11,#1
        0x00019a1a:    480d        .H      LDR      r0,[pc,#52] ; [0x19a50] = 0xf4240
        0x00019a1c:    4583        .E      CMP      r11,r0
        0x00019a1e:    d3b1        ..      BCC      0x19984 ; am_devices_mspi_atxp032_write + 192
        0x00019a20:    bf00        ..      NOP      
        0x00019a22:    2000        .       MOVS     r0,#0
        0x00019a24:    a904        ..      ADD      r1,sp,#0x10
        0x00019a26:    4603        .F      MOV      r3,r0
        0x00019a28:    4602        .F      MOV      r2,r0
        0x00019a2a:    e9cd1000    ....    STRD     r1,r0,[sp,#0]
        0x00019a2e:    2104        .!      MOVS     r1,#4
        0x00019a30:    4630        0F      MOV      r0,r6
        0x00019a32:    f7fffa83    ....    BL       am_devices_mspi_atxp032_command_write ; 0x18f3c
        0x00019a36:    4605        .F      MOV      r5,r0
        0x00019a38:    b10d        ..      CBZ      r5,0x19a3e ; am_devices_mspi_atxp032_write + 378
        0x00019a3a:    2001        .       MOVS     r0,#1
        0x00019a3c:    e760        `.      B        0x19900 ; am_devices_mspi_atxp032_write + 60
        0x00019a3e:    bf00        ..      NOP      
        0x00019a40:    2c00        .,      CMP      r4,#0
        0x00019a42:    f47faf50    ..P.    BNE      0x198e6 ; am_devices_mspi_atxp032_write + 34
        0x00019a46:    2000        .       MOVS     r0,#0
        0x00019a48:    e75a        Z.      B        0x19900 ; am_devices_mspi_atxp032_write + 60
    $d
        0x00019a4a:    0000        ..      DCW    0
        0x00019a4c:    0001e057    W...    DCD    122967
        0x00019a50:    000f4240    @B..    DCD    1000000
    $t
    i.am_hal_cmdq_alloc_block
    am_hal_cmdq_alloc_block
        0x00019a54:    b5f8        ..      PUSH     {r3-r7,lr}
        0x00019a56:    461e        .F      MOV      r6,r3
        0x00019a58:    4617        .F      MOV      r7,r2
        0x00019a5a:    460d        .F      MOV      r5,r1
        0x00019a5c:    1e04        ..      SUBS     r4,r0,#0
        0x00019a5e:    bf1c        ..      ITT      NE
        0x00019a60:    6820         h      LDRNE    r0,[r4,#0]
        0x00019a62:    f0107f80    ....    TSTNE    r0,#0x1000000
        0x00019a66:    d004        ..      BEQ      0x19a72 ; am_hal_cmdq_alloc_block + 30
        0x00019a68:    492c        ,I      LDR      r1,[pc,#176] ; [0x19b1c] = 0xcdcdcd
        0x00019a6a:    f020407f     ..@    BIC      r0,r0,#0xff000000
        0x00019a6e:    4288        .B      CMP      r0,r1
        0x00019a70:    d001        ..      BEQ      0x19a76 ; am_hal_cmdq_alloc_block + 34
        0x00019a72:    2002        .       MOVS     r0,#2
        0x00019a74:    bdf8        ..      POP      {r3-r7,pc}
        0x00019a76:    2f00        ./      CMP      r7,#0
        0x00019a78:    bf12        ..      ITEE     NE
        0x00019a7a:    2e00        ..      CMPNE    r6,#0
        0x00019a7c:    2006        .       MOVEQ    r0,#6
        0x00019a7e:    bdf8        ..      POPEQ    {r3-r7,pc}
        0x00019a80:    e9d40104    ....    LDRD     r0,r1,[r4,#0x10]
        0x00019a84:    4288        .B      CMP      r0,r1
        0x00019a86:    bf1c        ..      ITT      NE
        0x00019a88:    2007        .       MOVNE    r0,#7
        0x00019a8a:    bdf8        ..      POPNE    {r3-r7,pc}
        0x00019a8c:    f7fefc8a    ....    BL       am_hal_interrupt_master_disable ; 0x183a4
        0x00019a90:    9000        ..      STR      r0,[sp,#0]
        0x00019a92:    6a60        `j      LDR      r0,[r4,#0x24]
        0x00019a94:    6880        .h      LDR      r0,[r0,#8]
        0x00019a96:    6800        .h      LDR      r0,[r0,#0]
        0x00019a98:    6a21        !j      LDR      r1,[r4,#0x20]
        0x00019a9a:    b2c0        ..      UXTB     r0,r0
        0x00019a9c:    f02101ff    !...    BIC      r1,r1,#0xff
        0x00019aa0:    4308        .C      ORRS     r0,r0,r1
        0x00019aa2:    61e0        .a      STR      r0,[r4,#0x1c]
        0x00019aa4:    6a21        !j      LDR      r1,[r4,#0x20]
        0x00019aa6:    1a09        ..      SUBS     r1,r1,r0
        0x00019aa8:    bf44        D.      ITT      MI
        0x00019aaa:    f5a07080    ...p    SUBMI    r0,r0,#0x100
        0x00019aae:    61e0        .a      STRMI    r0,[r4,#0x1c]
        0x00019ab0:    6a60        `j      LDR      r0,[r4,#0x24]
        0x00019ab2:    6840        @h      LDR      r0,[r0,#4]
        0x00019ab4:    6800        .h      LDR      r0,[r0,#0]
        0x00019ab6:    60e0        .`      STR      r0,[r4,#0xc]
        0x00019ab8:    9800        ..      LDR      r0,[sp,#0]
        0x00019aba:    f7fefc77    ..w.    BL       am_hal_interrupt_master_set ; 0x183ac
        0x00019abe:    e9d40107    ....    LDRD     r0,r1,[r4,#0x1c]
        0x00019ac2:    1a40        @.      SUBS     r0,r0,r1
        0x00019ac4:    f1100ffe    ....    CMN      r0,#0xfe
        0x00019ac8:    d41c        ..      BMI      0x19b04 ; am_hal_cmdq_alloc_block + 176
        0x00019aca:    e9d42003    ...     LDRD     r2,r0,[r4,#0xc]
        0x00019ace:    2108        .!      MOVS     r1,#8
        0x00019ad0:    eb0101c5    ....    ADD      r1,r1,r5,LSL #3
        0x00019ad4:    4290        .B      CMP      r0,r2
        0x00019ad6:    d312        ..      BCC      0x19afe ; am_hal_cmdq_alloc_block + 170
        0x00019ad8:    2310        .#      MOVS     r3,#0x10
        0x00019ada:    eb0303c5    ....    ADD      r3,r3,r5,LSL #3
        0x00019ade:    f8d4c008    ....    LDR      r12,[r4,#8]
        0x00019ae2:    4403        .D      ADD      r3,r3,r0
        0x00019ae4:    4563        cE      CMP      r3,r12
        0x00019ae6:    d90f        ..      BLS      0x19b08 ; am_hal_cmdq_alloc_block + 180
        0x00019ae8:    6863        ch      LDR      r3,[r4,#4]
        0x00019aea:    4419        .D      ADD      r1,r1,r3
        0x00019aec:    428a        .B      CMP      r2,r1
        0x00019aee:    d909        ..      BLS      0x19b04 ; am_hal_cmdq_alloc_block + 176
        0x00019af0:    6a61        aj      LDR      r1,[r4,#0x24]
        0x00019af2:    6849        Ih      LDR      r1,[r1,#4]
        0x00019af4:    6001        .`      STR      r1,[r0,#0]
        0x00019af6:    6861        ah      LDR      r1,[r4,#4]
        0x00019af8:    6041        A`      STR      r1,[r0,#4]
        0x00019afa:    6860        `h      LDR      r0,[r4,#4]
        0x00019afc:    e004        ..      B        0x19b08 ; am_hal_cmdq_alloc_block + 180
        0x00019afe:    4401        .D      ADD      r1,r1,r0
        0x00019b00:    4291        .B      CMP      r1,r2
        0x00019b02:    d301        ..      BCC      0x19b08 ; am_hal_cmdq_alloc_block + 180
        0x00019b04:    2005        .       MOVS     r0,#5
        0x00019b06:    bdf8        ..      POP      {r3-r7,pc}
        0x00019b08:    6038        8`      STR      r0,[r7,#0]
        0x00019b0a:    6a21        !j      LDR      r1,[r4,#0x20]
        0x00019b0c:    eb0000c5    ....    ADD      r0,r0,r5,LSL #3
        0x00019b10:    1c49        I.      ADDS     r1,r1,#1
        0x00019b12:    6221        !b      STR      r1,[r4,#0x20]
        0x00019b14:    6031        1`      STR      r1,[r6,#0]
        0x00019b16:    6160        `a      STR      r0,[r4,#0x14]
        0x00019b18:    2000        .       MOVS     r0,#0
        0x00019b1a:    bdf8        ..      POP      {r3-r7,pc}
    $d
        0x00019b1c:    00cdcdcd    ....    DCD    13487565
    $t
    i.am_hal_cmdq_disable
    am_hal_cmdq_disable
        0x00019b20:    2800        .(      CMP      r0,#0
        0x00019b22:    bf1c        ..      ITT      NE
        0x00019b24:    6801        .h      LDRNE    r1,[r0,#0]
        0x00019b26:    f0117f80    ....    TSTNE    r1,#0x1000000
        0x00019b2a:    d004        ..      BEQ      0x19b36 ; am_hal_cmdq_disable + 22
        0x00019b2c:    4b0b        .K      LDR      r3,[pc,#44] ; [0x19b5c] = 0xcdcdcd
        0x00019b2e:    f021427f    !..B    BIC      r2,r1,#0xff000000
        0x00019b32:    429a        .B      CMP      r2,r3
        0x00019b34:    d001        ..      BEQ      0x19b3a ; am_hal_cmdq_disable + 26
        0x00019b36:    2002        .       MOVS     r0,#2
        0x00019b38:    4770        pG      BX       lr
        0x00019b3a:    f0117f00    ....    TST      r1,#0x2000000
        0x00019b3e:    bf04        ..      ITT      EQ
        0x00019b40:    2000        .       MOVEQ    r0,#0
        0x00019b42:    4770        pG      BXEQ     lr
        0x00019b44:    6a41        Aj      LDR      r1,[r0,#0x24]
        0x00019b46:    6809        .h      LDR      r1,[r1,#0]
        0x00019b48:    680a        .h      LDR      r2,[r1,#0]
        0x00019b4a:    f0220201    "...    BIC      r2,r2,#1
        0x00019b4e:    600a        .`      STR      r2,[r1,#0]
        0x00019b50:    6801        .h      LDR      r1,[r0,#0]
        0x00019b52:    f0217100    !..q    BIC      r1,r1,#0x2000000
        0x00019b56:    6001        .`      STR      r1,[r0,#0]
        0x00019b58:    2000        .       MOVS     r0,#0
        0x00019b5a:    4770        pG      BX       lr
    $d
        0x00019b5c:    00cdcdcd    ....    DCD    13487565
    $t
    i.am_hal_cmdq_enable
    am_hal_cmdq_enable
        0x00019b60:    2800        .(      CMP      r0,#0
        0x00019b62:    bf1c        ..      ITT      NE
        0x00019b64:    6801        .h      LDRNE    r1,[r0,#0]
        0x00019b66:    f0117f80    ....    TSTNE    r1,#0x1000000
        0x00019b6a:    d004        ..      BEQ      0x19b76 ; am_hal_cmdq_enable + 22
        0x00019b6c:    4b0b        .K      LDR      r3,[pc,#44] ; [0x19b9c] = 0xcdcdcd
        0x00019b6e:    f021427f    !..B    BIC      r2,r1,#0xff000000
        0x00019b72:    429a        .B      CMP      r2,r3
        0x00019b74:    d001        ..      BEQ      0x19b7a ; am_hal_cmdq_enable + 26
        0x00019b76:    2002        .       MOVS     r0,#2
        0x00019b78:    4770        pG      BX       lr
        0x00019b7a:    f0117f00    ....    TST      r1,#0x2000000
        0x00019b7e:    bf1c        ..      ITT      NE
        0x00019b80:    2000        .       MOVNE    r0,#0
        0x00019b82:    4770        pG      BXNE     lr
        0x00019b84:    6a41        Aj      LDR      r1,[r0,#0x24]
        0x00019b86:    6809        .h      LDR      r1,[r1,#0]
        0x00019b88:    680a        .h      LDR      r2,[r1,#0]
        0x00019b8a:    f0420201    B...    ORR      r2,r2,#1
        0x00019b8e:    600a        .`      STR      r2,[r1,#0]
        0x00019b90:    6801        .h      LDR      r1,[r0,#0]
        0x00019b92:    f0417100    A..q    ORR      r1,r1,#0x2000000
        0x00019b96:    6001        .`      STR      r1,[r0,#0]
        0x00019b98:    2000        .       MOVS     r0,#0
        0x00019b9a:    4770        pG      BX       lr
    $d
        0x00019b9c:    00cdcdcd    ....    DCD    13487565
    $t
    i.am_hal_cmdq_error_resume
    am_hal_cmdq_error_resume
        0x00019ba0:    2800        .(      CMP      r0,#0
        0x00019ba2:    bf1c        ..      ITT      NE
        0x00019ba4:    6801        .h      LDRNE    r1,[r0,#0]
        0x00019ba6:    f0117f80    ....    TSTNE    r1,#0x1000000
        0x00019baa:    d004        ..      BEQ      0x19bb6 ; am_hal_cmdq_error_resume + 22
        0x00019bac:    4b18        .K      LDR      r3,[pc,#96] ; [0x19c10] = 0xcdcdcd
        0x00019bae:    f021427f    !..B    BIC      r2,r1,#0xff000000
        0x00019bb2:    429a        .B      CMP      r2,r3
        0x00019bb4:    d001        ..      BEQ      0x19bba ; am_hal_cmdq_error_resume + 26
        0x00019bb6:    2002        .       MOVS     r0,#2
        0x00019bb8:    4770        pG      BX       lr
        0x00019bba:    f0117f00    ....    TST      r1,#0x2000000
        0x00019bbe:    bf04        ..      ITT      EQ
        0x00019bc0:    2000        .       MOVEQ    r0,#0
        0x00019bc2:    4770        pG      BXEQ     lr
        0x00019bc4:    6a41        Aj      LDR      r1,[r0,#0x24]
        0x00019bc6:    6809        .h      LDR      r1,[r1,#0]
        0x00019bc8:    680a        .h      LDR      r2,[r1,#0]
        0x00019bca:    f0220201    "...    BIC      r2,r2,#1
        0x00019bce:    600a        .`      STR      r2,[r1,#0]
        0x00019bd0:    6a42        Bj      LDR      r2,[r0,#0x24]
        0x00019bd2:    6853        Sh      LDR      r3,[r2,#4]
        0x00019bd4:    6819        .h      LDR      r1,[r3,#0]
        0x00019bd6:    6892        .h      LDR      r2,[r2,#8]
        0x00019bd8:    f8d1c000    ....    LDR      r12,[r1,#0]
        0x00019bdc:    f02c0c01    ,...    BIC      r12,r12,#1
        0x00019be0:    4594        .E      CMP      r12,r2
        0x00019be2:    d00b        ..      BEQ      0x19bfc ; am_hal_cmdq_error_resume + 92
        0x00019be4:    f8d1c000    ....    LDR      r12,[r1,#0]
        0x00019be8:    459c        .E      CMP      r12,r3
        0x00019bea:    bf0c        ..      ITE      EQ
        0x00019bec:    6849        Ih      LDREQ    r1,[r1,#4]
        0x00019bee:    3108        .1      ADDNE    r1,r1,#8
        0x00019bf0:    f8d1c000    ....    LDR      r12,[r1,#0]
        0x00019bf4:    f02c0c01    ,...    BIC      r12,r12,#1
        0x00019bf8:    4594        .E      CMP      r12,r2
        0x00019bfa:    d1f3        ..      BNE      0x19be4 ; am_hal_cmdq_error_resume + 68
        0x00019bfc:    600a        .`      STR      r2,[r1,#0]
        0x00019bfe:    6a42        Bj      LDR      r2,[r0,#0x24]
        0x00019c00:    6852        Rh      LDR      r2,[r2,#4]
        0x00019c02:    6011        .`      STR      r1,[r2,#0]
        0x00019c04:    6801        .h      LDR      r1,[r0,#0]
        0x00019c06:    f0217100    !..q    BIC      r1,r1,#0x2000000
        0x00019c0a:    6001        .`      STR      r1,[r0,#0]
        0x00019c0c:    2000        .       MOVS     r0,#0
        0x00019c0e:    4770        pG      BX       lr
    $d
        0x00019c10:    00cdcdcd    ....    DCD    13487565
    $t
    i.am_hal_cmdq_get_status
    am_hal_cmdq_get_status
        0x00019c14:    b538        8.      PUSH     {r3-r5,lr}
        0x00019c16:    460d        .F      MOV      r5,r1
        0x00019c18:    1e04        ..      SUBS     r4,r0,#0
        0x00019c1a:    bf1c        ..      ITT      NE
        0x00019c1c:    6820         h      LDRNE    r0,[r4,#0]
        0x00019c1e:    f0107f80    ....    TSTNE    r0,#0x1000000
        0x00019c22:    d004        ..      BEQ      0x19c2e ; am_hal_cmdq_get_status + 26
        0x00019c24:    4923        #I      LDR      r1,[pc,#140] ; [0x19cb4] = 0xcdcdcd
        0x00019c26:    f020407f     ..@    BIC      r0,r0,#0xff000000
        0x00019c2a:    4288        .B      CMP      r0,r1
        0x00019c2c:    d001        ..      BEQ      0x19c32 ; am_hal_cmdq_get_status + 30
        0x00019c2e:    2002        .       MOVS     r0,#2
        0x00019c30:    bd38        8.      POP      {r3-r5,pc}
        0x00019c32:    2d00        .-      CMP      r5,#0
        0x00019c34:    bf04        ..      ITT      EQ
        0x00019c36:    2006        .       MOVEQ    r0,#6
        0x00019c38:    bd38        8.      POPEQ    {r3-r5,pc}
        0x00019c3a:    f7fefbb3    ....    BL       am_hal_interrupt_master_disable ; 0x183a4
        0x00019c3e:    9000        ..      STR      r0,[sp,#0]
        0x00019c40:    6a60        `j      LDR      r0,[r4,#0x24]
        0x00019c42:    6880        .h      LDR      r0,[r0,#8]
        0x00019c44:    6800        .h      LDR      r0,[r0,#0]
        0x00019c46:    6a21        !j      LDR      r1,[r4,#0x20]
        0x00019c48:    b2c0        ..      UXTB     r0,r0
        0x00019c4a:    f02101ff    !...    BIC      r1,r1,#0xff
        0x00019c4e:    4308        .C      ORRS     r0,r0,r1
        0x00019c50:    61e0        .a      STR      r0,[r4,#0x1c]
        0x00019c52:    6a21        !j      LDR      r1,[r4,#0x20]
        0x00019c54:    1a09        ..      SUBS     r1,r1,r0
        0x00019c56:    bf44        D.      ITT      MI
        0x00019c58:    f5a07080    ...p    SUBMI    r0,r0,#0x100
        0x00019c5c:    61e0        .a      STRMI    r0,[r4,#0x1c]
        0x00019c5e:    6a60        `j      LDR      r0,[r4,#0x24]
        0x00019c60:    6840        @h      LDR      r0,[r0,#4]
        0x00019c62:    6800        .h      LDR      r0,[r0,#0]
        0x00019c64:    60e0        .`      STR      r0,[r4,#0xc]
        0x00019c66:    9800        ..      LDR      r0,[sp,#0]
        0x00019c68:    f7fefba0    ....    BL       am_hal_interrupt_master_set ; 0x183ac
        0x00019c6c:    69e0        .i      LDR      r0,[r4,#0x1c]
        0x00019c6e:    6028        (`      STR      r0,[r5,#0]
        0x00019c70:    6a20         j      LDR      r0,[r4,#0x20]
        0x00019c72:    60a8        .`      STR      r0,[r5,#8]
        0x00019c74:    e9d40104    ....    LDRD     r0,r1,[r4,#0x10]
        0x00019c78:    4281        .B      CMP      r1,r0
        0x00019c7a:    bf14        ..      ITE      NE
        0x00019c7c:    2001        .       MOVNE    r0,#1
        0x00019c7e:    2000        .       MOVEQ    r0,#0
        0x00019c80:    6a21        !j      LDR      r1,[r4,#0x20]
        0x00019c82:    1a08        ..      SUBS     r0,r1,r0
        0x00019c84:    6068        h`      STR      r0,[r5,#4]
        0x00019c86:    6a61        aj      LDR      r1,[r4,#0x24]
        0x00019c88:    6988        .i      LDR      r0,[r1,#0x18]
        0x00019c8a:    6800        .h      LDR      r0,[r0,#0]
        0x00019c8c:    69c9        .i      LDR      r1,[r1,#0x1c]
        0x00019c8e:    4001        .@      ANDS     r1,r1,r0
        0x00019c90:    bf18        ..      IT       NE
        0x00019c92:    2101        .!      MOVNE    r1,#1
        0x00019c94:    7329        )s      STRB     r1,[r5,#0xc]
        0x00019c96:    6a61        aj      LDR      r1,[r4,#0x24]
        0x00019c98:    6a49        Ij      LDR      r1,[r1,#0x24]
        0x00019c9a:    4001        .@      ANDS     r1,r1,r0
        0x00019c9c:    bf18        ..      IT       NE
        0x00019c9e:    2101        .!      MOVNE    r1,#1
        0x00019ca0:    7369        is      STRB     r1,[r5,#0xd]
        0x00019ca2:    6a61        aj      LDR      r1,[r4,#0x24]
        0x00019ca4:    6a09        .j      LDR      r1,[r1,#0x20]
        0x00019ca6:    4008        .@      ANDS     r0,r0,r1
        0x00019ca8:    bf18        ..      IT       NE
        0x00019caa:    2001        .       MOVNE    r0,#1
        0x00019cac:    73a8        .s      STRB     r0,[r5,#0xe]
        0x00019cae:    2000        .       MOVS     r0,#0
        0x00019cb0:    bd38        8.      POP      {r3-r5,pc}
    $d
        0x00019cb2:    0000        ..      DCW    0
        0x00019cb4:    00cdcdcd    ....    DCD    13487565
    $t
    i.am_hal_cmdq_init
    am_hal_cmdq_init
        0x00019cb8:    280b        .(      CMP      r0,#0xb
        0x00019cba:    bf24        $.      ITT      CS
        0x00019cbc:    2005        .       MOVCS    r0,#5
        0x00019cbe:    4770        pG      BXCS     lr
        0x00019cc0:    2900        .)      CMP      r1,#0
        0x00019cc2:    bf1e        ..      ITTT     NE
        0x00019cc4:    684b        Kh      LDRNE    r3,[r1,#4]
        0x00019cc6:    2b00        .+      CMPNE    r3,#0
        0x00019cc8:    2a00        .*      CMPNE    r2,#0
        0x00019cca:    d004        ..      BEQ      0x19cd6 ; am_hal_cmdq_init + 30
        0x00019ccc:    f8d1c000    ....    LDR      r12,[r1,#0]
        0x00019cd0:    f1bc0f02    ....    CMP      r12,#2
        0x00019cd4:    d201        ..      BCS      0x19cda ; am_hal_cmdq_init + 34
        0x00019cd6:    2006        .       MOVS     r0,#6
        0x00019cd8:    4770        pG      BX       lr
        0x00019cda:    b430        0.      PUSH     {r4,r5}
        0x00019cdc:    eb000340    ..@.    ADD      r3,r0,r0,LSL #1
        0x00019ce0:    4c2e        .L      LDR      r4,[pc,#184] ; [0x19d9c] = 0x10007230
        0x00019ce2:    eb0303c0    ....    ADD      r3,r3,r0,LSL #3
        0x00019ce6:    f8545023    T.#P    LDR      r5,[r4,r3,LSL #2]
        0x00019cea:    f0157f80    ....    TST      r5,#0x1000000
        0x00019cee:    bf1e        ..      ITTT     NE
        0x00019cf0:    2007        .       MOVNE    r0,#7
        0x00019cf2:    bc30        0.      POPNE    {r4,r5}
        0x00019cf4:    4770        pG      BXNE     lr
        0x00019cf6:    eb040383    ....    ADD      r3,r4,r3,LSL #2
        0x00019cfa:    ea4f0ccc    O...    LSL      r12,r12,#3
        0x00019cfe:    f8c3c018    ....    STR      r12,[r3,#0x18]
        0x00019d02:    f8d1c004    ....    LDR      r12,[r1,#4]
        0x00019d06:    f8c3c004    ....    STR      r12,[r3,#4]
        0x00019d0a:    f8c3c00c    ....    STR      r12,[r3,#0xc]
        0x00019d0e:    f8c3c014    ....    STR      r12,[r3,#0x14]
        0x00019d12:    f8c3c010    ....    STR      r12,[r3,#0x10]
        0x00019d16:    e9d14c00    ...L    LDRD     r4,r12,[r1,#0]
        0x00019d1a:    eb0c0cc4    ....    ADD      r12,r12,r4,LSL #3
        0x00019d1e:    f8c3c008    ....    STR      r12,[r3,#8]
        0x00019d22:    f8d3c000    ....    LDR      r12,[r3,#0]
        0x00019d26:    4c1e        .L      LDR      r4,[pc,#120] ; [0x19da0] = 0xcdcdcd
        0x00019d28:    f02c7c00    ,..|    BIC      r12,r12,#0x2000000
        0x00019d2c:    f04c7c80    L..|    ORR      r12,r12,#0x1000000
        0x00019d30:    f3640c17    d...    BFI      r12,r4,#0,#24
        0x00019d34:    f8c3c000    ....    STR      r12,[r3,#0]
        0x00019d38:    f8dfc068    ..h.    LDR      r12,[pc,#104] ; [0x19da4] = 0x1e60c
        0x00019d3c:    eb000080    ....    ADD      r0,r0,r0,LSL #2
        0x00019d40:    eb0c00c0    ....    ADD      r0,r12,r0,LSL #3
        0x00019d44:    6258        Xb      STR      r0,[r3,#0x24]
        0x00019d46:    2000        .       MOVS     r0,#0
        0x00019d48:    61d8        .a      STR      r0,[r3,#0x1c]
        0x00019d4a:    6218        .b      STR      r0,[r3,#0x20]
        0x00019d4c:    f8d3c024    ..$.    LDR      r12,[r3,#0x24]
        0x00019d50:    f8dcc008    ....    LDR      r12,[r12,#8]
        0x00019d54:    f8cc0000    ....    STR      r0,[r12,#0]
        0x00019d58:    f8d3c024    ..$.    LDR      r12,[r3,#0x24]
        0x00019d5c:    f8dcc00c    ....    LDR      r12,[r12,#0xc]
        0x00019d60:    f8cc0000    ....    STR      r0,[r12,#0]
        0x00019d64:    6a58        Xj      LDR      r0,[r3,#0x24]
        0x00019d66:    f8d0c010    ....    LDR      r12,[r0,#0x10]
        0x00019d6a:    f8dc4000    ...@    LDR      r4,[r12,#0]
        0x00019d6e:    6940        @i      LDR      r0,[r0,#0x14]
        0x00019d70:    4320         C      ORRS     r0,r0,r4
        0x00019d72:    f8cc0000    ....    STR      r0,[r12,#0]
        0x00019d76:    f8d3c024    ..$.    LDR      r12,[r3,#0x24]
        0x00019d7a:    6848        Hh      LDR      r0,[r1,#4]
        0x00019d7c:    f8dcc004    ....    LDR      r12,[r12,#4]
        0x00019d80:    f8cc0000    ....    STR      r0,[r12,#0]
        0x00019d84:    7a08        .z      LDRB     r0,[r1,#8]
        0x00019d86:    2102        .!      MOVS     r1,#2
        0x00019d88:    ea010040    ..@.    AND      r0,r1,r0,LSL #1
        0x00019d8c:    6a59        Yj      LDR      r1,[r3,#0x24]
        0x00019d8e:    6809        .h      LDR      r1,[r1,#0]
        0x00019d90:    6008        .`      STR      r0,[r1,#0]
        0x00019d92:    6013        .`      STR      r3,[r2,#0]
        0x00019d94:    bc30        0.      POP      {r4,r5}
        0x00019d96:    2000        .       MOVS     r0,#0
        0x00019d98:    4770        pG      BX       lr
    $d
        0x00019d9a:    0000        ..      DCW    0
        0x00019d9c:    10007230    0r..    DCD    268464688
        0x00019da0:    00cdcdcd    ....    DCD    13487565
        0x00019da4:    0001e60c    ....    DCD    124428
    $t
    i.am_hal_cmdq_post_block
    am_hal_cmdq_post_block
        0x00019da8:    2800        .(      CMP      r0,#0
        0x00019daa:    bf1c        ..      ITT      NE
        0x00019dac:    6802        .h      LDRNE    r2,[r0,#0]
        0x00019dae:    f0127f80    ....    TSTNE    r2,#0x1000000
        0x00019db2:    d004        ..      BEQ      0x19dbe ; am_hal_cmdq_post_block + 22
        0x00019db4:    4b0e        .K      LDR      r3,[pc,#56] ; [0x19df0] = 0xcdcdcd
        0x00019db6:    f022427f    "..B    BIC      r2,r2,#0xff000000
        0x00019dba:    429a        .B      CMP      r2,r3
        0x00019dbc:    d001        ..      BEQ      0x19dc2 ; am_hal_cmdq_post_block + 26
        0x00019dbe:    2002        .       MOVS     r0,#2
        0x00019dc0:    4770        pG      BX       lr
        0x00019dc2:    e9d03204    ...2    LDRD     r3,r2,[r0,#0x10]
        0x00019dc6:    4293        .B      CMP      r3,r2
        0x00019dc8:    bf04        ..      ITT      EQ
        0x00019dca:    2007        .       MOVEQ    r0,#7
        0x00019dcc:    4770        pG      BXEQ     lr
        0x00019dce:    6a43        Cj      LDR      r3,[r0,#0x24]
        0x00019dd0:    689b        .h      LDR      r3,[r3,#8]
        0x00019dd2:    4319        .C      ORRS     r1,r1,r3
        0x00019dd4:    6011        .`      STR      r1,[r2,#0]
        0x00019dd6:    6a01        .j      LDR      r1,[r0,#0x20]
        0x00019dd8:    6051        Q`      STR      r1,[r2,#4]
        0x00019dda:    f1020108    ....    ADD      r1,r2,#8
        0x00019dde:    6141        Aa      STR      r1,[r0,#0x14]
        0x00019de0:    6101        .a      STR      r1,[r0,#0x10]
        0x00019de2:    f8901020    .. .    LDRB     r1,[r0,#0x20]
        0x00019de6:    6a40        @j      LDR      r0,[r0,#0x24]
        0x00019de8:    68c0        .h      LDR      r0,[r0,#0xc]
        0x00019dea:    6001        .`      STR      r1,[r0,#0]
        0x00019dec:    2000        .       MOVS     r0,#0
        0x00019dee:    4770        pG      BX       lr
    $d
        0x00019df0:    00cdcdcd    ....    DCD    13487565
    $t
    i.am_hal_cmdq_post_loop_block
    am_hal_cmdq_post_loop_block
        0x00019df4:    2800        .(      CMP      r0,#0
        0x00019df6:    bf1c        ..      ITT      NE
        0x00019df8:    6802        .h      LDRNE    r2,[r0,#0]
        0x00019dfa:    f0127f80    ....    TSTNE    r2,#0x1000000
        0x00019dfe:    d004        ..      BEQ      0x19e0a ; am_hal_cmdq_post_loop_block + 22
        0x00019e00:    4b12        .K      LDR      r3,[pc,#72] ; [0x19e4c] = 0xcdcdcd
        0x00019e02:    f022427f    "..B    BIC      r2,r2,#0xff000000
        0x00019e06:    429a        .B      CMP      r2,r3
        0x00019e08:    d001        ..      BEQ      0x19e0e ; am_hal_cmdq_post_loop_block + 26
        0x00019e0a:    2002        .       MOVS     r0,#2
        0x00019e0c:    4770        pG      BX       lr
        0x00019e0e:    e9d03204    ...2    LDRD     r3,r2,[r0,#0x10]
        0x00019e12:    4293        .B      CMP      r3,r2
        0x00019e14:    bf04        ..      ITT      EQ
        0x00019e16:    2007        .       MOVEQ    r0,#7
        0x00019e18:    4770        pG      BXEQ     lr
        0x00019e1a:    6a43        Cj      LDR      r3,[r0,#0x24]
        0x00019e1c:    689b        .h      LDR      r3,[r3,#8]
        0x00019e1e:    f8423b04    B..;    STR      r3,[r2],#4
        0x00019e22:    2300        .#      MOVS     r3,#0
        0x00019e24:    f8423b04    B..;    STR      r3,[r2],#4
        0x00019e28:    6a43        Cj      LDR      r3,[r0,#0x24]
        0x00019e2a:    685b        [h      LDR      r3,[r3,#4]
        0x00019e2c:    4319        .C      ORRS     r1,r1,r3
        0x00019e2e:    6011        .`      STR      r1,[r2,#0]
        0x00019e30:    6841        Ah      LDR      r1,[r0,#4]
        0x00019e32:    6051        Q`      STR      r1,[r2,#4]
        0x00019e34:    f1020108    ....    ADD      r1,r2,#8
        0x00019e38:    6141        Aa      STR      r1,[r0,#0x14]
        0x00019e3a:    6101        .a      STR      r1,[r0,#0x10]
        0x00019e3c:    f8901020    .. .    LDRB     r1,[r0,#0x20]
        0x00019e40:    6a40        @j      LDR      r0,[r0,#0x24]
        0x00019e42:    68c0        .h      LDR      r0,[r0,#0xc]
        0x00019e44:    6001        .`      STR      r1,[r0,#0]
        0x00019e46:    2000        .       MOVS     r0,#0
        0x00019e48:    4770        pG      BX       lr
    $d
        0x00019e4a:    0000        ..      DCW    0
        0x00019e4c:    00cdcdcd    ....    DCD    13487565
    $t
    i.am_hal_cmdq_release_block
    am_hal_cmdq_release_block
        0x00019e50:    2800        .(      CMP      r0,#0
        0x00019e52:    bf1c        ..      ITT      NE
        0x00019e54:    6801        .h      LDRNE    r1,[r0,#0]
        0x00019e56:    f0117f80    ....    TSTNE    r1,#0x1000000
        0x00019e5a:    d004        ..      BEQ      0x19e66 ; am_hal_cmdq_release_block + 22
        0x00019e5c:    4a09        .J      LDR      r2,[pc,#36] ; [0x19e84] = 0xcdcdcd
        0x00019e5e:    f021417f    !..A    BIC      r1,r1,#0xff000000
        0x00019e62:    4291        .B      CMP      r1,r2
        0x00019e64:    d001        ..      BEQ      0x19e6a ; am_hal_cmdq_release_block + 26
        0x00019e66:    2002        .       MOVS     r0,#2
        0x00019e68:    4770        pG      BX       lr
        0x00019e6a:    e9d01204    ....    LDRD     r1,r2,[r0,#0x10]
        0x00019e6e:    4291        .B      CMP      r1,r2
        0x00019e70:    bf04        ..      ITT      EQ
        0x00019e72:    2007        .       MOVEQ    r0,#7
        0x00019e74:    4770        pG      BXEQ     lr
        0x00019e76:    6141        Aa      STR      r1,[r0,#0x14]
        0x00019e78:    6a01        .j      LDR      r1,[r0,#0x20]
        0x00019e7a:    1e49        I.      SUBS     r1,r1,#1
        0x00019e7c:    6201        .b      STR      r1,[r0,#0x20]
        0x00019e7e:    2000        .       MOVS     r0,#0
        0x00019e80:    4770        pG      BX       lr
    $d
        0x00019e82:    0000        ..      DCW    0
        0x00019e84:    00cdcdcd    ....    DCD    13487565
    $t
    i.am_hal_cmdq_reset
    am_hal_cmdq_reset
        0x00019e88:    2800        .(      CMP      r0,#0
        0x00019e8a:    bf1c        ..      ITT      NE
        0x00019e8c:    6801        .h      LDRNE    r1,[r0,#0]
        0x00019e8e:    f0117f80    ....    TSTNE    r1,#0x1000000
        0x00019e92:    d004        ..      BEQ      0x19e9e ; am_hal_cmdq_reset + 22
        0x00019e94:    4b14        .K      LDR      r3,[pc,#80] ; [0x19ee8] = 0xcdcdcd
        0x00019e96:    f021427f    !..B    BIC      r2,r1,#0xff000000
        0x00019e9a:    429a        .B      CMP      r2,r3
        0x00019e9c:    d001        ..      BEQ      0x19ea2 ; am_hal_cmdq_reset + 26
        0x00019e9e:    2002        .       MOVS     r0,#2
        0x00019ea0:    4770        pG      BX       lr
        0x00019ea2:    f0117f00    ....    TST      r1,#0x2000000
        0x00019ea6:    bf1c        ..      ITT      NE
        0x00019ea8:    2007        .       MOVNE    r0,#7
        0x00019eaa:    4770        pG      BXNE     lr
        0x00019eac:    6a41        Aj      LDR      r1,[r0,#0x24]
        0x00019eae:    6809        .h      LDR      r1,[r1,#0]
        0x00019eb0:    680a        .h      LDR      r2,[r1,#0]
        0x00019eb2:    f0220201    "...    BIC      r2,r2,#1
        0x00019eb6:    600a        .`      STR      r2,[r1,#0]
        0x00019eb8:    6841        Ah      LDR      r1,[r0,#4]
        0x00019eba:    60c1        .`      STR      r1,[r0,#0xc]
        0x00019ebc:    6141        Aa      STR      r1,[r0,#0x14]
        0x00019ebe:    6101        .a      STR      r1,[r0,#0x10]
        0x00019ec0:    2100        .!      MOVS     r1,#0
        0x00019ec2:    61c1        .a      STR      r1,[r0,#0x1c]
        0x00019ec4:    6201        .b      STR      r1,[r0,#0x20]
        0x00019ec6:    6a42        Bj      LDR      r2,[r0,#0x24]
        0x00019ec8:    6892        .h      LDR      r2,[r2,#8]
        0x00019eca:    6011        .`      STR      r1,[r2,#0]
        0x00019ecc:    6a42        Bj      LDR      r2,[r0,#0x24]
        0x00019ece:    68d2        .h      LDR      r2,[r2,#0xc]
        0x00019ed0:    6011        .`      STR      r1,[r2,#0]
        0x00019ed2:    6a42        Bj      LDR      r2,[r0,#0x24]
        0x00019ed4:    6841        Ah      LDR      r1,[r0,#4]
        0x00019ed6:    6852        Rh      LDR      r2,[r2,#4]
        0x00019ed8:    6011        .`      STR      r1,[r2,#0]
        0x00019eda:    6801        .h      LDR      r1,[r0,#0]
        0x00019edc:    f0217100    !..q    BIC      r1,r1,#0x2000000
        0x00019ee0:    6001        .`      STR      r1,[r0,#0]
        0x00019ee2:    2000        .       MOVS     r0,#0
        0x00019ee4:    4770        pG      BX       lr
    $d
        0x00019ee6:    0000        ..      DCW    0
        0x00019ee8:    00cdcdcd    ....    DCD    13487565
    $t
    i.am_hal_cmdq_term
    am_hal_cmdq_term
        0x00019eec:    b538        8.      PUSH     {r3-r5,lr}
        0x00019eee:    460d        .F      MOV      r5,r1
        0x00019ef0:    1e04        ..      SUBS     r4,r0,#0
        0x00019ef2:    bf1c        ..      ITT      NE
        0x00019ef4:    6820         h      LDRNE    r0,[r4,#0]
        0x00019ef6:    f0107f80    ....    TSTNE    r0,#0x1000000
        0x00019efa:    d004        ..      BEQ      0x19f06 ; am_hal_cmdq_term + 26
        0x00019efc:    491c        .I      LDR      r1,[pc,#112] ; [0x19f70] = 0xcdcdcd
        0x00019efe:    f020407f     ..@    BIC      r0,r0,#0xff000000
        0x00019f02:    4288        .B      CMP      r0,r1
        0x00019f04:    d001        ..      BEQ      0x19f0a ; am_hal_cmdq_term + 30
        0x00019f06:    2002        .       MOVS     r0,#2
        0x00019f08:    bd38        8.      POP      {r3-r5,pc}
        0x00019f0a:    f7fefa4b    ..K.    BL       am_hal_interrupt_master_disable ; 0x183a4
        0x00019f0e:    9000        ..      STR      r0,[sp,#0]
        0x00019f10:    6a60        `j      LDR      r0,[r4,#0x24]
        0x00019f12:    6880        .h      LDR      r0,[r0,#8]
        0x00019f14:    6800        .h      LDR      r0,[r0,#0]
        0x00019f16:    6a21        !j      LDR      r1,[r4,#0x20]
        0x00019f18:    b2c0        ..      UXTB     r0,r0
        0x00019f1a:    f02101ff    !...    BIC      r1,r1,#0xff
        0x00019f1e:    4308        .C      ORRS     r0,r0,r1
        0x00019f20:    61e0        .a      STR      r0,[r4,#0x1c]
        0x00019f22:    6a21        !j      LDR      r1,[r4,#0x20]
        0x00019f24:    1a09        ..      SUBS     r1,r1,r0
        0x00019f26:    bf44        D.      ITT      MI
        0x00019f28:    f5a07080    ...p    SUBMI    r0,r0,#0x100
        0x00019f2c:    61e0        .a      STRMI    r0,[r4,#0x1c]
        0x00019f2e:    6a60        `j      LDR      r0,[r4,#0x24]
        0x00019f30:    6840        @h      LDR      r0,[r0,#4]
        0x00019f32:    6800        .h      LDR      r0,[r0,#0]
        0x00019f34:    60e0        .`      STR      r0,[r4,#0xc]
        0x00019f36:    9800        ..      LDR      r0,[sp,#0]
        0x00019f38:    f7fefa38    ..8.    BL       am_hal_interrupt_master_set ; 0x183ac
        0x00019f3c:    b92d        -.      CBNZ     r5,0x19f4a ; am_hal_cmdq_term + 94
        0x00019f3e:    e9d40107    ....    LDRD     r0,r1,[r4,#0x1c]
        0x00019f42:    4288        .B      CMP      r0,r1
        0x00019f44:    bf1c        ..      ITT      NE
        0x00019f46:    2003        .       MOVNE    r0,#3
        0x00019f48:    bd38        8.      POPNE    {r3-r5,pc}
        0x00019f4a:    6820         h      LDR      r0,[r4,#0]
        0x00019f4c:    f0207080     ..p    BIC      r0,r0,#0x1000000
        0x00019f50:    6020         `      STR      r0,[r4,#0]
        0x00019f52:    6a60        `j      LDR      r0,[r4,#0x24]
        0x00019f54:    6800        .h      LDR      r0,[r0,#0]
        0x00019f56:    6801        .h      LDR      r1,[r0,#0]
        0x00019f58:    f0210101    !...    BIC      r1,r1,#1
        0x00019f5c:    6001        .`      STR      r1,[r0,#0]
        0x00019f5e:    6a60        `j      LDR      r0,[r4,#0x24]
        0x00019f60:    6901        .i      LDR      r1,[r0,#0x10]
        0x00019f62:    680a        .h      LDR      r2,[r1,#0]
        0x00019f64:    6940        @i      LDR      r0,[r0,#0x14]
        0x00019f66:    ea220000    "...    BIC      r0,r2,r0
        0x00019f6a:    6008        .`      STR      r0,[r1,#0]
        0x00019f6c:    2000        .       MOVS     r0,#0
        0x00019f6e:    bd38        8.      POP      {r3-r5,pc}
    $d
        0x00019f70:    00cdcdcd    ....    DCD    13487565
    $t
    i.am_hal_daxi_config
    am_hal_daxi_config
        0x00019f74:    2800        .(      CMP      r0,#0
        0x00019f76:    bf04        ..      ITT      EQ
        0x00019f78:    2006        .       MOVEQ    r0,#6
        0x00019f7a:    4770        pG      BXEQ     lr
        0x00019f7c:    7881        .x      LDRB     r1,[r0,#2]
        0x00019f7e:    7842        Bx      LDRB     r2,[r0,#1]
        0x00019f80:    f44f7340    O.@s    MOV      r3,#0x300
        0x00019f84:    f0010101    ....    AND      r1,r1,#1
        0x00019f88:    ea032202    ..."    AND      r2,r3,r2,LSL #8
        0x00019f8c:    7800        .x      LDRB     r0,[r0,#0]
        0x00019f8e:    4311        .C      ORRS     r1,r1,r2
        0x00019f90:    ea414000    A..@    ORR      r0,r1,r0,LSL #16
        0x00019f94:    f04f4190    O..A    MOV      r1,#0x48000000
        0x00019f98:    6508        .e      STR      r0,[r1,#0x50]
        0x00019f9a:    2000        .       MOVS     r0,#0
        0x00019f9c:    4770        pG      BX       lr
    i.am_hal_daxi_control
    am_hal_daxi_control
        0x00019f9e:    f04f4190    O..A    MOV      r1,#0x48000000
        0x00019fa2:    2801        .(      CMP      r0,#1
        0x00019fa4:    bf04        ..      ITT      EQ
        0x00019fa6:    6d48        Hm      LDREQ    r0,[r1,#0x54]
        0x00019fa8:    f0400002    @...    ORREQ    r0,r0,#2
        0x00019fac:    d006        ..      BEQ      0x19fbc ; am_hal_daxi_control + 30
        0x00019fae:    2802        .(      CMP      r0,#2
        0x00019fb0:    bf13        ..      ITEET    NE
        0x00019fb2:    2006        .       MOVNE    r0,#6
        0x00019fb4:    6d48        Hm      LDREQ    r0,[r1,#0x54]
        0x00019fb6:    f0400001    @...    ORREQ    r0,r0,#1
        0x00019fba:    4770        pG      BXNE     lr
        0x00019fbc:    6548        He      STR      r0,[r1,#0x54]
        0x00019fbe:    2000        .       MOVS     r0,#0
        0x00019fc0:    4770        pG      BX       lr
        0x00019fc2:    0000        ..      MOVS     r0,r0
    i.am_hal_dcu_get
    am_hal_dcu_get
        0x00019fc4:    e92d43f0    -..C    PUSH     {r4-r9,lr}
        0x00019fc8:    4680        .F      MOV      r8,r0
        0x00019fca:    481f        .H      LDR      r0,[pc,#124] ; [0x1a048] = 0x40021000
        0x00019fcc:    b083        ..      SUB      sp,sp,#0xc
        0x00019fce:    6880        .h      LDR      r0,[r0,#8]
        0x00019fd0:    f4101f80    ....    TST      r0,#0x100000
        0x00019fd4:    d023        #.      BEQ      0x1a01e ; am_hal_dcu_get + 90
        0x00019fd6:    481d        .H      LDR      r0,[pc,#116] ; [0x1a04c] = 0x400c0a7c
        0x00019fd8:    6800        .h      LDR      r0,[r0,#0]
        0x00019fda:    f0100f01    ....    TST      r0,#1
        0x00019fde:    d01e        ..      BEQ      0x1a01e ; am_hal_dcu_get + 90
        0x00019fe0:    f8df906c    ..l.    LDR      r9,[pc,#108] ; [0x1a050] = 0x10000148
        0x00019fe4:    4668        hF      MOV      r0,sp
        0x00019fe6:    2202        ."      MOVS     r2,#2
        0x00019fe8:    f8d91004    ....    LDR      r1,[r9,#4]
        0x00019fec:    f003f894    ....    BL       copy_words ; 0x1d118
        0x00019ff0:    e9dd0100    ....    LDRD     r0,r1,[sp,#0]
        0x00019ff4:    2400        .$      MOVS     r4,#0
        0x00019ff6:    4627        'F      MOV      r7,r4
        0x00019ff8:    2605        .&      MOVS     r6,#5
        0x00019ffa:    4625        %F      MOV      r5,r4
        0x00019ffc:    f8d92000    ...     LDR      r2,[r9,#0]
        0x0001a000:    f7fef9f7    ....    BL       __aeabi_llsr ; 0x183f2
        0x0001a004:    2214        ."      MOVS     r2,#0x14
        0x0001a006:    f04f0c01    O...    MOV      r12,#1
        0x0001a00a:    bf00        ..      NOP      
        0x0001a00c:    f0000307    ....    AND      r3,r0,#7
        0x0001a010:    4073        s@      EORS     r3,r3,r6
        0x0001a012:    ea840904    ....    EOR      r9,r4,r4
        0x0001a016:    ea530309    S...    ORRS     r3,r3,r9
        0x0001a01a:    d109        ..      BNE      0x1a030 ; am_hal_dcu_get + 108
        0x0001a01c:    e003        ..      B        0x1a026 ; am_hal_dcu_get + 98
        0x0001a01e:    b003        ..      ADD      sp,sp,#0xc
        0x0001a020:    2007        .       MOVS     r0,#7
        0x0001a022:    e8bd83f0    ....    POP      {r4-r9,pc}
        0x0001a026:    f1c20314    ....    RSB      r3,r2,#0x14
        0x0001a02a:    fa0cf303    ....    LSL      r3,r12,r3
        0x0001a02e:    431d        .C      ORRS     r5,r5,r3
        0x0001a030:    08c0        ..      LSRS     r0,r0,#3
        0x0001a032:    ea407041    @.Ap    ORR      r0,r0,r1,LSL #29
        0x0001a036:    08c9        ..      LSRS     r1,r1,#3
        0x0001a038:    1e52        R.      SUBS     r2,r2,#1
        0x0001a03a:    d1e7        ..      BNE      0x1a00c ; am_hal_dcu_get + 72
        0x0001a03c:    f8c85000    ...P    STR      r5,[r8,#0]
        0x0001a040:    b003        ..      ADD      sp,sp,#0xc
        0x0001a042:    4638        8F      MOV      r0,r7
        0x0001a044:    e8bd83f0    ....    POP      {r4-r9,pc}
    $d
        0x0001a048:    40021000    ...@    DCD    1073876992
        0x0001a04c:    400c0a7c    |..@    DCD    1074530940
        0x0001a050:    10000148    H...    DCD    268435784
    $t
    i.am_hal_dcu_update
    am_hal_dcu_update
        0x0001a054:    e92d4ff0    -..O    PUSH     {r4-r11,lr}
        0x0001a058:    4681        .F      MOV      r9,r0
        0x0001a05a:    4834        4H      LDR      r0,[pc,#208] ; [0x1a12c] = 0x40021000
        0x0001a05c:    b085        ..      SUB      sp,sp,#0x14
        0x0001a05e:    6880        .h      LDR      r0,[r0,#8]
        0x0001a060:    f4101f80    ....    TST      r0,#0x100000
        0x0001a064:    d02a        *.      BEQ      0x1a0bc ; am_hal_dcu_update + 104
        0x0001a066:    f8dfa0c8    ....    LDR      r10,[pc,#200] ; [0x1a130] = 0x400c0a7c
        0x0001a06a:    f8da0000    ....    LDR      r0,[r10,#0]
        0x0001a06e:    f0100f01    ....    TST      r0,#1
        0x0001a072:    d023        #.      BEQ      0x1a0bc ; am_hal_dcu_update + 104
        0x0001a074:    f8df80bc    ....    LDR      r8,[pc,#188] ; [0x1a134] = 0x10000148
        0x0001a078:    2700        .'      MOVS     r7,#0
        0x0001a07a:    084d        M.      LSRS     r5,r1,#1
        0x0001a07c:    f8d8b000    ....    LDR      r11,[r8,#0]
        0x0001a080:    463e        >F      MOV      r6,r7
        0x0001a082:    2414        .$      MOVS     r4,#0x14
        0x0001a084:    f0150f01    ....    TST      r5,#1
        0x0001a088:    d006        ..      BEQ      0x1a098 ; am_hal_dcu_update + 68
        0x0001a08a:    465a        ZF      MOV      r2,r11
        0x0001a08c:    2007        .       MOVS     r0,#7
        0x0001a08e:    2100        .!      MOVS     r1,#0
        0x0001a090:    f7fef99c    ....    BL       __aeabi_llsl ; 0x183cc
        0x0001a094:    4307        .C      ORRS     r7,r7,r0
        0x0001a096:    430e        .C      ORRS     r6,r6,r1
        0x0001a098:    086d        m.      LSRS     r5,r5,#1
        0x0001a09a:    1e64        d.      SUBS     r4,r4,#1
        0x0001a09c:    f10b0b03    ....    ADD      r11,r11,#3
        0x0001a0a0:    2c00        .,      CMP      r4,#0
        0x0001a0a2:    dcef        ..      BGT      0x1a084 ; am_hal_dcu_update + 48
        0x0001a0a4:    2202        ."      MOVS     r2,#2
        0x0001a0a6:    a802        ..      ADD      r0,sp,#8
        0x0001a0a8:    f8d81008    ....    LDR      r1,[r8,#8]
        0x0001a0ac:    f003f834    ..4.    BL       copy_words ; 0x1d118
        0x0001a0b0:    e9dd1002    ....    LDRD     r1,r0,[sp,#8]
        0x0001a0b4:    4039        9@      ANDS     r1,r1,r7
        0x0001a0b6:    4030        0@      ANDS     r0,r0,r6
        0x0001a0b8:    4308        .C      ORRS     r0,r0,r1
        0x0001a0ba:    d003        ..      BEQ      0x1a0c4 ; am_hal_dcu_update + 112
        0x0001a0bc:    b005        ..      ADD      sp,sp,#0x14
        0x0001a0be:    2007        .       MOVS     r0,#7
        0x0001a0c0:    e8bd8ff0    ....    POP      {r4-r11,pc}
        0x0001a0c4:    2202        ."      MOVS     r2,#2
        0x0001a0c6:    4668        hF      MOV      r0,sp
        0x0001a0c8:    f8d81004    ....    LDR      r1,[r8,#4]
        0x0001a0cc:    f003f824    ..$.    BL       copy_words ; 0x1d118
        0x0001a0d0:    f1b90f00    ....    CMP      r9,#0
        0x0001a0d4:    d00d        ..      BEQ      0x1a0f2 ; am_hal_dcu_update + 158
        0x0001a0d6:    e9dd1000    ....    LDRD     r1,r0,[sp,#0]
        0x0001a0da:    ea210207    !...    BIC      r2,r1,r7
        0x0001a0de:    e9d83104    ...1    LDRD     r3,r1,[r8,#0x10]
        0x0001a0e2:    403b        ;@      ANDS     r3,r3,r7
        0x0001a0e4:    43b0        .C      BICS     r0,r0,r6
        0x0001a0e6:    4031        1@      ANDS     r1,r1,r6
        0x0001a0e8:    431a        .C      ORRS     r2,r2,r3
        0x0001a0ea:    4308        .C      ORRS     r0,r0,r1
        0x0001a0ec:    e9cd2000    ...     STRD     r2,r0,[sp,#0]
        0x0001a0f0:    e00c        ..      B        0x1a10c ; am_hal_dcu_update + 184
        0x0001a0f2:    e9dd0100    ....    LDRD     r0,r1,[sp,#0]
        0x0001a0f6:    ea210206    !...    BIC      r2,r1,r6
        0x0001a0fa:    e9d83106    ...1    LDRD     r3,r1,[r8,#0x18]
        0x0001a0fe:    43b8        .C      BICS     r0,r0,r7
        0x0001a100:    403b        ;@      ANDS     r3,r3,r7
        0x0001a102:    4031        1@      ANDS     r1,r1,r6
        0x0001a104:    4318        .C      ORRS     r0,r0,r3
        0x0001a106:    4311        .C      ORRS     r1,r1,r2
        0x0001a108:    e9cd0100    ....    STRD     r0,r1,[sp,#0]
        0x0001a10c:    2202        ."      MOVS     r2,#2
        0x0001a10e:    4669        iF      MOV      r1,sp
        0x0001a110:    f8d80004    ....    LDR      r0,[r8,#4]
        0x0001a114:    f003f800    ....    BL       copy_words ; 0x1d118
        0x0001a118:    f8da0000    ....    LDR      r0,[r10,#0]
        0x0001a11c:    f0100f01    ....    TST      r0,#1
        0x0001a120:    d0fa        ..      BEQ      0x1a118 ; am_hal_dcu_update + 196
        0x0001a122:    b005        ..      ADD      sp,sp,#0x14
        0x0001a124:    2000        .       MOVS     r0,#0
        0x0001a126:    e8bd8ff0    ....    POP      {r4-r11,pc}
    $d
        0x0001a12a:    0000        ..      DCW    0
        0x0001a12c:    40021000    ...@    DCD    1073876992
        0x0001a130:    400c0a7c    |..@    DCD    1074530940
        0x0001a134:    10000148    H...    DCD    268435784
    $t
    i.am_hal_delay_us
    am_hal_delay_us
        0x0001a138:    4908        .I      LDR      r1,[pc,#32] ; [0x1a15c] = 0x40021000
        0x0001a13a:    0140        @.      LSLS     r0,r0,#5
        0x0001a13c:    6809        .h      LDR      r1,[r1,#0]
        0x0001a13e:    f3c101c1    ....    UBFX     r1,r1,#3,#2
        0x0001a142:    2902        .)      CMP      r1,#2
        0x0001a144:    bf06        ..      ITTE     EQ
        0x0001a146:    0040        @.      LSLEQ    r0,r0,#1
        0x0001a148:    2115        .!      MOVEQ    r1,#0x15
        0x0001a14a:    210f        .!      MOVNE    r1,#0xf
        0x0001a14c:    4288        .B      CMP      r0,r1
        0x0001a14e:    bf98        ..      IT       LS
        0x0001a150:    4770        pG      BXLS     lr
        0x0001a152:    1a40        @.      SUBS     r0,r0,r1
        0x0001a154:    4902        .I      LDR      r1,[pc,#8] ; [0x1a160] = 0x1e5e4
        0x0001a156:    6a49        Ij      LDR      r1,[r1,#0x24]
        0x0001a158:    4708        .G      BX       r1
    $d
        0x0001a15a:    0000        ..      DCW    0
        0x0001a15c:    40021000    ...@    DCD    1073876992
        0x0001a160:    0001e5e4    ....    DCD    124388
    $t
    i.am_hal_delay_us_status_change
    am_hal_delay_us_status_change
        0x0001a164:    e92d47f0    -..G    PUSH     {r4-r10,lr}
        0x0001a168:    f8df8048    ..H.    LDR      r8,[pc,#72] ; [0x1a1b4] = 0x40021000
        0x0001a16c:    f8df9048    ..H.    LDR      r9,[pc,#72] ; [0x1a1b8] = 0x1e5e4
        0x0001a170:    461d        .F      MOV      r5,r3
        0x0001a172:    4616        .F      MOV      r6,r2
        0x0001a174:    460f        .F      MOV      r7,r1
        0x0001a176:    4604        .F      MOV      r4,r0
        0x0001a178:    6838        8h      LDR      r0,[r7,#0]
        0x0001a17a:    4030        0@      ANDS     r0,r0,r6
        0x0001a17c:    42a8        .B      CMP      r0,r5
        0x0001a17e:    d102        ..      BNE      0x1a186 ; am_hal_delay_us_status_change + 34
        0x0001a180:    2000        .       MOVS     r0,#0
        0x0001a182:    e8bd87f0    ....    POP      {r4-r10,pc}
        0x0001a186:    1e64        d.      SUBS     r4,r4,#1
        0x0001a188:    d311        ..      BCC      0x1a1ae ; am_hal_delay_us_status_change + 74
        0x0001a18a:    f8d81000    ....    LDR      r1,[r8,#0]
        0x0001a18e:    2020                MOVS     r0,#0x20
        0x0001a190:    f3c101c1    ....    UBFX     r1,r1,#3,#2
        0x0001a194:    2902        .)      CMP      r1,#2
        0x0001a196:    bf06        ..      ITTE     EQ
        0x0001a198:    2040        @       MOVEQ    r0,#0x40
        0x0001a19a:    f04f0c15    O...    MOVEQ    r12,#0x15
        0x0001a19e:    f04f0c0f    O...    MOVNE    r12,#0xf
        0x0001a1a2:    eba0000c    ....    SUB      r0,r0,r12
        0x0001a1a6:    f8d91024    ..$.    LDR      r1,[r9,#0x24]
        0x0001a1aa:    4788        .G      BLX      r1
        0x0001a1ac:    e7e4        ..      B        0x1a178 ; am_hal_delay_us_status_change + 20
        0x0001a1ae:    2004        .       MOVS     r0,#4
        0x0001a1b0:    e8bd87f0    ....    POP      {r4-r10,pc}
    $d
        0x0001a1b4:    40021000    ...@    DCD    1073876992
        0x0001a1b8:    0001e5e4    ....    DCD    124388
    $t
    i.am_hal_delay_us_status_check
    am_hal_delay_us_status_check
        0x0001a1bc:    e92d47f0    -..G    PUSH     {r4-r10,lr}
        0x0001a1c0:    f8df9054    ..T.    LDR      r9,[pc,#84] ; [0x1a218] = 0x40021000
        0x0001a1c4:    f8dfa054    ..T.    LDR      r10,[pc,#84] ; [0x1a21c] = 0x1e5e4
        0x0001a1c8:    f8dd8020    .. .    LDR      r8,[sp,#0x20]
        0x0001a1cc:    461c        .F      MOV      r4,r3
        0x0001a1ce:    4615        .F      MOV      r5,r2
        0x0001a1d0:    460e        .F      MOV      r6,r1
        0x0001a1d2:    4607        .F      MOV      r7,r0
        0x0001a1d4:    6830        0h      LDR      r0,[r6,#0]
        0x0001a1d6:    f1b80f00    ....    CMP      r8,#0
        0x0001a1da:    ea000005    ....    AND      r0,r0,r5
        0x0001a1de:    d002        ..      BEQ      0x1a1e6 ; am_hal_delay_us_status_check + 42
        0x0001a1e0:    42a0        .B      CMP      r0,r4
        0x0001a1e2:    d002        ..      BEQ      0x1a1ea ; am_hal_delay_us_status_check + 46
        0x0001a1e4:    e004        ..      B        0x1a1f0 ; am_hal_delay_us_status_check + 52
        0x0001a1e6:    42a0        .B      CMP      r0,r4
        0x0001a1e8:    d002        ..      BEQ      0x1a1f0 ; am_hal_delay_us_status_check + 52
        0x0001a1ea:    2000        .       MOVS     r0,#0
        0x0001a1ec:    e8bd87f0    ....    POP      {r4-r10,pc}
        0x0001a1f0:    1e7f        ..      SUBS     r7,r7,#1
        0x0001a1f2:    d30e        ..      BCC      0x1a212 ; am_hal_delay_us_status_check + 86
        0x0001a1f4:    f8d91000    ....    LDR      r1,[r9,#0]
        0x0001a1f8:    2020                MOVS     r0,#0x20
        0x0001a1fa:    f3c101c1    ....    UBFX     r1,r1,#3,#2
        0x0001a1fe:    2902        .)      CMP      r1,#2
        0x0001a200:    bf06        ..      ITTE     EQ
        0x0001a202:    2040        @       MOVEQ    r0,#0x40
        0x0001a204:    2115        .!      MOVEQ    r1,#0x15
        0x0001a206:    210f        .!      MOVNE    r1,#0xf
        0x0001a208:    1a40        @.      SUBS     r0,r0,r1
        0x0001a20a:    f8da1024    ..$.    LDR      r1,[r10,#0x24]
        0x0001a20e:    4788        .G      BLX      r1
        0x0001a210:    e7e0        ..      B        0x1a1d4 ; am_hal_delay_us_status_check + 24
        0x0001a212:    2004        .       MOVS     r0,#4
        0x0001a214:    e8bd87f0    ....    POP      {r4-r10,pc}
    $d
        0x0001a218:    40021000    ...@    DCD    1073876992
        0x0001a21c:    0001e5e4    ....    DCD    124388
    $t
    i.am_hal_fault_capture_enable
    am_hal_fault_capture_enable
        0x0001a220:    f04f4090    O..@    MOV      r0,#0x48000000
        0x0001a224:    f8501f90    P...    LDR      r1,[r0,#0x90]!
        0x0001a228:    f0410101    A...    ORR      r1,r1,#1
        0x0001a22c:    6001        .`      STR      r1,[r0,#0]
        0x0001a22e:    2000        .       MOVS     r0,#0
        0x0001a230:    4770        pG      BX       lr
    i.am_hal_fault_status_get
    am_hal_fault_status_get
        0x0001a232:    2800        .(      CMP      r0,#0
        0x0001a234:    bf04        ..      ITT      EQ
        0x0001a236:    2006        .       MOVEQ    r0,#6
        0x0001a238:    4770        pG      BXEQ     lr
        0x0001a23a:    f04f4190    O..A    MOV      r1,#0x48000000
        0x0001a23e:    f8d1208c    ...     LDR      r2,[r1,#0x8c]
        0x0001a242:    f0020301    ....    AND      r3,r2,#1
        0x0001a246:    7003        .p      STRB     r3,[r0,#0]
        0x0001a248:    f3c20340    ..@.    UBFX     r3,r2,#1,#1
        0x0001a24c:    7203        .r      STRB     r3,[r0,#8]
        0x0001a24e:    f3c20280    ....    UBFX     r2,r2,#2,#1
        0x0001a252:    7402        .t      STRB     r2,[r0,#0x10]
        0x0001a254:    f8d12084    ...     LDR      r2,[r1,#0x84]
        0x0001a258:    60c2        .`      STR      r2,[r0,#0xc]
        0x0001a25a:    6842        Bh      LDR      r2,[r0,#4]
        0x0001a25c:    f8513f80    Q..?    LDR      r3,[r1,#0x80]!
        0x0001a260:    431a        .C      ORRS     r2,r2,r3
        0x0001a262:    6042        B`      STR      r2,[r0,#4]
        0x0001a264:    6942        Bi      LDR      r2,[r0,#0x14]
        0x0001a266:    6889        .h      LDR      r1,[r1,#8]
        0x0001a268:    4311        .C      ORRS     r1,r1,r2
        0x0001a26a:    6141        Aa      STR      r1,[r0,#0x14]
        0x0001a26c:    2000        .       MOVS     r0,#0
        0x0001a26e:    4770        pG      BX       lr
    i.am_hal_gpio_pinconfig
    am_hal_gpio_pinconfig
        0x0001a270:    b403        ..      PUSH     {r0,r1}
        0x0001a272:    4912        .I      LDR      r1,[pc,#72] ; [0x1a2bc] = 0x40010000
        0x0001a274:    2880        .(      CMP      r0,#0x80
        0x0001a276:    bf82        ..      ITTT     HI
        0x0001a278:    2005        .       MOVHI    r0,#5
        0x0001a27a:    b002        ..      ADDHI    sp,sp,#8
        0x0001a27c:    4770        pG      BXHI     lr
        0x0001a27e:    9a01        ..      LDR      r2,[sp,#4]
        0x0001a280:    f3c22281    ..."    UBFX     r2,r2,#10,#2
        0x0001a284:    2a01        .*      CMP      r2,#1
        0x0001a286:    d90e        ..      BLS      0x1a2a6 ; am_hal_gpio_pinconfig + 54
        0x0001a288:    4b0d        .K      LDR      r3,[pc,#52] ; [0x1a2c0] = 0x1e7c4
        0x0001a28a:    0942        B.      LSRS     r2,r0,#5
        0x0001a28c:    f04f0c01    O...    MOV      r12,#1
        0x0001a290:    f8532022    S."     LDR      r2,[r3,r2,LSL #2]
        0x0001a294:    f000031f    ....    AND      r3,r0,#0x1f
        0x0001a298:    fa0cf303    ....    LSL      r3,r12,r3
        0x0001a29c:    421a        .B      TST      r2,r3
        0x0001a29e:    bf02        ..      ITTT     EQ
        0x0001a2a0:    2007        .       MOVEQ    r0,#7
        0x0001a2a2:    b002        ..      ADDEQ    sp,sp,#8
        0x0001a2a4:    4770        pG      BXEQ     lr
        0x0001a2a6:    2273        s"      MOVS     r2,#0x73
        0x0001a2a8:    f8c12200    ..."    STR      r2,[r1,#0x200]
        0x0001a2ac:    9a01        ..      LDR      r2,[sp,#4]
        0x0001a2ae:    f8412020    A.      STR      r2,[r1,r0,LSL #2]
        0x0001a2b2:    2000        .       MOVS     r0,#0
        0x0001a2b4:    f8c10200    ....    STR      r0,[r1,#0x200]
        0x0001a2b8:    b002        ..      ADD      sp,sp,#8
        0x0001a2ba:    4770        pG      BX       lr
    $d
        0x0001a2bc:    40010000    ...@    DCD    1073807360
        0x0001a2c0:    0001e7c4    ....    DCD    124868
    $t
    i.am_hal_itm_enable
    am_hal_itm_enable
        0x0001a2c4:    480a        .H      LDR      r0,[pc,#40] ; [0x1a2f0] = 0xe000edfc
        0x0001a2c6:    6801        .h      LDR      r1,[r0,#0]
        0x0001a2c8:    f0417180    A..q    ORR      r1,r1,#0x1000000
        0x0001a2cc:    6001        .`      STR      r1,[r0,#0]
        0x0001a2ce:    6801        .h      LDR      r1,[r0,#0]
        0x0001a2d0:    f0117f80    ....    TST      r1,#0x1000000
        0x0001a2d4:    d0fb        ..      BEQ      0x1a2ce ; am_hal_itm_enable + 10
        0x0001a2d6:    4908        .I      LDR      r1,[pc,#32] ; [0x1a2f8] = 0xe0000fb0
        0x0001a2d8:    4806        .H      LDR      r0,[pc,#24] ; [0x1a2f4] = 0xc5acce55
        0x0001a2da:    6008        .`      STR      r0,[r1,#0]
        0x0001a2dc:    4907        .I      LDR      r1,[pc,#28] ; [0x1a2fc] = 0xe0000e40
        0x0001a2de:    200f        .       MOVS     r0,#0xf
        0x0001a2e0:    6008        .`      STR      r0,[r1,#0]
        0x0001a2e2:    1748        H.      ASRS     r0,r1,#29
        0x0001a2e4:    4906        .I      LDR      r1,[pc,#24] ; [0x1a300] = 0xe0000e00
        0x0001a2e6:    6008        .`      STR      r0,[r1,#0]
        0x0001a2e8:    4907        .I      LDR      r1,[pc,#28] ; [0x1a308] = 0xe0000e80
        0x0001a2ea:    4806        .H      LDR      r0,[pc,#24] ; [0x1a304] = 0x150511
        0x0001a2ec:    6008        .`      STR      r0,[r1,#0]
        0x0001a2ee:    4770        pG      BX       lr
    $d
        0x0001a2f0:    e000edfc    ....    DCD    3758157308
        0x0001a2f4:    c5acce55    U...    DCD    3316436565
        0x0001a2f8:    e0000fb0    ....    DCD    3758100400
        0x0001a2fc:    e0000e40    @...    DCD    3758100032
        0x0001a300:    e0000e00    ....    DCD    3758099968
        0x0001a304:    00150511    ....    DCD    1377553
        0x0001a308:    e0000e80    ....    DCD    3758100096
    $t
    i.am_hal_itm_print
    am_hal_itm_print
        0x0001a30c:    7802        .x      LDRB     r2,[r0,#0]
        0x0001a30e:    2100        .!      MOVS     r1,#0
        0x0001a310:    2a00        .*      CMP      r2,#0
        0x0001a312:    bf08        ..      IT       EQ
        0x0001a314:    4770        pG      BXEQ     lr
        0x0001a316:    1c49        I.      ADDS     r1,r1,#1
        0x0001a318:    5c42        B\      LDRB     r2,[r0,r1]
        0x0001a31a:    2a00        .*      CMP      r2,#0
        0x0001a31c:    d1fb        ..      BNE      0x1a316 ; am_hal_itm_print + 10
        0x0001a31e:    2900        .)      CMP      r1,#0
        0x0001a320:    bf08        ..      IT       EQ
        0x0001a322:    4770        pG      BXEQ     lr
        0x0001a324:    f810cb01    ....    LDRB     r12,[r0],#1
        0x0001a328:    f04f4260    O.`B    MOV      r2,#0xe0000000
        0x0001a32c:    6813        .h      LDR      r3,[r2,#0]
        0x0001a32e:    2b00        .+      CMP      r3,#0
        0x0001a330:    d0fc        ..      BEQ      0x1a32c ; am_hal_itm_print + 32
        0x0001a332:    f882c000    ....    STRB     r12,[r2,#0]
        0x0001a336:    1e49        I.      SUBS     r1,r1,#1
        0x0001a338:    d1f4        ..      BNE      0x1a324 ; am_hal_itm_print + 24
        0x0001a33a:    4770        pG      BX       lr
    i.am_hal_load_ui32
    am_hal_load_ui32
        0x0001a33c:    4901        .I      LDR      r1,[pc,#4] ; [0x1a344] = 0x1e5e4
        0x0001a33e:    6949        Ii      LDR      r1,[r1,#0x14]
        0x0001a340:    4708        .G      BX       r1
    $d
        0x0001a342:    0000        ..      DCW    0
        0x0001a344:    0001e5e4    ....    DCD    124388
    $t
    i.am_hal_mram_info_read
    am_hal_mram_info_read
        0x0001a348:    e92d43f8    -..C    PUSH     {r3-r9,lr}
        0x0001a34c:    4617        .F      MOV      r7,r2
        0x0001a34e:    0002        ..      MOVS     r2,r0
        0x0001a350:    461d        .F      MOV      r5,r3
        0x0001a352:    f04f0800    O...    MOV      r8,#0
        0x0001a356:    eb010007    ....    ADD      r0,r1,r7
        0x0001a35a:    d011        ..      BEQ      0x1a380 ; am_hal_mram_info_read + 56
        0x0001a35c:    2a01        .*      CMP      r2,#1
        0x0001a35e:    bf1c        ..      ITT      NE
        0x0001a360:    2001        .       MOVNE    r0,#1
        0x0001a362:    e8bd83f8    ....    POPNE    {r3-r9,pc}
        0x0001a366:    f5a16290    ...b    SUB      r2,r1,#0x480
        0x0001a36a:    f5b27fc0    ....    CMP      r2,#0x180
        0x0001a36e:    d204        ..      BCS      0x1a37a ; am_hal_mram_info_read + 50
        0x0001a370:    f5b06fc0    ...o    CMP      r0,#0x600
        0x0001a374:    bf98        ..      IT       LS
        0x0001a376:    4817        .H      LDRLS    r0,[pc,#92] ; [0x1a3d4] = 0x42002000
        0x0001a378:    d90b        ..      BLS      0x1a392 ; am_hal_mram_info_read + 74
        0x0001a37a:    2002        .       MOVS     r0,#2
        0x0001a37c:    e8bd83f8    ....    POP      {r3-r9,pc}
        0x0001a380:    f5b17f00    ....    CMP      r1,#0x200
        0x0001a384:    d2f9        ..      BCS      0x1a37a ; am_hal_mram_info_read + 50
        0x0001a386:    f5b07f00    ....    CMP      r0,#0x200
        0x0001a38a:    bf98        ..      IT       LS
        0x0001a38c:    f04f4084    O..@    MOVLS    r0,#0x42000000
        0x0001a390:    d8f3        ..      BHI      0x1a37a ; am_hal_mram_info_read + 50
        0x0001a392:    f8df9044    ..D.    LDR      r9,[pc,#68] ; [0x1a3d8] = 0x100002d8
        0x0001a396:    eb000481    ....    ADD      r4,r0,r1,LSL #2
        0x0001a39a:    2001        .       MOVS     r0,#1
        0x0001a39c:    f8d91000    ....    LDR      r1,[r9,#0]
        0x0001a3a0:    4788        .G      BLX      r1
        0x0001a3a2:    f7fdffff    ....    BL       am_hal_interrupt_master_disable ; 0x183a4
        0x0001a3a6:    2600        .&      MOVS     r6,#0
        0x0001a3a8:    9000        ..      STR      r0,[sp,#0]
        0x0001a3aa:    2f00        ./      CMP      r7,#0
        0x0001a3ac:    d908        ..      BLS      0x1a3c0 ; am_hal_mram_info_read + 120
        0x0001a3ae:    4620         F      MOV      r0,r4
        0x0001a3b0:    1d24        $.      ADDS     r4,r4,#4
        0x0001a3b2:    f7ffffc3    ....    BL       am_hal_load_ui32 ; 0x1a33c
        0x0001a3b6:    1c76        v.      ADDS     r6,r6,#1
        0x0001a3b8:    f8450b04    E...    STR      r0,[r5],#4
        0x0001a3bc:    42b7        .B      CMP      r7,r6
        0x0001a3be:    d8f6        ..      BHI      0x1a3ae ; am_hal_mram_info_read + 102
        0x0001a3c0:    9800        ..      LDR      r0,[sp,#0]
        0x0001a3c2:    f7fdfff3    ....    BL       am_hal_interrupt_master_set ; 0x183ac
        0x0001a3c6:    f8d91000    ....    LDR      r1,[r9,#0]
        0x0001a3ca:    2000        .       MOVS     r0,#0
        0x0001a3cc:    4788        .G      BLX      r1
        0x0001a3ce:    4640        @F      MOV      r0,r8
        0x0001a3d0:    e8bd83f8    ....    POP      {r3-r9,pc}
    $d
        0x0001a3d4:    42002000    . .B    DCD    1107304448
        0x0001a3d8:    100002d8    ....    DCD    268436184
    $t
    i.am_hal_mspi_blocking_transfer
    am_hal_mspi_blocking_transfer
        0x0001a3dc:    e92d4ff7    -..O    PUSH     {r0-r2,r4-r11,lr}
        0x0001a3e0:    b08e        ..      SUB      sp,sp,#0x38
        0x0001a3e2:    1e02        ..      SUBS     r2,r0,#0
        0x0001a3e4:    f04f0300    O...    MOV      r3,#0
        0x0001a3e8:    bf1c        ..      ITT      NE
        0x0001a3ea:    6810        .h      LDRNE    r0,[r2,#0]
        0x0001a3ec:    f0107f80    ....    TSTNE    r0,#0x1000000
        0x0001a3f0:    d005        ..      BEQ      0x1a3fe ; am_hal_mspi_blocking_transfer + 34
        0x0001a3f2:    f8dfc20c    ....    LDR      r12,[pc,#524] ; [0x1a600] = 0xbebebe
        0x0001a3f6:    f020407f     ..@    BIC      r0,r0,#0xff000000
        0x0001a3fa:    4560        `E      CMP      r0,r12
        0x0001a3fc:    d003        ..      BEQ      0x1a406 ; am_hal_mspi_blocking_transfer + 42
        0x0001a3fe:    b011        ..      ADD      sp,sp,#0x44
        0x0001a400:    2002        .       MOVS     r0,#2
        0x0001a402:    e8bd8ff0    ....    POP      {r4-r11,pc}
        0x0001a406:    6a10        .j      LDR      r0,[r2,#0x20]
        0x0001a408:    6855        Uh      LDR      r5,[r2,#4]
        0x0001a40a:    2800        .(      CMP      r0,#0
        0x0001a40c:    bf04        ..      ITT      EQ
        0x0001a40e:    f8d20840    ..@.    LDREQ    r0,[r2,#0x840]
        0x0001a412:    2800        .(      CMPEQ    r0,#0
        0x0001a414:    d15c        \.      BNE      0x1a4d0 ; am_hal_mspi_blocking_transfer + 244
        0x0001a416:    6808        .h      LDR      r0,[r1,#0]
        0x0001a418:    287f        .(      CMP      r0,#0x7f
        0x0001a41a:    d859        Y.      BHI      0x1a4d0 ; am_hal_mspi_blocking_transfer + 244
        0x0001a41c:    f892c82c    ..,.    LDRB     r12,[r2,#0x82c]
        0x0001a420:    f1bc0f02    ....    CMP      r12,#2
        0x0001a424:    d054        T.      BEQ      0x1a4d0 ; am_hal_mspi_blocking_transfer + 244
        0x0001a426:    ea434000    C..@    ORR      r0,r3,r0,LSL #16
        0x0001a42a:    790b        .y      LDRB     r3,[r1,#4]
        0x0001a42c:    f44f7c00    O..|    MOV      r12,#0x200
        0x0001a430:    ea0c2343    ..C#    AND      r3,r12,r3,LSL #9
        0x0001a434:    4318        .C      ORRS     r0,r0,r3
        0x0001a436:    798b        .y      LDRB     r3,[r1,#6]
        0x0001a438:    f04f0c80    O...    MOV      r12,#0x80
        0x0001a43c:    ea0c13c3    ....    AND      r3,r12,r3,LSL #7
        0x0001a440:    4318        .C      ORRS     r0,r0,r3
        0x0001a442:    7b0b        .{      LDRB     r3,[r1,#0xc]
        0x0001a444:    b153        S.      CBZ      r3,0x1a45c ; am_hal_mspi_blocking_transfer + 128
        0x0001a446:    ea4f3c05    O..<    LSL      r12,r5,#12
        0x0001a44a:    f10c4c80    ...L    ADD      r12,r12,#0x40000000
        0x0001a44e:    f50c2cc0    ...,    ADD      r12,r12,#0x60000
        0x0001a452:    89cb        ..      LDRH     r3,[r1,#0xe]
        0x0001a454:    f0400040    @.@.    ORR      r0,r0,#0x40
        0x0001a458:    f8cc300c    ...0    STR      r3,[r12,#0xc]
        0x0001a45c:    79cb        .y      LDRB     r3,[r1,#7]
        0x0001a45e:    b153        S.      CBZ      r3,0x1a476 ; am_hal_mspi_blocking_transfer + 154
        0x0001a460:    ea4f3c05    O..<    LSL      r12,r5,#12
        0x0001a464:    f10c4c80    ...L    ADD      r12,r12,#0x40000000
        0x0001a468:    f50c2cc0    ...,    ADD      r12,r12,#0x60000
        0x0001a46c:    688b        .h      LDR      r3,[r1,#8]
        0x0001a46e:    f0400020    @. .    ORR      r0,r0,#0x20
        0x0001a472:    f8cc3008    ...0    STR      r3,[r12,#8]
        0x0001a476:    7c0b        .|      LDRB     r3,[r1,#0x10]
        0x0001a478:    2b00        .+      CMP      r3,#0
        0x0001a47a:    bf18        ..      IT       NE
        0x0001a47c:    f4406080    @..`    ORRNE    r0,r0,#0x400
        0x0001a480:    7b13        .{      LDRB     r3,[r2,#0xc]
        0x0001a482:    f44f7c80    O..|    MOV      r12,#0x100
        0x0001a486:    ea0c2303    ...#    AND      r3,r12,r3,LSL #8
        0x0001a48a:    4318        .C      ORRS     r0,r0,r3
        0x0001a48c:    7c4b        K|      LDRB     r3,[r1,#0x11]
        0x0001a48e:    f44f5c80    O..\    MOV      r12,#0x1000
        0x0001a492:    ea0c3303    ...3    AND      r3,r12,r3,LSL #12
        0x0001a496:    4318        .C      ORRS     r0,r0,r3
        0x0001a498:    794b        Ky      LDRB     r3,[r1,#5]
        0x0001a49a:    2b00        .+      CMP      r3,#0
        0x0001a49c:    bf18        ..      IT       NE
        0x0001a49e:    f4406000    @..`    ORRNE    r0,r0,#0x800
        0x0001a4a2:    f0400001    @...    ORR      r0,r0,#1
        0x0001a4a6:    032b        +.      LSLS     r3,r5,#12
        0x0001a4a8:    f1034680    ...F    ADD      r6,r3,#0x40000000
        0x0001a4ac:    f50626c0    ...&    ADD      r6,r6,#0x60000
        0x0001a4b0:    f8d63200    ...2    LDR      r3,[r6,#0x200]
        0x0001a4b4:    9304        ..      STR      r3,[sp,#0x10]
        0x0001a4b6:    2300        .#      MOVS     r3,#0
        0x0001a4b8:    f8c63200    ...2    STR      r3,[r6,#0x200]
        0x0001a4bc:    1e5b        [.      SUBS     r3,r3,#1
        0x0001a4be:    f8c63208    ...2    STR      r3,[r6,#0x208]
        0x0001a4c2:    6030        0`      STR      r0,[r6,#0]
        0x0001a4c4:    798b        .y      LDRB     r3,[r1,#6]
        0x0001a4c6:    2005        .       MOVS     r0,#5
        0x0001a4c8:    b133        3.      CBZ      r3,0x1a4d8 ; am_hal_mspi_blocking_transfer + 252
        0x0001a4ca:    2b01        .+      CMP      r3,#1
        0x0001a4cc:    d05a        Z.      BEQ      0x1a584 ; am_hal_mspi_blocking_transfer + 424
        0x0001a4ce:    e08c        ..      B        0x1a5ea ; am_hal_mspi_blocking_transfer + 526
        0x0001a4d0:    b011        ..      ADD      sp,sp,#0x44
        0x0001a4d2:    2007        .       MOVS     r0,#7
        0x0001a4d4:    e8bd8ff0    ....    POP      {r4-r11,pc}
        0x0001a4d8:    f8d1a014    ....    LDR      r10,[r1,#0x14]
        0x0001a4dc:    6809        .h      LDR      r1,[r1,#0]
        0x0001a4de:    6912        .i      LDR      r2,[r2,#0x10]
        0x0001a4e0:    9203        ..      STR      r2,[sp,#0xc]
        0x0001a4e2:    2d03        .-      CMP      r5,#3
        0x0001a4e4:    d277        w.      BCS      0x1a5d6 ; am_hal_mspi_blocking_transfer + 506
        0x0001a4e6:    ea5f0891    _...    LSRS     r8,r1,#2
        0x0001a4ea:    f1c80000    ....    RSB      r0,r8,#0
        0x0001a4ee:    eb010980    ....    ADD      r9,r1,r0,LSL #2
        0x0001a4f2:    f04f0400    O...    MOV      r4,#0
        0x0001a4f6:    d018        ..      BEQ      0x1a52a ; am_hal_mspi_blocking_transfer + 334
        0x0001a4f8:    4842        BH      LDR      r0,[pc,#264] ; [0x1a604] = 0x4006001c
        0x0001a4fa:    eb003705    ...7    ADD      r7,r0,r5,LSL #12
        0x0001a4fe:    0328        (.      LSLS     r0,r5,#12
        0x0001a500:    f1004b80    ...K    ADD      r11,r0,#0x40000000
        0x0001a504:    f50b2bc0    ...+    ADD      r11,r11,#0x60000
        0x0001a508:    2000        .       MOVS     r0,#0
        0x0001a50a:    4603        .F      MOV      r3,r0
        0x0001a50c:    9000        ..      STR      r0,[sp,#0]
        0x0001a50e:    223f        ?"      MOVS     r2,#0x3f
        0x0001a510:    4639        9F      MOV      r1,r7
        0x0001a512:    9803        ..      LDR      r0,[sp,#0xc]
        0x0001a514:    f7fffe52    ..R.    BL       am_hal_delay_us_status_check ; 0x1a1bc
        0x0001a518:    2800        .(      CMP      r0,#0
        0x0001a51a:    d15c        \.      BNE      0x1a5d6 ; am_hal_mspi_blocking_transfer + 506
        0x0001a51c:    f8db0014    ....    LDR      r0,[r11,#0x14]
        0x0001a520:    f84a0024    J.$.    STR      r0,[r10,r4,LSL #2]
        0x0001a524:    1c64        d.      ADDS     r4,r4,#1
        0x0001a526:    4544        DE      CMP      r4,r8
        0x0001a528:    d3ee        ..      BCC      0x1a508 ; am_hal_mspi_blocking_transfer + 300
        0x0001a52a:    f1b90f00    ....    CMP      r9,#0
        0x0001a52e:    d05c        \.      BEQ      0x1a5ea ; am_hal_mspi_blocking_transfer + 526
        0x0001a530:    2000        .       MOVS     r0,#0
        0x0001a532:    9000        ..      STR      r0,[sp,#0]
        0x0001a534:    4833        3H      LDR      r0,[pc,#204] ; [0x1a604] = 0x4006001c
        0x0001a536:    2300        .#      MOVS     r3,#0
        0x0001a538:    eb003105    ...1    ADD      r1,r0,r5,LSL #12
        0x0001a53c:    223f        ?"      MOVS     r2,#0x3f
        0x0001a53e:    9803        ..      LDR      r0,[sp,#0xc]
        0x0001a540:    f7fffe3c    ..<.    BL       am_hal_delay_us_status_check ; 0x1a1bc
        0x0001a544:    bbf0        ..      CBNZ     r0,0x1a5c4 ; am_hal_mspi_blocking_transfer + 488
        0x0001a546:    0328        (.      LSLS     r0,r5,#12
        0x0001a548:    f1004080    ...@    ADD      r0,r0,#0x40000000
        0x0001a54c:    f50020c0    ...     ADD      r0,r0,#0x60000
        0x0001a550:    6940        @i      LDR      r0,[r0,#0x14]
        0x0001a552:    900a        ..      STR      r0,[sp,#0x28]
        0x0001a554:    eb0a0084    ....    ADD      r0,r10,r4,LSL #2
        0x0001a558:    1e41        A.      SUBS     r1,r0,#1
        0x0001a55a:    f10d0027    ..'.    ADD      r0,sp,#0x27
        0x0001a55e:    f0190f01    ....    TST      r9,#1
        0x0001a562:    d003        ..      BEQ      0x1a56c ; am_hal_mspi_blocking_transfer + 400
        0x0001a564:    f8102f01    .../    LDRB     r2,[r0,#1]!
        0x0001a568:    f8012f01    .../    STRB     r2,[r1,#1]!
        0x0001a56c:    ea5f0259    _.Y.    LSRS     r2,r9,#1
        0x0001a570:    d03b        ;.      BEQ      0x1a5ea ; am_hal_mspi_blocking_transfer + 526
        0x0001a572:    7843        Cx      LDRB     r3,[r0,#1]
        0x0001a574:    704b        Kp      STRB     r3,[r1,#1]
        0x0001a576:    f8103f02    ...?    LDRB     r3,[r0,#2]!
        0x0001a57a:    f8013f02    ...?    STRB     r3,[r1,#2]!
        0x0001a57e:    1e52        R.      SUBS     r2,r2,#1
        0x0001a580:    d1f7        ..      BNE      0x1a572 ; am_hal_mspi_blocking_transfer + 406
        0x0001a582:    e032        2.      B        0x1a5ea ; am_hal_mspi_blocking_transfer + 526
        0x0001a584:    f8d1a014    ....    LDR      r10,[r1,#0x14]
        0x0001a588:    f8d18000    ....    LDR      r8,[r1,#0]
        0x0001a58c:    6911        .i      LDR      r1,[r2,#0x10]
        0x0001a58e:    9101        ..      STR      r1,[sp,#4]
        0x0001a590:    2d03        .-      CMP      r5,#3
        0x0001a592:    d220         .      BCS      0x1a5d6 ; am_hal_mspi_blocking_transfer + 506
        0x0001a594:    2400        .$      MOVS     r4,#0
        0x0001a596:    f1b80f00    ....    CMP      r8,#0
        0x0001a59a:    d926        &.      BLS      0x1a5ea ; am_hal_mspi_blocking_transfer + 526
        0x0001a59c:    0328        (.      LSLS     r0,r5,#12
        0x0001a59e:    491a        .I      LDR      r1,[pc,#104] ; [0x1a608] = 0x40060018
        0x0001a5a0:    f1004980    ...I    ADD      r9,r0,#0x40000000
        0x0001a5a4:    46a3        .F      MOV      r11,r4
        0x0001a5a6:    f50929c0    ...)    ADD      r9,r9,#0x60000
        0x0001a5aa:    eb013705    ...7    ADD      r7,r1,r5,LSL #12
        0x0001a5ae:    bf00        ..      NOP      
        0x0001a5b0:    f85a0024    Z.$.    LDR      r0,[r10,r4,LSL #2]
        0x0001a5b4:    f8c90010    ....    STR      r0,[r9,#0x10]
        0x0001a5b8:    2310        .#      MOVS     r3,#0x10
        0x0001a5ba:    223f        ?"      MOVS     r2,#0x3f
        0x0001a5bc:    4639        9F      MOV      r1,r7
        0x0001a5be:    f8cdb000    ....    STR      r11,[sp,#0]
        0x0001a5c2:    e000        ..      B        0x1a5c6 ; am_hal_mspi_blocking_transfer + 490
        0x0001a5c4:    e007        ..      B        0x1a5d6 ; am_hal_mspi_blocking_transfer + 506
        0x0001a5c6:    9801        ..      LDR      r0,[sp,#4]
        0x0001a5c8:    f7fffdf8    ....    BL       am_hal_delay_us_status_check ; 0x1a1bc
        0x0001a5cc:    1c64        d.      ADDS     r4,r4,#1
        0x0001a5ce:    ebb80f84    ....    CMP      r8,r4,LSL #2
        0x0001a5d2:    d8ed        ..      BHI      0x1a5b0 ; am_hal_mspi_blocking_transfer + 468
        0x0001a5d4:    b148        H.      CBZ      r0,0x1a5ea ; am_hal_mspi_blocking_transfer + 526
        0x0001a5d6:    f04f31ff    O..1    MOV      r1,#0xffffffff
        0x0001a5da:    f8c61208    ....    STR      r1,[r6,#0x208]
        0x0001a5de:    9904        ..      LDR      r1,[sp,#0x10]
        0x0001a5e0:    f8c61200    ....    STR      r1,[r6,#0x200]
        0x0001a5e4:    b011        ..      ADD      sp,sp,#0x44
        0x0001a5e6:    e8bd8ff0    ....    POP      {r4-r11,pc}
        0x0001a5ea:    2001        .       MOVS     r0,#1
        0x0001a5ec:    9000        ..      STR      r0,[sp,#0]
        0x0001a5ee:    4807        .H      LDR      r0,[pc,#28] ; [0x1a60c] = 0x40060000
        0x0001a5f0:    2302        .#      MOVS     r3,#2
        0x0001a5f2:    eb003105    ...1    ADD      r1,r0,r5,LSL #12
        0x0001a5f6:    461a        .F      MOV      r2,r3
        0x0001a5f8:    9810        ..      LDR      r0,[sp,#0x40]
        0x0001a5fa:    f7fffddf    ....    BL       am_hal_delay_us_status_check ; 0x1a1bc
        0x0001a5fe:    e7ea        ..      B        0x1a5d6 ; am_hal_mspi_blocking_transfer + 506
    $d
        0x0001a600:    00bebebe    ....    DCD    12500670
        0x0001a604:    4006001c    ...@    DCD    1074135068
        0x0001a608:    40060018    ...@    DCD    1074135064
        0x0001a60c:    40060000    ...@    DCD    1074135040
    $t
    i.am_hal_mspi_configure
    am_hal_mspi_configure
        0x0001a610:    6842        Bh      LDR      r2,[r0,#4]
        0x0001a612:    2800        .(      CMP      r0,#0
        0x0001a614:    bf1c        ..      ITT      NE
        0x0001a616:    6800        .h      LDRNE    r0,[r0,#0]
        0x0001a618:    f0107f80    ....    TSTNE    r0,#0x1000000
        0x0001a61c:    d005        ..      BEQ      0x1a62a ; am_hal_mspi_configure + 26
        0x0001a61e:    f8dfc060    ..`.    LDR      r12,[pc,#96] ; [0x1a680] = 0xbebebe
        0x0001a622:    f020437f     ..C    BIC      r3,r0,#0xff000000
        0x0001a626:    4563        cE      CMP      r3,r12
        0x0001a628:    d001        ..      BEQ      0x1a62e ; am_hal_mspi_configure + 30
        0x0001a62a:    2002        .       MOVS     r0,#2
        0x0001a62c:    4770        pG      BX       lr
        0x0001a62e:    f0107f00    ....    TST      r0,#0x2000000
        0x0001a632:    bf1c        ..      ITT      NE
        0x0001a634:    2007        .       MOVNE    r0,#7
        0x0001a636:    4770        pG      BXNE     lr
        0x0001a638:    0310        ..      LSLS     r0,r2,#12
        0x0001a63a:    f1004080    ...@    ADD      r0,r0,#0x40000000
        0x0001a63e:    f50020c0    ...     ADD      r0,r0,#0x60000
        0x0001a642:    f8d03090    ...0    LDR      r3,[r0,#0x90]
        0x0001a646:    f0230301    #...    BIC      r3,r3,#1
        0x0001a64a:    f8c03090    ...0    STR      r3,[r0,#0x90]
        0x0001a64e:    2300        .#      MOVS     r3,#0
        0x0001a650:    f8c0309c    ...0    STR      r3,[r0,#0x9c]
        0x0001a654:    f8c03080    ...0    STR      r3,[r0,#0x80]
        0x0001a658:    ebc21042    ..B.    RSB      r0,r2,r2,LSL #5
        0x0001a65c:    eb0002c0    ....    ADD      r2,r0,r0,LSL #3
        0x0001a660:    4808        .H      LDR      r0,[pc,#32] ; [0x1a684] = 0x10005808
        0x0001a662:    684b        Kh      LDR      r3,[r1,#4]
        0x0001a664:    eb0000c2    ....    ADD      r0,r0,r2,LSL #3
        0x0001a668:    6183        .a      STR      r3,[r0,#0x18]
        0x0001a66a:    680a        .h      LDR      r2,[r1,#0]
        0x0001a66c:    6142        Ba      STR      r2,[r0,#0x14]
        0x0001a66e:    7a09        .z      LDRB     r1,[r1,#8]
        0x0001a670:    7241        Ar      STRB     r1,[r0,#9]
        0x0001a672:    2101        .!      MOVS     r1,#1
        0x0001a674:    7201        .r      STRB     r1,[r0,#8]
        0x0001a676:    2114        .!      MOVS     r1,#0x14
        0x0001a678:    7281        .r      STRB     r1,[r0,#0xa]
        0x0001a67a:    2000        .       MOVS     r0,#0
        0x0001a67c:    4770        pG      BX       lr
    $d
        0x0001a67e:    0000        ..      DCW    0
        0x0001a680:    00bebebe    ....    DCD    12500670
        0x0001a684:    10005808    .X..    DCD    268457992
    $t
    i.am_hal_mspi_control
    am_hal_mspi_control
        0x0001a688:    e92d43f0    -..C    PUSH     {r4-r9,lr}
        0x0001a68c:    b083        ..      SUB      sp,sp,#0xc
        0x0001a68e:    0004        ..      MOVS     r4,r0
        0x0001a690:    f04f0600    O...    MOV      r6,#0
        0x0001a694:    bf1c        ..      ITT      NE
        0x0001a696:    6820         h      LDRNE    r0,[r4,#0]
        0x0001a698:    f0107f80    ....    TSTNE    r0,#0x1000000
        0x0001a69c:    d004        ..      BEQ      0x1a6a8 ; am_hal_mspi_control + 32
        0x0001a69e:    4bf8        .K      LDR      r3,[pc,#992] ; [0x1aa80] = 0xbebebe
        0x0001a6a0:    f020407f     ..@    BIC      r0,r0,#0xff000000
        0x0001a6a4:    4298        .B      CMP      r0,r3
        0x0001a6a6:    d003        ..      BEQ      0x1a6b0 ; am_hal_mspi_control + 40
        0x0001a6a8:    b003        ..      ADD      sp,sp,#0xc
        0x0001a6aa:    2002        .       MOVS     r0,#2
        0x0001a6ac:    e8bd83f0    ....    POP      {r4-r9,pc}
        0x0001a6b0:    291a        .)      CMP      r1,#0x1a
        0x0001a6b2:    f20084d5    ....    BHI.W    0x1b060 ; am_hal_mspi_control + 2520
        0x0001a6b6:    7a20         z      LDRB     r0,[r4,#8]
        0x0001a6b8:    2800        .(      CMP      r0,#0
        0x0001a6ba:    f00083fc    ....    BEQ.W    0x1aeb6 ; am_hal_mspi_control + 2094
        0x0001a6be:    6865        eh      LDR      r5,[r4,#4]
        0x0001a6c0:    291a        .)      CMP      r1,#0x1a
        0x0001a6c2:    f08084cd    ....    BCS.W    0x1b060 ; am_hal_mspi_control + 2520
        0x0001a6c6:    e8dff001    ....    TBB      [pc,r1]
    $d
        0x0001a6ca:    1c0d        ..      DCW    7181
        0x0001a6cc:    5d533e2d    ->S]    DCD    1565736493
        0x0001a6d0:    8f7e7167    gq~.    DCD    2407428455
        0x0001a6d4:    f5f7a699    ....    DCD    4126647961
        0x0001a6d8:    f2f3f4e0    ....    DCD    4076074208
        0x0001a6dc:    eeeff0f1    ....    DCD    4008702193
        0x0001a6e0:    eaebeced    ....    DCD    3941330157
    $t
        0x0001a6e4:    2a00        .*      CMP      r2,#0
        0x0001a6e6:    f00084bb    ....    BEQ.W    0x1b060 ; am_hal_mspi_control + 2520
        0x0001a6ea:    0328        (.      LSLS     r0,r5,#12
        0x0001a6ec:    f1004080    ...@    ADD      r0,r0,#0x40000000
        0x0001a6f0:    f50020c0    ...     ADD      r0,r0,#0x60000
        0x0001a6f4:    7811        .x      LDRB     r1,[r2,#0]
        0x0001a6f6:    6b02        .k      LDR      r2,[r0,#0x30]
        0x0001a6f8:    f3610200    a...    BFI      r2,r1,#0,#1
        0x0001a6fc:    6302        .c      STR      r2,[r0,#0x30]
        0x0001a6fe:    f000bcad    ....    B.W      0x1b05c ; am_hal_mspi_control + 2516
        0x0001a702:    2a00        .*      CMP      r2,#0
        0x0001a704:    f00084ac    ....    BEQ.W    0x1b060 ; am_hal_mspi_control + 2520
        0x0001a708:    49de        .I      LDR      r1,[pc,#888] ; [0x1aa84] = 0xe0e0e0
        0x0001a70a:    6810        .h      LDR      r0,[r2,#0]
        0x0001a70c:    4208        .B      TST      r0,r1
        0x0001a70e:    f04084a7    @...    BNE.W    0x1b060 ; am_hal_mspi_control + 2520
        0x0001a712:    0329        ).      LSLS     r1,r5,#12
        0x0001a714:    f1014180    ...A    ADD      r1,r1,#0x40000000
        0x0001a718:    f50121c0    ...!    ADD      r1,r1,#0x60000
        0x0001a71c:    f8c102b4    ....    STR      r0,[r1,#0x2b4]
        0x0001a720:    f000bc9c    ....    B.W      0x1b05c ; am_hal_mspi_control + 2516
        0x0001a724:    2a00        .*      CMP      r2,#0
        0x0001a726:    bf1c        ..      ITT      NE
        0x0001a728:    6812        .h      LDRNE    r2,[r2,#0]
        0x0001a72a:    2a08        .*      CMPNE    r2,#8
        0x0001a72c:    f0808498    ....    BCS.W    0x1b060 ; am_hal_mspi_control + 2520
        0x0001a730:    0328        (.      LSLS     r0,r5,#12
        0x0001a732:    f1004180    ...A    ADD      r1,r0,#0x40000000
        0x0001a736:    f50121c0    ...!    ADD      r1,r1,#0x60000
        0x0001a73a:    6b08        .k      LDR      r0,[r1,#0x30]
        0x0001a73c:    f3621007    b...    BFI      r0,r2,#4,#4
        0x0001a740:    6308        .c      STR      r0,[r1,#0x30]
        0x0001a742:    f000bc8b    ....    B.W      0x1b05c ; am_hal_mspi_control + 2516
        0x0001a746:    2a00        .*      CMP      r2,#0
        0x0001a748:    f000848a    ....    BEQ.W    0x1b060 ; am_hal_mspi_control + 2520
        0x0001a74c:    6810        .h      LDR      r0,[r2,#0]
        0x0001a74e:    2803        .(      CMP      r0,#3
        0x0001a750:    d302        ..      BCC      0x1a758 ; am_hal_mspi_control + 208
        0x0001a752:    2807        .(      CMP      r0,#7
        0x0001a754:    f0408484    @...    BNE.W    0x1b060 ; am_hal_mspi_control + 2520
        0x0001a758:    0329        ).      LSLS     r1,r5,#12
        0x0001a75a:    f1014180    ...A    ADD      r1,r1,#0x40000000
        0x0001a75e:    f50121c0    ...!    ADD      r1,r1,#0x60000
        0x0001a762:    6b0a        .k      LDR      r2,[r1,#0x30]
        0x0001a764:    3008        .0      ADDS     r0,r0,#8
        0x0001a766:    f3601207    `...    BFI      r2,r0,#4,#4
        0x0001a76a:    630a        .c      STR      r2,[r1,#0x30]
        0x0001a76c:    f000bc76    ..v.    B.W      0x1b05c ; am_hal_mspi_control + 2516
        0x0001a770:    0328        (.      LSLS     r0,r5,#12
        0x0001a772:    f1004080    ...@    ADD      r0,r0,#0x40000000
        0x0001a776:    f50020c0    ...     ADD      r0,r0,#0x60000
        0x0001a77a:    f8d01090    ....    LDR      r1,[r0,#0x90]
        0x0001a77e:    f4216100    !..a    BIC      r1,r1,#0x800
        0x0001a782:    e02d        -.      B        0x1a7e0 ; am_hal_mspi_control + 344
        0x0001a784:    0328        (.      LSLS     r0,r5,#12
        0x0001a786:    f1004080    ...@    ADD      r0,r0,#0x40000000
        0x0001a78a:    f50020c0    ...     ADD      r0,r0,#0x60000
        0x0001a78e:    f8d01090    ....    LDR      r1,[r0,#0x90]
        0x0001a792:    f4416100    A..a    ORR      r1,r1,#0x800
        0x0001a796:    e023        #.      B        0x1a7e0 ; am_hal_mspi_control + 344
        0x0001a798:    0328        (.      LSLS     r0,r5,#12
        0x0001a79a:    f1004080    ...@    ADD      r0,r0,#0x40000000
        0x0001a79e:    f50020c0    ...     ADD      r0,r0,#0x60000
        0x0001a7a2:    f8d0109c    ....    LDR      r1,[r0,#0x9c]
        0x0001a7a6:    f0214100    !..A    BIC      r1,r1,#0x80000000
        0x0001a7aa:    e008        ..      B        0x1a7be ; am_hal_mspi_control + 310
        0x0001a7ac:    0328        (.      LSLS     r0,r5,#12
        0x0001a7ae:    f1004080    ...@    ADD      r0,r0,#0x40000000
        0x0001a7b2:    f50020c0    ...     ADD      r0,r0,#0x60000
        0x0001a7b6:    f8d0109c    ....    LDR      r1,[r0,#0x9c]
        0x0001a7ba:    f0414100    A..A    ORR      r1,r1,#0x80000000
        0x0001a7be:    f8c0109c    ....    STR      r1,[r0,#0x9c]
        0x0001a7c2:    f000bc4b    ..K.    B.W      0x1b05c ; am_hal_mspi_control + 2516
        0x0001a7c6:    2a00        .*      CMP      r2,#0
        0x0001a7c8:    f000844a    ..J.    BEQ.W    0x1b060 ; am_hal_mspi_control + 2520
        0x0001a7cc:    0328        (.      LSLS     r0,r5,#12
        0x0001a7ce:    f1004080    ...@    ADD      r0,r0,#0x40000000
        0x0001a7d2:    f50020c0    ...     ADD      r0,r0,#0x60000
        0x0001a7d6:    7812        .x      LDRB     r2,[r2,#0]
        0x0001a7d8:    f8d01090    ....    LDR      r1,[r0,#0x90]
        0x0001a7dc:    f3620183    b...    BFI      r1,r2,#2,#2
        0x0001a7e0:    f8c01090    ....    STR      r1,[r0,#0x90]
        0x0001a7e4:    f000bc3a    ..:.    B.W      0x1b05c ; am_hal_mspi_control + 2516
        0x0001a7e8:    0328        (.      LSLS     r0,r5,#12
        0x0001a7ea:    f1004080    ...@    ADD      r0,r0,#0x40000000
        0x0001a7ee:    f50020c0    ...     ADD      r0,r0,#0x60000
        0x0001a7f2:    f8d01088    ....    LDR      r1,[r0,#0x88]
        0x0001a7f6:    f0210101    !...    BIC      r1,r1,#1
        0x0001a7fa:    e008        ..      B        0x1a80e ; am_hal_mspi_control + 390
        0x0001a7fc:    0328        (.      LSLS     r0,r5,#12
        0x0001a7fe:    f1004080    ...@    ADD      r0,r0,#0x40000000
        0x0001a802:    f50020c0    ...     ADD      r0,r0,#0x60000
        0x0001a806:    f8d01088    ....    LDR      r1,[r0,#0x88]
        0x0001a80a:    f0410101    A...    ORR      r1,r1,#1
        0x0001a80e:    f8c01088    ....    STR      r1,[r0,#0x88]
        0x0001a812:    f000bc23    ..#.    B.W      0x1b05c ; am_hal_mspi_control + 2516
        0x0001a816:    2000        .       MOVS     r0,#0
        0x0001a818:    2a00        .*      CMP      r2,#0
        0x0001a81a:    f0008421    ..!.    BEQ.W    0x1b060 ; am_hal_mspi_control + 2520
        0x0001a81e:    0329        ).      LSLS     r1,r5,#12
        0x0001a820:    f1014180    ...A    ADD      r1,r1,#0x40000000
        0x0001a824:    f50121c0    ...!    ADD      r1,r1,#0x60000
        0x0001a828:    7813        .x      LDRB     r3,[r2,#0]
        0x0001a82a:    f8d1c088    ....    LDR      r12,[r1,#0x88]
        0x0001a82e:    f3630c82    c...    BFI      r12,r3,#2,#1
        0x0001a832:    f8c1c088    ....    STR      r12,[r1,#0x88]
        0x0001a836:    f892c001    ....    LDRB     r12,[r2,#1]
        0x0001a83a:    f8d13088    ...0    LDR      r3,[r1,#0x88]
        0x0001a83e:    f36c1304    l...    BFI      r3,r12,#4,#1
        0x0001a842:    f8c13088    ...0    STR      r3,[r1,#0x88]
        0x0001a846:    f892c002    ....    LDRB     r12,[r2,#2]
        0x0001a84a:    f8d13088    ...0    LDR      r3,[r1,#0x88]
        0x0001a84e:    f36c230c    l..#    BFI      r3,r12,#8,#5
        0x0001a852:    f8c13088    ...0    STR      r3,[r1,#0x88]
        0x0001a856:    f892c003    ....    LDRB     r12,[r2,#3]
        0x0001a85a:    f8d13088    ...0    LDR      r3,[r1,#0x88]
        0x0001a85e:    f36c1345    l.E.    BFI      r3,r12,#5,#1
        0x0001a862:    f8c13088    ...0    STR      r3,[r1,#0x88]
        0x0001a866:    f892c004    ....    LDRB     r12,[r2,#4]
        0x0001a86a:    f8d13088    ...0    LDR      r3,[r1,#0x88]
        0x0001a86e:    f36c4314    l..C    BFI      r3,r12,#16,#5
        0x0001a872:    f8c13088    ...0    STR      r3,[r1,#0x88]
        0x0001a876:    7953        Sy      LDRB     r3,[r2,#5]
        0x0001a878:    f8d12088    ...     LDR      r2,[r1,#0x88]
        0x0001a87c:    f36302c3    c...    BFI      r2,r3,#3,#1
        0x0001a880:    f8c12088    ...     STR      r2,[r1,#0x88]
        0x0001a884:    b003        ..      ADD      sp,sp,#0xc
        0x0001a886:    e8bd83f0    ....    POP      {r4-r9,pc}
        0x0001a88a:    0328        (.      LSLS     r0,r5,#12
        0x0001a88c:    f1004080    ...@    ADD      r0,r0,#0x40000000
        0x0001a890:    f50020c0    ...     ADD      r0,r0,#0x60000
        0x0001a894:    f8d01090    ....    LDR      r1,[r0,#0x90]
        0x0001a898:    f0210101    !...    BIC      r1,r1,#1
        0x0001a89c:    e7a0        ..      B        0x1a7e0 ; am_hal_mspi_control + 344
        0x0001a89e:    e2f5        ..      B        0x1ae8c ; am_hal_mspi_control + 2052
        0x0001a8a0:    e2dc        ..      B        0x1ae5c ; am_hal_mspi_control + 2004
        0x0001a8a2:    e2cb        ..      B        0x1ae3c ; am_hal_mspi_control + 1972
        0x0001a8a4:    e2b2        ..      B        0x1ae0c ; am_hal_mspi_control + 1924
        0x0001a8a6:    e1e6        ..      B        0x1ac76 ; am_hal_mspi_control + 1518
        0x0001a8a8:    e16d        m.      B        0x1ab86 ; am_hal_mspi_control + 1278
        0x0001a8aa:    e16a        j.      B        0x1ab82 ; am_hal_mspi_control + 1274
        0x0001a8ac:    e11e        ..      B        0x1aaec ; am_hal_mspi_control + 1124
        0x0001a8ae:    e086        ..      B        0x1a9be ; am_hal_mspi_control + 822
        0x0001a8b0:    e079        y.      B        0x1a9a6 ; am_hal_mspi_control + 798
        0x0001a8b2:    e06b        k.      B        0x1a98c ; am_hal_mspi_control + 772
        0x0001a8b4:    e03b        ;.      B        0x1a92e ; am_hal_mspi_control + 678
        0x0001a8b6:    e7ff        ..      B        0x1a8b8 ; am_hal_mspi_control + 560
        0x0001a8b8:    b125        %.      CBZ      r5,0x1a8c4 ; am_hal_mspi_control + 572
        0x0001a8ba:    2d01        .-      CMP      r5,#1
        0x0001a8bc:    d00a        ..      BEQ      0x1a8d4 ; am_hal_mspi_control + 588
        0x0001a8be:    2d02        .-      CMP      r5,#2
        0x0001a8c0:    d010        ..      BEQ      0x1a8e4 ; am_hal_mspi_control + 604
        0x0001a8c2:    e016        ..      B        0x1a8f2 ; am_hal_mspi_control + 618
        0x0001a8c4:    6890        .h      LDR      r0,[r2,#8]
        0x0001a8c6:    f1a050a0    ...P    SUB      r0,r0,#0x14000000
        0x0001a8ca:    f1b06f80    ...o    CMP      r0,#0x4000000
        0x0001a8ce:    f08082f0    ....    BCS.W    0x1aeb2 ; am_hal_mspi_control + 2090
        0x0001a8d2:    e00e        ..      B        0x1a8f2 ; am_hal_mspi_control + 618
        0x0001a8d4:    6890        .h      LDR      r0,[r2,#8]
        0x0001a8d6:    f1a050c0    ...P    SUB      r0,r0,#0x18000000
        0x0001a8da:    f1b06f80    ...o    CMP      r0,#0x4000000
        0x0001a8de:    f08082e8    ....    BCS.W    0x1aeb2 ; am_hal_mspi_control + 2090
        0x0001a8e2:    e006        ..      B        0x1a8f2 ; am_hal_mspi_control + 618
        0x0001a8e4:    6890        .h      LDR      r0,[r2,#8]
        0x0001a8e6:    f1a050e0    ...P    SUB      r0,r0,#0x1c000000
        0x0001a8ea:    f1b06f80    ...o    CMP      r0,#0x4000000
        0x0001a8ee:    f08082e0    ....    BCS.W    0x1aeb2 ; am_hal_mspi_control + 2090
        0x0001a8f2:    4965        eI      LDR      r1,[pc,#404] ; [0x1aa88] = 0x3ff0000
        0x0001a8f4:    6890        .h      LDR      r0,[r2,#8]
        0x0001a8f6:    7b13        .{      LDRB     r3,[r2,#0xc]
        0x0001a8f8:    f04f0c10    O...    MOV      r12,#0x10
        0x0001a8fc:    4008        .@      ANDS     r0,r0,r1
        0x0001a8fe:    ea0c1303    ....    AND      r3,r12,r3,LSL #4
        0x0001a902:    4318        .C      ORRS     r0,r0,r3
        0x0001a904:    7b53        S{      LDRB     r3,[r2,#0xd]
        0x0001a906:    f003030f    ....    AND      r3,r3,#0xf
        0x0001a90a:    4318        .C      ORRS     r0,r0,r3
        0x0001a90c:    6813        .h      LDR      r3,[r2,#0]
        0x0001a90e:    6852        Rh      LDR      r2,[r2,#4]
        0x0001a910:    f3c34309    ...C    UBFX     r3,r3,#16,#10
        0x0001a914:    4011        .@      ANDS     r1,r1,r2
        0x0001a916:    4319        .C      ORRS     r1,r1,r3
        0x0001a918:    032a        *.      LSLS     r2,r5,#12
        0x0001a91a:    f1024280    ...B    ADD      r2,r2,#0x40000000
        0x0001a91e:    f50222c0    ..."    ADD      r2,r2,#0x60000
        0x0001a922:    f8c2109c    ....    STR      r1,[r2,#0x9c]
        0x0001a926:    f8c20080    ....    STR      r0,[r2,#0x80]
        0x0001a92a:    f000bb97    ....    B.W      0x1b05c ; am_hal_mspi_control + 2516
        0x0001a92e:    2a00        .*      CMP      r2,#0
        0x0001a930:    f0008396    ....    BEQ.W    0x1b060 ; am_hal_mspi_control + 2520
        0x0001a934:    7990        .y      LDRB     r0,[r2,#6]
        0x0001a936:    f44f1100    O...    MOV      r1,#0x200000
        0x0001a93a:    ea015040    ..@P    AND      r0,r1,r0,LSL #21
        0x0001a93e:    7911        .y      LDRB     r1,[r2,#4]
        0x0001a940:    f44f4300    O..C    MOV      r3,#0x8000
        0x0001a944:    f4401080    @...    ORR      r0,r0,#0x100000
        0x0001a948:    ea0331c1    ...1    AND      r1,r3,r1,LSL #15
        0x0001a94c:    ea410300    A...    ORR      r3,r1,r0
        0x0001a950:    79d0        .y      LDRB     r0,[r2,#7]
        0x0001a952:    f44f4180    O..A    MOV      r1,#0x4000
        0x0001a956:    ea013080    ...0    AND      r0,r1,r0,LSL #14
        0x0001a95a:    4303        .C      ORRS     r3,r3,r0
        0x0001a95c:    7a10        .z      LDRB     r0,[r2,#8]
        0x0001a95e:    1049        I.      ASRS     r1,r1,#1
        0x0001a960:    ea013040    ..@0    AND      r0,r1,r0,LSL #13
        0x0001a964:    4318        .C      ORRS     r0,r0,r3
        0x0001a966:    7951        Qy      LDRB     r1,[r2,#5]
        0x0001a968:    f44f5380    O..S    MOV      r3,#0x1000
        0x0001a96c:    ea033101    ...1    AND      r1,r3,r1,LSL #12
        0x0001a970:    4308        .C      ORRS     r0,r0,r1
        0x0001a972:    8811        ..      LDRH     r1,[r2,#0]
        0x0001a974:    f3c1010b    ....    UBFX     r1,r1,#0,#12
        0x0001a978:    4308        .C      ORRS     r0,r0,r1
        0x0001a97a:    0329        ).      LSLS     r1,r5,#12
        0x0001a97c:    f1014180    ...A    ADD      r1,r1,#0x40000000
        0x0001a980:    f50121c0    ...!    ADD      r1,r1,#0x60000
        0x0001a984:    f8c100a0    ....    STR      r0,[r1,#0xa0]
        0x0001a988:    f000bb68    ..h.    B.W      0x1b05c ; am_hal_mspi_control + 2516
        0x0001a98c:    0328        (.      LSLS     r0,r5,#12
        0x0001a98e:    f1004080    ...@    ADD      r0,r0,#0x40000000
        0x0001a992:    f50020c0    ...     ADD      r0,r0,#0x60000
        0x0001a996:    f8d01090    ....    LDR      r1,[r0,#0x90]
        0x0001a99a:    f0410101    A...    ORR      r1,r1,#1
        0x0001a99e:    f8c01090    ....    STR      r1,[r0,#0x90]
        0x0001a9a2:    f000bb5b    ..[.    B.W      0x1b05c ; am_hal_mspi_control + 2516
        0x0001a9a6:    2a00        .*      CMP      r2,#0
        0x0001a9a8:    f000835a    ..Z.    BEQ.W    0x1b060 ; am_hal_mspi_control + 2520
        0x0001a9ac:    7810        .x      LDRB     r0,[r2,#0]
        0x0001a9ae:    72a0        .r      STRB     r0,[r4,#0xa]
        0x0001a9b0:    4620         F      MOV      r0,r4
        0x0001a9b2:    f003f8ad    ....    BL       mspi_device_configure ; 0x1db10
        0x0001a9b6:    b003        ..      ADD      sp,sp,#0xc
        0x0001a9b8:    2000        .       MOVS     r0,#0
        0x0001a9ba:    e8bd83f0    ....    POP      {r4-r9,pc}
        0x0001a9be:    0328        (.      LSLS     r0,r5,#12
        0x0001a9c0:    f1004080    ...@    ADD      r0,r0,#0x40000000
        0x0001a9c4:    f50020c0    ...     ADD      r0,r0,#0x60000
        0x0001a9c8:    7811        .x      LDRB     r1,[r2,#0]
        0x0001a9ca:    f8d02084    ...     LDR      r2,[r0,#0x84]
        0x0001a9ce:    f3614215    a..B    BFI      r2,r1,#16,#6
        0x0001a9d2:    f8c02084    ...     STR      r2,[r0,#0x84]
        0x0001a9d6:    2908        .)      CMP      r1,#8
        0x0001a9d8:    d024        $.      BEQ      0x1aa24 ; am_hal_mspi_control + 924
        0x0001a9da:    dc08        ..      BGT      0x1a9ee ; am_hal_mspi_control + 870
        0x0001a9dc:    2907        .)      CMP      r1,#7
        0x0001a9de:    f0808268    ..h.    BCS.W    0x1aeb2 ; am_hal_mspi_control + 2090
        0x0001a9e2:    e8dff001    ....    TBB      [pc,r1]
    $d
        0x0001a9e6:    0efd        ..      DCW    3837
        0x0001a9e8:    fd1f1f0e    ....    DCD    4246675214
        0x0001a9ec:    001f        ..      DCW    31
    $t
        0x0001a9ee:    290c        .)      CMP      r1,#0xc
        0x0001a9f0:    bf18        ..      IT       NE
        0x0001a9f2:    2910        .)      CMPNE    r1,#0x10
        0x0001a9f4:    d016        ..      BEQ      0x1aa24 ; am_hal_mspi_control + 924
        0x0001a9f6:    2918        .)      CMP      r1,#0x18
        0x0001a9f8:    bf18        ..      IT       NE
        0x0001a9fa:    2920         )      CMPNE    r1,#0x20
        0x0001a9fc:    d012        ..      BEQ      0x1aa24 ; am_hal_mspi_control + 924
        0x0001a9fe:    f000ba58    ..X.    B.W      0x1aeb2 ; am_hal_mspi_control + 2090
        0x0001aa02:    f8d02084    ...     LDR      r2,[r0,#0x84]
        0x0001aa06:    f0427280    B..r    ORR      r2,r2,#0x1000000
        0x0001aa0a:    f8c02084    ...     STR      r2,[r0,#0x84]
        0x0001aa0e:    f8d02084    ...     LDR      r2,[r0,#0x84]
        0x0001aa12:    f4220200    "...    BIC      r2,r2,#0x800000
        0x0001aa16:    f8c02084    ...     STR      r2,[r0,#0x84]
        0x0001aa1a:    f8d02084    ...     LDR      r2,[r0,#0x84]
        0x0001aa1e:    f4420280    B...    ORR      r2,r2,#0x400000
        0x0001aa22:    e00f        ..      B        0x1aa44 ; am_hal_mspi_control + 956
        0x0001aa24:    f8d02084    ...     LDR      r2,[r0,#0x84]
        0x0001aa28:    f0227280    "..r    BIC      r2,r2,#0x1000000
        0x0001aa2c:    f8c02084    ...     STR      r2,[r0,#0x84]
        0x0001aa30:    f8d02084    ...     LDR      r2,[r0,#0x84]
        0x0001aa34:    f4220200    "...    BIC      r2,r2,#0x800000
        0x0001aa38:    f8c02084    ...     STR      r2,[r0,#0x84]
        0x0001aa3c:    f8d02084    ...     LDR      r2,[r0,#0x84]
        0x0001aa40:    f4220280    "...    BIC      r2,r2,#0x400000
        0x0001aa44:    f8c02084    ...     STR      r2,[r0,#0x84]
        0x0001aa48:    69a2        .i      LDR      r2,[r4,#0x18]
        0x0001aa4a:    b3aa        ..      CBZ      r2,0x1aab8 ; am_hal_mspi_control + 1072
        0x0001aa4c:    f04f0220    O. .    MOV      r2,#0x20
        0x0001aa50:    f8c02114    ...!    STR      r2,[r0,#0x114]
        0x0001aa54:    2908        .)      CMP      r1,#8
        0x0001aa56:    d030        0.      BEQ      0x1aaba ; am_hal_mspi_control + 1074
        0x0001aa58:    dc08        ..      BGT      0x1aa6c ; am_hal_mspi_control + 996
        0x0001aa5a:    2907        .)      CMP      r1,#7
        0x0001aa5c:    f0808229    ..).    BCS.W    0x1aeb2 ; am_hal_mspi_control + 2090
        0x0001aa60:    e8dff001    ....    TBB      [pc,r1]
    $d
        0x0001aa64:    2b1414be    ...+    DCD    722736318
        0x0001aa68:    002bbe2b    +.+.    DCD    2866731
    $t
        0x0001aa6c:    290c        .)      CMP      r1,#0xc
        0x0001aa6e:    bf18        ..      IT       NE
        0x0001aa70:    2910        .)      CMPNE    r1,#0x10
        0x0001aa72:    d022        ".      BEQ      0x1aaba ; am_hal_mspi_control + 1074
        0x0001aa74:    2918        .)      CMP      r1,#0x18
        0x0001aa76:    bf18        ..      IT       NE
        0x0001aa78:    2920         )      CMPNE    r1,#0x20
        0x0001aa7a:    d01e        ..      BEQ      0x1aaba ; am_hal_mspi_control + 1074
        0x0001aa7c:    f000ba19    ....    B.W      0x1aeb2 ; am_hal_mspi_control + 2090
    $d
        0x0001aa80:    00bebebe    ....    DCD    12500670
        0x0001aa84:    00e0e0e0    ....    DCD    14737632
        0x0001aa88:    03ff0000    ....    DCD    67043328
    $t
        0x0001aa8c:    f8d02118    ...!    LDR      r2,[r0,#0x118]
        0x0001aa90:    f022021f    "...    BIC      r2,r2,#0x1f
        0x0001aa94:    f102020c    ....    ADD      r2,r2,#0xc
        0x0001aa98:    f8c02118    ...!    STR      r2,[r0,#0x118]
        0x0001aa9c:    6a02        .j      LDR      r2,[r0,#0x20]
        0x0001aa9e:    f422527c    ".|R    BIC      r2,r2,#0x3f00
        0x0001aaa2:    f50252f0    ...R    ADD      r2,r2,#0x1e00
        0x0001aaa6:    6202        .b      STR      r2,[r0,#0x20]
        0x0001aaa8:    f8d02118    ...!    LDR      r2,[r0,#0x118]
        0x0001aaac:    f42252f8    "..R    BIC      r2,r2,#0x1f00
        0x0001aab0:    f5026200    ...b    ADD      r2,r2,#0x800
        0x0001aab4:    f8c02118    ...!    STR      r2,[r0,#0x118]
        0x0001aab8:    e015        ..      B        0x1aae6 ; am_hal_mspi_control + 1118
        0x0001aaba:    f8d02118    ...!    LDR      r2,[r0,#0x118]
        0x0001aabe:    f022021f    "...    BIC      r2,r2,#0x1f
        0x0001aac2:    f1020208    ....    ADD      r2,r2,#8
        0x0001aac6:    f8c02118    ...!    STR      r2,[r0,#0x118]
        0x0001aaca:    6a02        .j      LDR      r2,[r0,#0x20]
        0x0001aacc:    f422527c    ".|R    BIC      r2,r2,#0x3f00
        0x0001aad0:    f50252f0    ...R    ADD      r2,r2,#0x1e00
        0x0001aad4:    6202        .b      STR      r2,[r0,#0x20]
        0x0001aad6:    f8d02118    ...!    LDR      r2,[r0,#0x118]
        0x0001aada:    f42252f8    "..R    BIC      r2,r2,#0x1f00
        0x0001aade:    f5026200    ...b    ADD      r2,r2,#0x800
        0x0001aae2:    f8c02118    ...!    STR      r2,[r0,#0x118]
        0x0001aae6:    72e1        .r      STRB     r1,[r4,#0xb]
        0x0001aae8:    f000bab8    ....    B.W      0x1b05c ; am_hal_mspi_control + 2516
        0x0001aaec:    6860        `h      LDR      r0,[r4,#4]
        0x0001aaee:    4efe        .N      LDR      r6,[pc,#1016] ; [0x1aee8] = 0x186a0
        0x0001aaf0:    ea4f3000    O..0    LSL      r0,r0,#12
        0x0001aaf4:    f1004080    ...@    ADD      r0,r0,#0x40000000
        0x0001aaf8:    f50020c0    ...     ADD      r0,r0,#0x60000
        0x0001aafc:    f44f0100    O...    MOV      r1,#0x800000
        0x0001ab00:    4635        5F      MOV      r5,r6
        0x0001ab02:    f8c012b4    ....    STR      r1,[r0,#0x2b4]
        0x0001ab06:    6860        `h      LDR      r0,[r4,#4]
        0x0001ab08:    ea4f3000    O..0    LSL      r0,r0,#12
        0x0001ab0c:    f1004080    ...@    ADD      r0,r0,#0x40000000
        0x0001ab10:    f50020c0    ...     ADD      r0,r0,#0x60000
        0x0001ab14:    f8d002a0    ....    LDR      r0,[r0,#0x2a0]
        0x0001ab18:    f0100f01    ....    TST      r0,#1
        0x0001ab1c:    d020         .      BEQ      0x1ab60 ; am_hal_mspi_control + 1240
        0x0001ab1e:    6860        `h      LDR      r0,[r4,#4]
        0x0001ab20:    ea4f3000    O..0    LSL      r0,r0,#12
        0x0001ab24:    f1004080    ...@    ADD      r0,r0,#0x40000000
        0x0001ab28:    f50020c0    ...     ADD      r0,r0,#0x60000
        0x0001ab2c:    f8d012ac    ....    LDR      r1,[r0,#0x2ac]
        0x0001ab30:    f0110f08    ....    TST      r1,#8
        0x0001ab34:    bf1c        ..      ITT      NE
        0x0001ab36:    f8d002b8    ....    LDRNE    r0,[r0,#0x2b8]
        0x0001ab3a:    f0100f80    ....    TSTNE    r0,#0x80
        0x0001ab3e:    d10f        ..      BNE      0x1ab60 ; am_hal_mspi_control + 1240
        0x0001ab40:    1e6d        m.      SUBS     r5,r5,#1
        0x0001ab42:    d31b        ..      BCC      0x1ab7c ; am_hal_mspi_control + 1268
        0x0001ab44:    2001        .       MOVS     r0,#1
        0x0001ab46:    f7fffaf7    ....    BL       am_hal_delay_us ; 0x1a138
        0x0001ab4a:    6860        `h      LDR      r0,[r4,#4]
        0x0001ab4c:    0300        ..      LSLS     r0,r0,#12
        0x0001ab4e:    f1004080    ...@    ADD      r0,r0,#0x40000000
        0x0001ab52:    f50020c0    ...     ADD      r0,r0,#0x60000
        0x0001ab56:    f8d002a0    ....    LDR      r0,[r0,#0x2a0]
        0x0001ab5a:    f0100f01    ....    TST      r0,#1
        0x0001ab5e:    d1de        ..      BNE      0x1ab1e ; am_hal_mspi_control + 1174
        0x0001ab60:    2001        .       MOVS     r0,#1
        0x0001ab62:    9000        ..      STR      r0,[sp,#0]
        0x0001ab64:    49e1        .I      LDR      r1,[pc,#900] ; [0x1aeec] = 0x40060104
        0x0001ab66:    6860        `h      LDR      r0,[r4,#4]
        0x0001ab68:    2300        .#      MOVS     r3,#0
        0x0001ab6a:    eb013100    ...1    ADD      r1,r1,r0,LSL #12
        0x0001ab6e:    2201        ."      MOVS     r2,#1
        0x0001ab70:    4630        0F      MOV      r0,r6
        0x0001ab72:    f7fffb23    ..#.    BL       am_hal_delay_us_status_check ; 0x1a1bc
        0x0001ab76:    4606        .F      MOV      r6,r0
        0x0001ab78:    f000ba70    ..p.    B.W      0x1b05c ; am_hal_mspi_control + 2516
        0x0001ab7c:    2604        .&      MOVS     r6,#4
        0x0001ab7e:    f000ba6d    ..m.    B.W      0x1b05c ; am_hal_mspi_control + 2516
        0x0001ab82:    2080        .       MOVS     r0,#0x80
        0x0001ab84:    e5c5        ..      B        0x1a712 ; am_hal_mspi_control + 138
        0x0001ab86:    2a00        .*      CMP      r2,#0
        0x0001ab88:    f000826a    ..j.    BEQ.W    0x1b060 ; am_hal_mspi_control + 2520
        0x0001ab8c:    69a0        .i      LDR      r0,[r4,#0x18]
        0x0001ab8e:    2800        .(      CMP      r0,#0
        0x0001ab90:    f0008191    ....    BEQ.W    0x1aeb6 ; am_hal_mspi_control + 2094
        0x0001ab94:    7810        .x      LDRB     r0,[r2,#0]
        0x0001ab96:    1c07        ..      ADDS     r7,r0,#0
        0x0001ab98:    bf18        ..      IT       NE
        0x0001ab9a:    2701        .'      MOVNE    r7,#1
        0x0001ab9c:    f894082c    ..,.    LDRB     r0,[r4,#0x82c]
        0x0001aba0:    42b8        .B      CMP      r0,r7
        0x0001aba2:    bf02        ..      ITTT     EQ
        0x0001aba4:    2000        .       MOVEQ    r0,#0
        0x0001aba6:    b003        ..      ADDEQ    sp,sp,#0xc
        0x0001aba8:    e8bd83f0    ....    POPEQ    {r4-r9,pc}
        0x0001abac:    b3f0        ..      CBZ      r0,0x1ac2c ; am_hal_mspi_control + 1444
        0x0001abae:    2802        .(      CMP      r0,#2
        0x0001abb0:    d14f        O.      BNE      0x1ac52 ; am_hal_mspi_control + 1482
        0x0001abb2:    6861        ah      LDR      r1,[r4,#4]
        0x0001abb4:    4ecc        .N      LDR      r6,[pc,#816] ; [0x1aee8] = 0x186a0
        0x0001abb6:    ea4f3101    O..1    LSL      r1,r1,#12
        0x0001abba:    f1014180    ...A    ADD      r1,r1,#0x40000000
        0x0001abbe:    f50121c0    ...!    ADD      r1,r1,#0x60000
        0x0001abc2:    f44f0000    O...    MOV      r0,#0x800000
        0x0001abc6:    4635        5F      MOV      r5,r6
        0x0001abc8:    f8c102b4    ....    STR      r0,[r1,#0x2b4]
        0x0001abcc:    6860        `h      LDR      r0,[r4,#4]
        0x0001abce:    ea4f3000    O..0    LSL      r0,r0,#12
        0x0001abd2:    f1004080    ...@    ADD      r0,r0,#0x40000000
        0x0001abd6:    f50020c0    ...     ADD      r0,r0,#0x60000
        0x0001abda:    f8d002a0    ....    LDR      r0,[r0,#0x2a0]
        0x0001abde:    e000        ..      B        0x1abe2 ; am_hal_mspi_control + 1370
        0x0001abe0:    e167        g.      B        0x1aeb2 ; am_hal_mspi_control + 2090
        0x0001abe2:    f0100f01    ....    TST      r0,#1
        0x0001abe6:    d020         .      BEQ      0x1ac2a ; am_hal_mspi_control + 1442
        0x0001abe8:    6860        `h      LDR      r0,[r4,#4]
        0x0001abea:    ea4f3000    O..0    LSL      r0,r0,#12
        0x0001abee:    f1004080    ...@    ADD      r0,r0,#0x40000000
        0x0001abf2:    f50020c0    ...     ADD      r0,r0,#0x60000
        0x0001abf6:    f8d012ac    ....    LDR      r1,[r0,#0x2ac]
        0x0001abfa:    f0110f08    ....    TST      r1,#8
        0x0001abfe:    bf1c        ..      ITT      NE
        0x0001ac00:    f8d002b8    ....    LDRNE    r0,[r0,#0x2b8]
        0x0001ac04:    f0100f80    ....    TSTNE    r0,#0x80
        0x0001ac08:    d10f        ..      BNE      0x1ac2a ; am_hal_mspi_control + 1442
        0x0001ac0a:    1e6d        m.      SUBS     r5,r5,#1
        0x0001ac0c:    d3b6        ..      BCC      0x1ab7c ; am_hal_mspi_control + 1268
        0x0001ac0e:    2001        .       MOVS     r0,#1
        0x0001ac10:    f7fffa92    ....    BL       am_hal_delay_us ; 0x1a138
        0x0001ac14:    6860        `h      LDR      r0,[r4,#4]
        0x0001ac16:    0300        ..      LSLS     r0,r0,#12
        0x0001ac18:    f1004080    ...@    ADD      r0,r0,#0x40000000
        0x0001ac1c:    f50020c0    ...     ADD      r0,r0,#0x60000
        0x0001ac20:    f8d002a0    ....    LDR      r0,[r0,#0x2a0]
        0x0001ac24:    f0100f01    ....    TST      r0,#1
        0x0001ac28:    d1de        ..      BNE      0x1abe8 ; am_hal_mspi_control + 1376
        0x0001ac2a:    e000        ..      B        0x1ac2e ; am_hal_mspi_control + 1446
        0x0001ac2c:    e00e        ..      B        0x1ac4c ; am_hal_mspi_control + 1476
        0x0001ac2e:    2001        .       MOVS     r0,#1
        0x0001ac30:    9000        ..      STR      r0,[sp,#0]
        0x0001ac32:    49ae        .I      LDR      r1,[pc,#696] ; [0x1aeec] = 0x40060104
        0x0001ac34:    6860        `h      LDR      r0,[r4,#4]
        0x0001ac36:    2300        .#      MOVS     r3,#0
        0x0001ac38:    eb013100    ...1    ADD      r1,r1,r0,LSL #12
        0x0001ac3c:    2201        ."      MOVS     r2,#1
        0x0001ac3e:    4630        0F      MOV      r0,r6
        0x0001ac40:    f7fffabc    ....    BL       am_hal_delay_us_status_check ; 0x1a1bc
        0x0001ac44:    0006        ..      MOVS     r6,r0
        0x0001ac46:    f0408209    @...    BNE.W    0x1b05c ; am_hal_mspi_control + 2516
        0x0001ac4a:    e002        ..      B        0x1ac52 ; am_hal_mspi_control + 1482
        0x0001ac4c:    6a20         j      LDR      r0,[r4,#0x20]
        0x0001ac4e:    2800        .(      CMP      r0,#0
        0x0001ac50:    d16d        m.      BNE      0x1ad2e ; am_hal_mspi_control + 1702
        0x0001ac52:    f8d40828    ..(.    LDR      r0,[r4,#0x828]
        0x0001ac56:    f7fff917    ....    BL       am_hal_cmdq_reset ; 0x19e88
        0x0001ac5a:    2000        .       MOVS     r0,#0
        0x0001ac5c:    61e0        .a      STR      r0,[r4,#0x1c]
        0x0001ac5e:    f8c40830    ..0.    STR      r0,[r4,#0x830]
        0x0001ac62:    6220         b      STR      r0,[r4,#0x20]
        0x0001ac64:    f884782c    ..,x    STRB     r7,[r4,#0x82c]
        0x0001ac68:    2101        .!      MOVS     r1,#1
        0x0001ac6a:    f884182d    ..-.    STRB     r1,[r4,#0x82d]
        0x0001ac6e:    f8c4085c    ..\.    STR      r0,[r4,#0x85c]
        0x0001ac72:    f000b9f3    ....    B.W      0x1b05c ; am_hal_mspi_control + 2516
        0x0001ac76:    f04f0800    O...    MOV      r8,#0
        0x0001ac7a:    0016        ..      MOVS     r6,r2
        0x0001ac7c:    4647        GF      MOV      r7,r8
        0x0001ac7e:    f00081ef    ....    BEQ.W    0x1b060 ; am_hal_mspi_control + 2520
        0x0001ac82:    7930        0y      LDRB     r0,[r6,#4]
        0x0001ac84:    f0100fe0    ....    TST      r0,#0xe0
        0x0001ac88:    f04081ea    @...    BNE.W    0x1b060 ; am_hal_mspi_control + 2520
        0x0001ac8c:    4998        .I      LDR      r1,[pc,#608] ; [0x1aef0] = 0xe0e0e0
        0x0001ac8e:    68b0        .h      LDR      r0,[r6,#8]
        0x0001ac90:    4208        .B      TST      r0,r1
        0x0001ac92:    f04081e5    @...    BNE.W    0x1b060 ; am_hal_mspi_control + 2520
        0x0001ac96:    f894082c    ..,.    LDRB     r0,[r4,#0x82c]
        0x0001ac9a:    2801        .(      CMP      r0,#1
        0x0001ac9c:    d147        G.      BNE      0x1ad2e ; am_hal_mspi_control + 1702
        0x0001ac9e:    f8d40838    ..8.    LDR      r0,[r4,#0x838]
        0x0001aca2:    b150        P.      CBZ      r0,0x1acba ; am_hal_mspi_control + 1586
        0x0001aca4:    2000        .       MOVS     r0,#0
        0x0001aca6:    f8c40838    ..8.    STR      r0,[r4,#0x838]
        0x0001acaa:    2020                MOVS     r0,#0x20
        0x0001acac:    0329        ).      LSLS     r1,r5,#12
        0x0001acae:    f1014180    ...A    ADD      r1,r1,#0x40000000
        0x0001acb2:    f50121c0    ...!    ADD      r1,r1,#0x60000
        0x0001acb6:    f8c102b4    ....    STR      r0,[r1,#0x2b4]
        0x0001acba:    7830        0x      LDRB     r0,[r6,#0]
        0x0001acbc:    b3b0        ..      CBZ      r0,0x1ad2c ; am_hal_mspi_control + 1700
        0x0001acbe:    f894082d    ..-.    LDRB     r0,[r4,#0x82d]
        0x0001acc2:    bb98        ..      CBNZ     r0,0x1ad2c ; am_hal_mspi_control + 1700
        0x0001acc4:    ab01        ..      ADD      r3,sp,#4
        0x0001acc6:    466a        jF      MOV      r2,sp
        0x0001acc8:    2101        .!      MOVS     r1,#1
        0x0001acca:    f8d40828    ..(.    LDR      r0,[r4,#0x828]
        0x0001acce:    f7fefec1    ....    BL       am_hal_cmdq_alloc_block ; 0x19a54
        0x0001acd2:    2800        .(      CMP      r0,#0
        0x0001acd4:    bf1c        ..      ITT      NE
        0x0001acd6:    b003        ..      ADDNE    sp,sp,#0xc
        0x0001acd8:    e8bd83f0    ....    POPNE    {r4-r9,pc}
        0x0001acdc:    4885        .H      LDR      r0,[pc,#532] ; [0x1aef4] = 0x1df7d
        0x0001acde:    9901        ..      LDR      r1,[sp,#4]
        0x0001ace0:    b2c9        ..      UXTB     r1,r1
        0x0001ace2:    eb040181    ....    ADD      r1,r4,r1,LSL #2
        0x0001ace6:    6288        .b      STR      r0,[r1,#0x28]
        0x0001ace8:    9901        ..      LDR      r1,[sp,#4]
        0x0001acea:    4883        .H      LDR      r0,[pc,#524] ; [0x1aef8] = 0x400602b4
        0x0001acec:    b2c9        ..      UXTB     r1,r1
        0x0001acee:    eb040181    ....    ADD      r1,r4,r1,LSL #2
        0x0001acf2:    f8c14428    ..(D    STR      r4,[r1,#0x428]
        0x0001acf6:    eb003105    ...1    ADD      r1,r0,r5,LSL #12
        0x0001acfa:    9800        ..      LDR      r0,[sp,#0]
        0x0001acfc:    6001        .`      STR      r1,[r0,#0]
        0x0001acfe:    2100        .!      MOVS     r1,#0
        0x0001ad00:    6041        A`      STR      r1,[r0,#4]
        0x0001ad02:    f7fdfb4f    ..O.    BL       am_hal_interrupt_master_disable ; 0x183a4
        0x0001ad06:    4680        .F      MOV      r8,r0
        0x0001ad08:    2101        .!      MOVS     r1,#1
        0x0001ad0a:    f8d40828    ..(.    LDR      r0,[r4,#0x828]
        0x0001ad0e:    f7fff84b    ..K.    BL       am_hal_cmdq_post_block ; 0x19da8
        0x0001ad12:    0007        ..      MOVS     r7,r0
        0x0001ad14:    d00c        ..      BEQ      0x1ad30 ; am_hal_mspi_control + 1704
        0x0001ad16:    4640        @F      MOV      r0,r8
        0x0001ad18:    f7fdfb48    ..H.    BL       am_hal_interrupt_master_set ; 0x183ac
        0x0001ad1c:    f8d40828    ..(.    LDR      r0,[r4,#0x828]
        0x0001ad20:    f7fff896    ....    BL       am_hal_cmdq_release_block ; 0x19e50
        0x0001ad24:    4638        8F      MOV      r0,r7
        0x0001ad26:    b003        ..      ADD      sp,sp,#0xc
        0x0001ad28:    e8bd83f0    ....    POP      {r4-r9,pc}
        0x0001ad2c:    e011        ..      B        0x1ad52 ; am_hal_mspi_control + 1738
        0x0001ad2e:    e0ac        ..      B        0x1ae8a ; am_hal_mspi_control + 2050
        0x0001ad30:    6a27        'j      LDR      r7,[r4,#0x20]
        0x0001ad32:    4640        @F      MOV      r0,r8
        0x0001ad34:    1c79        y.      ADDS     r1,r7,#1
        0x0001ad36:    6221        !b      STR      r1,[r4,#0x20]
        0x0001ad38:    f7fdfb38    ..8.    BL       am_hal_interrupt_master_set ; 0x183ac
        0x0001ad3c:    b92f        /.      CBNZ     r7,0x1ad4a ; am_hal_mspi_control + 1730
        0x0001ad3e:    f8d40828    ..(.    LDR      r0,[r4,#0x828]
        0x0001ad42:    f7feff0d    ....    BL       am_hal_cmdq_enable ; 0x19b60
        0x0001ad46:    2800        .(      CMP      r0,#0
        0x0001ad48:    d1ed        ..      BNE      0x1ad26 ; am_hal_mspi_control + 1694
        0x0001ad4a:    f04f0840    O.@.    MOV      r8,#0x40
        0x0001ad4e:    f44f0780    O...    MOV      r7,#0x400000
        0x0001ad52:    ab01        ..      ADD      r3,sp,#4
        0x0001ad54:    466a        jF      MOV      r2,sp
        0x0001ad56:    2103        .!      MOVS     r1,#3
        0x0001ad58:    f8d40828    ..(.    LDR      r0,[r4,#0x828]
        0x0001ad5c:    f7fefe7a    ..z.    BL       am_hal_cmdq_alloc_block ; 0x19a54
        0x0001ad60:    2800        .(      CMP      r0,#0
        0x0001ad62:    d1e0        ..      BNE      0x1ad26 ; am_hal_mspi_control + 1694
        0x0001ad64:    4965        eI      LDR      r1,[pc,#404] ; [0x1aefc] = 0x400602b8
        0x0001ad66:    9800        ..      LDR      r0,[sp,#0]
        0x0001ad68:    eb013105    ...1    ADD      r1,r1,r5,LSL #12
        0x0001ad6c:    6081        .`      STR      r1,[r0,#8]
        0x0001ad6e:    6001        .`      STR      r1,[r0,#0]
        0x0001ad70:    4961        aI      LDR      r1,[pc,#388] ; [0x1aef8] = 0x400602b4
        0x0001ad72:    eb013105    ...1    ADD      r1,r1,r5,LSL #12
        0x0001ad76:    6101        .a      STR      r1,[r0,#0x10]
        0x0001ad78:    6871        qh      LDR      r1,[r6,#4]
        0x0001ad7a:    f8d42838    ..8(    LDR      r2,[r4,#0x838]
        0x0001ad7e:    ea410108    A...    ORR      r1,r1,r8
        0x0001ad82:    2a01        .*      CMP      r2,#1
        0x0001ad84:    d019        ..      BEQ      0x1adba ; am_hal_mspi_control + 1842
        0x0001ad86:    2a02        .*      CMP      r2,#2
        0x0001ad88:    bf0c        ..      ITE      EQ
        0x0001ad8a:    f44f4180    O..A    MOVEQ    r1,#0x4000
        0x0001ad8e:    f4414181    A..A    ORRNE    r1,r1,#0x4080
        0x0001ad92:    6041        A`      STR      r1,[r0,#4]
        0x0001ad94:    f44f4180    O..A    MOV      r1,#0x4000
        0x0001ad98:    60c1        .`      STR      r1,[r0,#0xc]
        0x0001ad9a:    68b1        .h      LDR      r1,[r6,#8]
        0x0001ad9c:    4339        9C      ORRS     r1,r1,r7
        0x0001ad9e:    6141        Aa      STR      r1,[r0,#0x14]
        0x0001ada0:    f7fdfb00    ....    BL       am_hal_interrupt_master_disable ; 0x183a4
        0x0001ada4:    4680        .F      MOV      r8,r0
        0x0001ada6:    7830        0x      LDRB     r0,[r6,#0]
        0x0001ada8:    f04f0100    O...    MOV      r1,#0
        0x0001adac:    2800        .(      CMP      r0,#0
        0x0001adae:    f8d40828    ..(.    LDR      r0,[r4,#0x828]
        0x0001adb2:    d009        ..      BEQ      0x1adc8 ; am_hal_mspi_control + 1856
        0x0001adb4:    f7fff81e    ....    BL       am_hal_cmdq_post_loop_block ; 0x19df4
        0x0001adb8:    e008        ..      B        0x1adcc ; am_hal_mspi_control + 1860
        0x0001adba:    f24402a0    D...    MOV      r2,#0x40a0
        0x0001adbe:    4311        .C      ORRS     r1,r1,r2
        0x0001adc0:    2302        .#      MOVS     r3,#2
        0x0001adc2:    f8c43838    ..88    STR      r3,[r4,#0x838]
        0x0001adc6:    e7e4        ..      B        0x1ad92 ; am_hal_mspi_control + 1802
        0x0001adc8:    f7feffee    ....    BL       am_hal_cmdq_post_block ; 0x19da8
        0x0001adcc:    0005        ..      MOVS     r5,r0
        0x0001adce:    d007        ..      BEQ      0x1ade0 ; am_hal_mspi_control + 1880
        0x0001add0:    4640        @F      MOV      r0,r8
        0x0001add2:    f7fdfaeb    ....    BL       am_hal_interrupt_master_set ; 0x183ac
        0x0001add6:    f8d40828    ..(.    LDR      r0,[r4,#0x828]
        0x0001adda:    f7fff839    ..9.    BL       am_hal_cmdq_release_block ; 0x19e50
        0x0001adde:    e013        ..      B        0x1ae08 ; am_hal_mspi_control + 1920
        0x0001ade0:    6a27        'j      LDR      r7,[r4,#0x20]
        0x0001ade2:    1c79        y.      ADDS     r1,r7,#1
        0x0001ade4:    6221        !b      STR      r1,[r4,#0x20]
        0x0001ade6:    7830        0x      LDRB     r0,[r6,#0]
        0x0001ade8:    2800        .(      CMP      r0,#0
        0x0001adea:    bf14        ..      ITE      NE
        0x0001adec:    2102        .!      MOVNE    r1,#2
        0x0001adee:    2100        .!      MOVEQ    r1,#0
        0x0001adf0:    f884182c    ..,.    STRB     r1,[r4,#0x82c]
        0x0001adf4:    4640        @F      MOV      r0,r8
        0x0001adf6:    f7fdfad9    ....    BL       am_hal_interrupt_master_set ; 0x183ac
        0x0001adfa:    b92f        /.      CBNZ     r7,0x1ae08 ; am_hal_mspi_control + 1920
        0x0001adfc:    f8d40828    ..(.    LDR      r0,[r4,#0x828]
        0x0001ae00:    f7fefeae    ....    BL       am_hal_cmdq_enable ; 0x19b60
        0x0001ae04:    0005        ..      MOVS     r5,r0
        0x0001ae06:    d18e        ..      BNE      0x1ad26 ; am_hal_mspi_control + 1694
        0x0001ae08:    4628        (F      MOV      r0,r5
        0x0001ae0a:    e78c        ..      B        0x1ad26 ; am_hal_mspi_control + 1694
        0x0001ae0c:    2a00        .*      CMP      r2,#0
        0x0001ae0e:    d06a        j.      BEQ      0x1aee6 ; am_hal_mspi_control + 2142
        0x0001ae10:    f8d40854    ..T.    LDR      r0,[r4,#0x854]
        0x0001ae14:    bbc8        ..      CBNZ     r0,0x1ae8a ; am_hal_mspi_control + 2050
        0x0001ae16:    2000        .       MOVS     r0,#0
        0x0001ae18:    f8c40850    ..P.    STR      r0,[r4,#0x850]
        0x0001ae1c:    f8c40840    ..@.    STR      r0,[r4,#0x840]
        0x0001ae20:    2001        .       MOVS     r0,#1
        0x0001ae22:    f8c4084c    ..L.    STR      r0,[r4,#0x84c]
        0x0001ae26:    6810        .h      LDR      r0,[r2,#0]
        0x0001ae28:    f8c40854    ..T.    STR      r0,[r4,#0x854]
        0x0001ae2c:    4934        4I      LDR      r1,[pc,#208] ; [0x1af00] = 0xaaaaaaab
        0x0001ae2e:    6850        Ph      LDR      r0,[r2,#4]
        0x0001ae30:    fba11000    ....    UMULL    r1,r0,r1,r0
        0x0001ae34:    0900        ..      LSRS     r0,r0,#4
        0x0001ae36:    f8c40848    ..H.    STR      r0,[r4,#0x848]
        0x0001ae3a:    e10f        ..      B        0x1b05c ; am_hal_mspi_control + 2516
        0x0001ae3c:    0329        ).      LSLS     r1,r5,#12
        0x0001ae3e:    f1014180    ...A    ADD      r1,r1,#0x40000000
        0x0001ae42:    f50121c0    ...!    ADD      r1,r1,#0x60000
        0x0001ae46:    f44f1000    O...    MOV      r0,#0x200000
        0x0001ae4a:    f8c102b4    ....    STR      r0,[r1,#0x2b4]
        0x0001ae4e:    2001        .       MOVS     r0,#1
        0x0001ae50:    f8c40838    ..8.    STR      r0,[r4,#0x838]
        0x0001ae54:    2000        .       MOVS     r0,#0
        0x0001ae56:    f8c40844    ..D.    STR      r0,[r4,#0x844]
        0x0001ae5a:    e0ff        ..      B        0x1b05c ; am_hal_mspi_control + 2516
        0x0001ae5c:    2020                MOVS     r0,#0x20
        0x0001ae5e:    0329        ).      LSLS     r1,r5,#12
        0x0001ae60:    f1014180    ...A    ADD      r1,r1,#0x40000000
        0x0001ae64:    f50121c0    ...!    ADD      r1,r1,#0x60000
        0x0001ae68:    f8c102b4    ....    STR      r0,[r1,#0x2b4]
        0x0001ae6c:    2500        .%      MOVS     r5,#0
        0x0001ae6e:    f8c45838    ..8X    STR      r5,[r4,#0x838]
        0x0001ae72:    f8d41844    ..D.    LDR      r1,[r4,#0x844]
        0x0001ae76:    2900        .)      CMP      r1,#0
        0x0001ae78:    d17e        ~.      BNE      0x1af78 ; am_hal_mspi_control + 2288
        0x0001ae7a:    4620         F      MOV      r0,r4
        0x0001ae7c:    f003f8ee    ....    BL       sched_hiprio ; 0x1e05c
        0x0001ae80:    0006        ..      MOVS     r6,r0
        0x0001ae82:    bf08        ..      IT       EQ
        0x0001ae84:    f8c45844    ..DX    STREQ    r5,[r4,#0x844]
        0x0001ae88:    e0e8        ..      B        0x1b05c ; am_hal_mspi_control + 2516
        0x0001ae8a:    e014        ..      B        0x1aeb6 ; am_hal_mspi_control + 2094
        0x0001ae8c:    0017        ..      MOVS     r7,r2
        0x0001ae8e:    d02a        *.      BEQ      0x1aee6 ; am_hal_mspi_control + 2142
        0x0001ae90:    f8d4c828    ..(.    LDR      r12,[r4,#0x828]
        0x0001ae94:    f1bc0f00    ....    CMP      r12,#0
        0x0001ae98:    d00d        ..      BEQ      0x1aeb6 ; am_hal_mspi_control + 2094
        0x0001ae9a:    6a20         j      LDR      r0,[r4,#0x20]
        0x0001ae9c:    f5b07f80    ....    CMP      r0,#0x100
        0x0001aea0:    d007        ..      BEQ      0x1aeb2 ; am_hal_mspi_control + 2090
        0x0001aea2:    68f8        .h      LDR      r0,[r7,#0xc]
        0x0001aea4:    ab01        ..      ADD      r3,sp,#4
        0x0001aea6:    1cc1        ..      ADDS     r1,r0,#3
        0x0001aea8:    466a        jF      MOV      r2,sp
        0x0001aeaa:    4660        `F      MOV      r0,r12
        0x0001aeac:    f7fefdd2    ....    BL       am_hal_cmdq_alloc_block ; 0x19a54
        0x0001aeb0:    b118        ..      CBZ      r0,0x1aeba ; am_hal_mspi_control + 2098
        0x0001aeb2:    2005        .       MOVS     r0,#5
        0x0001aeb4:    e737        7.      B        0x1ad26 ; am_hal_mspi_control + 1694
        0x0001aeb6:    2007        .       MOVS     r0,#7
        0x0001aeb8:    e735        5.      B        0x1ad26 ; am_hal_mspi_control + 1694
        0x0001aeba:    4810        .H      LDR      r0,[pc,#64] ; [0x1aefc] = 0x400602b8
        0x0001aebc:    9900        ..      LDR      r1,[sp,#0]
        0x0001aebe:    eb003805    ...8    ADD      r8,r0,r5,LSL #12
        0x0001aec2:    f8c18000    ....    STR      r8,[r1,#0]
        0x0001aec6:    f8d42838    ..8(    LDR      r2,[r4,#0x838]
        0x0001aeca:    6838        8h      LDR      r0,[r7,#0]
        0x0001aecc:    2a01        .*      CMP      r2,#1
        0x0001aece:    d068        h.      BEQ      0x1afa2 ; am_hal_mspi_control + 2330
        0x0001aed0:    2a02        .*      CMP      r2,#2
        0x0001aed2:    bf0c        ..      ITE      EQ
        0x0001aed4:    f44f4080    O..@    MOVEQ    r0,#0x4000
        0x0001aed8:    f4404081    @..@    ORRNE    r0,r0,#0x4080
        0x0001aedc:    6048        H`      STR      r0,[r1,#4]
        0x0001aede:    f1010008    ....    ADD      r0,r1,#8
        0x0001aee2:    9000        ..      STR      r0,[sp,#0]
        0x0001aee4:    e00e        ..      B        0x1af04 ; am_hal_mspi_control + 2172
        0x0001aee6:    e0bb        ..      B        0x1b060 ; am_hal_mspi_control + 2520
    $d
        0x0001aee8:    000186a0    ....    DCD    100000
        0x0001aeec:    40060104    ...@    DCD    1074135300
        0x0001aef0:    00e0e0e0    ....    DCD    14737632
        0x0001aef4:    0001df7d    }...    DCD    122749
        0x0001aef8:    400602b4    ...@    DCD    1074135732
        0x0001aefc:    400602b8    ...@    DCD    1074135736
        0x0001af00:    aaaaaaab    ....    DCD    2863311531
    $t
        0x0001af04:    f8d7c00c    ....    LDR      r12,[r7,#0xc]
        0x0001af08:    f1bc0f00    ....    CMP      r12,#0
        0x0001af0c:    d02c        ,.      BEQ      0x1af68 ; am_hal_mspi_control + 2272
        0x0001af0e:    68b9        .h      LDR      r1,[r7,#8]
        0x0001af10:    f1a00208    ....    SUB      r2,r0,#8
        0x0001af14:    f1a10308    ....    SUB      r3,r1,#8
        0x0001af18:    1f00        ..      SUBS     r0,r0,#4
        0x0001af1a:    1f09        ..      SUBS     r1,r1,#4
        0x0001af1c:    f01c0f01    ....    TST      r12,#1
        0x0001af20:    d007        ..      BEQ      0x1af32 ; am_hal_mspi_control + 2218
        0x0001af22:    f853cf08    S...    LDR      r12,[r3,#8]!
        0x0001af26:    f842cf08    B...    STR      r12,[r2,#8]!
        0x0001af2a:    f851cf08    Q...    LDR      r12,[r1,#8]!
        0x0001af2e:    f840cf08    @...    STR      r12,[r0,#8]!
        0x0001af32:    f8d7c00c    ....    LDR      r12,[r7,#0xc]
        0x0001af36:    ea5f0c5c    _.\.    LSRS     r12,r12,#1
        0x0001af3a:    d010        ..      BEQ      0x1af5e ; am_hal_mspi_control + 2262
        0x0001af3c:    688e        .h      LDR      r6,[r1,#8]
        0x0001af3e:    f8d39008    ....    LDR      r9,[r3,#8]
        0x0001af42:    f8c29008    ....    STR      r9,[r2,#8]
        0x0001af46:    6086        .`      STR      r6,[r0,#8]
        0x0001af48:    f8516f10    Q..o    LDR      r6,[r1,#0x10]!
        0x0001af4c:    f8539f10    S...    LDR      r9,[r3,#0x10]!
        0x0001af50:    f8429f10    B...    STR      r9,[r2,#0x10]!
        0x0001af54:    f8406f10    @..o    STR      r6,[r0,#0x10]!
        0x0001af58:    f1bc0c01    ....    SUBS     r12,r12,#1
        0x0001af5c:    d1ee        ..      BNE      0x1af3c ; am_hal_mspi_control + 2228
        0x0001af5e:    68f8        .h      LDR      r0,[r7,#0xc]
        0x0001af60:    9900        ..      LDR      r1,[sp,#0]
        0x0001af62:    eb0100c0    ....    ADD      r0,r1,r0,LSL #3
        0x0001af66:    9000        ..      STR      r0,[sp,#0]
        0x0001af68:    69b9        .i      LDR      r1,[r7,#0x18]
        0x0001af6a:    2900        .)      CMP      r1,#0
        0x0001af6c:    bf18        ..      IT       NE
        0x0001af6e:    6008        .`      STRNE    r0,[r1,#0]
        0x0001af70:    f44f4180    O..A    MOV      r1,#0x4000
        0x0001af74:    9800        ..      LDR      r0,[sp,#0]
        0x0001af76:    e000        ..      B        0x1af7a ; am_hal_mspi_control + 2290
        0x0001af78:    e070        p.      B        0x1b05c ; am_hal_mspi_control + 2516
        0x0001af7a:    e8e08102    ....    STRD     r8,r1,[r0],#8
        0x0001af7e:    4939        9I      LDR      r1,[pc,#228] ; [0x1b064] = 0x400602b4
        0x0001af80:    9000        ..      STR      r0,[sp,#0]
        0x0001af82:    eb013105    ...1    ADD      r1,r1,r5,LSL #12
        0x0001af86:    6001        .`      STR      r1,[r0,#0]
        0x0001af88:    6879        yh      LDR      r1,[r7,#4]
        0x0001af8a:    6041        A`      STR      r1,[r0,#4]
        0x0001af8c:    693d        =i      LDR      r5,[r7,#0x10]
        0x0001af8e:    2d00        .-      CMP      r5,#0
        0x0001af90:    bf01        ..      ITTTT    EQ
        0x0001af92:    f8d40838    ..8.    LDREQ    r0,[r4,#0x838]
        0x0001af96:    2800        .(      CMPEQ    r0,#0
        0x0001af98:    f894082c    ..,.    LDRBEQ   r0,[r4,#0x82c]
        0x0001af9c:    2800        .(      CMPEQ    r0,#0
        0x0001af9e:    d111        ..      BNE      0x1afc4 ; am_hal_mspi_control + 2364
        0x0001afa0:    e008        ..      B        0x1afb4 ; am_hal_mspi_control + 2348
        0x0001afa2:    f24402a0    D...    MOV      r2,#0x40a0
        0x0001afa6:    ea400002    @...    ORR      r0,r0,r2
        0x0001afaa:    f04f0202    O...    MOV      r2,#2
        0x0001afae:    f8c42838    ..8(    STR      r2,[r4,#0x838]
        0x0001afb2:    e793        ..      B        0x1aedc ; am_hal_mspi_control + 2132
        0x0001afb4:    f8d4185c    ..\.    LDR      r1,[r4,#0x85c]
        0x0001afb8:    f8d40858    ..X.    LDR      r0,[r4,#0x858]
        0x0001afbc:    ebb10f50    ..P.    CMP      r1,r0,LSR #1
        0x0001afc0:    bf28        (.      IT       CS
        0x0001afc2:    4d29        )M      LDRCS    r5,[pc,#164] ; [0x1b068] = 0x1df7b
        0x0001afc4:    9801        ..      LDR      r0,[sp,#4]
        0x0001afc6:    b2c1        ..      UXTB     r1,r0
        0x0001afc8:    eb040081    ....    ADD      r0,r4,r1,LSL #2
        0x0001afcc:    6285        .b      STR      r5,[r0,#0x28]
        0x0001afce:    9801        ..      LDR      r0,[sp,#4]
        0x0001afd0:    697a        zi      LDR      r2,[r7,#0x14]
        0x0001afd2:    b2c1        ..      UXTB     r1,r0
        0x0001afd4:    eb040081    ....    ADD      r0,r4,r1,LSL #2
        0x0001afd8:    f8c02428    ..($    STR      r2,[r0,#0x428]
        0x0001afdc:    f7fdf9e2    ....    BL       am_hal_interrupt_master_disable ; 0x183a4
        0x0001afe0:    4681        .F      MOV      r9,r0
        0x0001afe2:    2d00        .-      CMP      r5,#0
        0x0001afe4:    bf14        ..      ITE      NE
        0x0001afe6:    2101        .!      MOVNE    r1,#1
        0x0001afe8:    2100        .!      MOVEQ    r1,#0
        0x0001afea:    f8d40828    ..(.    LDR      r0,[r4,#0x828]
        0x0001afee:    f7fefedb    ....    BL       am_hal_cmdq_post_block ; 0x19da8
        0x0001aff2:    0006        ..      MOVS     r6,r0
        0x0001aff4:    d007        ..      BEQ      0x1b006 ; am_hal_mspi_control + 2430
        0x0001aff6:    4648        HF      MOV      r0,r9
        0x0001aff8:    f7fdf9d8    ....    BL       am_hal_interrupt_master_set ; 0x183ac
        0x0001affc:    f8d40828    ..(.    LDR      r0,[r4,#0x828]
        0x0001b000:    f7feff26    ..&.    BL       am_hal_cmdq_release_block ; 0x19e50
        0x0001b004:    e02a        *.      B        0x1b05c ; am_hal_mspi_control + 2516
        0x0001b006:    f8d48020    .. .    LDR      r8,[r4,#0x20]
        0x0001b00a:    f1080001    ....    ADD      r0,r8,#1
        0x0001b00e:    6220         b      STR      r0,[r4,#0x20]
        0x0001b010:    f8d40830    ..0.    LDR      r0,[r4,#0x830]
        0x0001b014:    1c40        @.      ADDS     r0,r0,#1
        0x0001b016:    f8c40830    ..0.    STR      r0,[r4,#0x830]
        0x0001b01a:    6938        8i      LDR      r0,[r7,#0x10]
        0x0001b01c:    2800        .(      CMP      r0,#0
        0x0001b01e:    bf1c        ..      ITT      NE
        0x0001b020:    2000        .       MOVNE    r0,#0
        0x0001b022:    f884082d    ..-.    STRBNE   r0,[r4,#0x82d]
        0x0001b026:    d008        ..      BEQ      0x1b03a ; am_hal_mspi_control + 2482
        0x0001b028:    f8c4085c    ..\.    STR      r0,[r4,#0x85c]
        0x0001b02c:    4648        HF      MOV      r0,r9
        0x0001b02e:    f7fdf9bd    ....    BL       am_hal_interrupt_master_set ; 0x183ac
        0x0001b032:    f1b80f00    ....    CMP      r8,#0
        0x0001b036:    d111        ..      BNE      0x1b05c ; am_hal_mspi_control + 2516
        0x0001b038:    e009        ..      B        0x1b04e ; am_hal_mspi_control + 2502
        0x0001b03a:    2d00        .-      CMP      r5,#0
        0x0001b03c:    bf19        ..      ITTEE    NE
        0x0001b03e:    2100        .!      MOVNE    r1,#0
        0x0001b040:    f8c4185c    ..\.    STRNE    r1,[r4,#0x85c]
        0x0001b044:    f8d4085c    ..\.    LDREQ    r0,[r4,#0x85c]
        0x0001b048:    1c40        @.      ADDEQ    r0,r0,#1
        0x0001b04a:    d1ef        ..      BNE      0x1b02c ; am_hal_mspi_control + 2468
        0x0001b04c:    e7ec        ..      B        0x1b028 ; am_hal_mspi_control + 2464
        0x0001b04e:    f8d40828    ..(.    LDR      r0,[r4,#0x828]
        0x0001b052:    f7fefd85    ....    BL       am_hal_cmdq_enable ; 0x19b60
        0x0001b056:    0006        ..      MOVS     r6,r0
        0x0001b058:    f47fae65    ..e.    BNE      0x1ad26 ; am_hal_mspi_control + 1694
        0x0001b05c:    4630        0F      MOV      r0,r6
        0x0001b05e:    e662        b.      B        0x1ad26 ; am_hal_mspi_control + 1694
        0x0001b060:    2006        .       MOVS     r0,#6
        0x0001b062:    e660        `.      B        0x1ad26 ; am_hal_mspi_control + 1694
    $d
        0x0001b064:    400602b4    ...@    DCD    1074135732
        0x0001b068:    0001df7b    {...    DCD    122747
    $t
    i.am_hal_mspi_deinitialize
    am_hal_mspi_deinitialize
        0x0001b06c:    e92d41f0    -..A    PUSH     {r4-r8,lr}
        0x0001b070:    1e05        ..      SUBS     r5,r0,#0
        0x0001b072:    bf1c        ..      ITT      NE
        0x0001b074:    6801        .h      LDRNE    r1,[r0,#0]
        0x0001b076:    f0117f80    ....    TSTNE    r1,#0x1000000
        0x0001b07a:    d004        ..      BEQ      0x1b086 ; am_hal_mspi_deinitialize + 26
        0x0001b07c:    4b19        .K      LDR      r3,[pc,#100] ; [0x1b0e4] = 0xbebebe
        0x0001b07e:    f021427f    !..B    BIC      r2,r1,#0xff000000
        0x0001b082:    429a        .B      CMP      r2,r3
        0x0001b084:    d002        ..      BEQ      0x1b08c ; am_hal_mspi_deinitialize + 32
        0x0001b086:    2002        .       MOVS     r0,#2
        0x0001b088:    e8bd81f0    ....    POP      {r4-r8,pc}
        0x0001b08c:    f0117f00    ....    TST      r1,#0x2000000
        0x0001b090:    f04f0600    O...    MOV      r6,#0
        0x0001b094:    d01e        ..      BEQ      0x1b0d4 ; am_hal_mspi_deinitialize + 104
        0x0001b096:    69a8        .i      LDR      r0,[r5,#0x18]
        0x0001b098:    462c        ,F      MOV      r4,r5
        0x0001b09a:    b1b8        ..      CBZ      r0,0x1b0cc ; am_hal_mspi_deinitialize + 96
        0x0001b09c:    f8d40828    ..(.    LDR      r0,[r4,#0x828]
        0x0001b0a0:    f7fefd3e    ..>.    BL       am_hal_cmdq_disable ; 0x19b20
        0x0001b0a4:    b9b0        ..      CBNZ     r0,0x1b0d4 ; am_hal_mspi_deinitialize + 104
        0x0001b0a6:    6860        `h      LDR      r0,[r4,#4]
        0x0001b0a8:    f8df803c    ..<.    LDR      r8,[pc,#60] ; [0x1b0e8] = 0x10005808
        0x0001b0ac:    ebc01040    ..@.    RSB      r0,r0,r0,LSL #5
        0x0001b0b0:    eb0007c0    ....    ADD      r7,r0,r0,LSL #3
        0x0001b0b4:    eb0800c7    ....    ADD      r0,r8,r7,LSL #3
        0x0001b0b8:    f8d00828    ..(.    LDR      r0,[r0,#0x828]
        0x0001b0bc:    b130        0.      CBZ      r0,0x1b0cc ; am_hal_mspi_deinitialize + 96
        0x0001b0be:    2101        .!      MOVS     r1,#1
        0x0001b0c0:    f7feff14    ....    BL       am_hal_cmdq_term ; 0x19eec
        0x0001b0c4:    eb0800c7    ....    ADD      r0,r8,r7,LSL #3
        0x0001b0c8:    f8c06828    ..(h    STR      r6,[r0,#0x828]
        0x0001b0cc:    6820         h      LDR      r0,[r4,#0]
        0x0001b0ce:    f0207000     ..p    BIC      r0,r0,#0x2000000
        0x0001b0d2:    6020         `      STR      r0,[r4,#0]
        0x0001b0d4:    6828        (h      LDR      r0,[r5,#0]
        0x0001b0d6:    f0207080     ..p    BIC      r0,r0,#0x1000000
        0x0001b0da:    e9c50600    ....    STRD     r0,r6,[r5,#0]
        0x0001b0de:    2000        .       MOVS     r0,#0
        0x0001b0e0:    e8bd81f0    ....    POP      {r4-r8,pc}
    $d
        0x0001b0e4:    00bebebe    ....    DCD    12500670
        0x0001b0e8:    10005808    .X..    DCD    268457992
    $t
    i.am_hal_mspi_device_configure
    am_hal_mspi_device_configure
        0x0001b0ec:    b570        p.      PUSH     {r4-r6,lr}
        0x0001b0ee:    460c        .F      MOV      r4,r1
        0x0001b0f0:    6841        Ah      LDR      r1,[r0,#4]
        0x0001b0f2:    1e05        ..      SUBS     r5,r0,#0
        0x0001b0f4:    bf1c        ..      ITT      NE
        0x0001b0f6:    6828        (h      LDRNE    r0,[r5,#0]
        0x0001b0f8:    f0107f80    ....    TSTNE    r0,#0x1000000
        0x0001b0fc:    d004        ..      BEQ      0x1b108 ; am_hal_mspi_device_configure + 28
        0x0001b0fe:    4a89        .J      LDR      r2,[pc,#548] ; [0x1b324] = 0xbebebe
        0x0001b100:    f020407f     ..@    BIC      r0,r0,#0xff000000
        0x0001b104:    4290        .B      CMP      r0,r2
        0x0001b106:    d001        ..      BEQ      0x1b10c ; am_hal_mspi_device_configure + 32
        0x0001b108:    2002        .       MOVS     r0,#2
        0x0001b10a:    bd70        p.      POP      {r4-r6,pc}
        0x0001b10c:    7a28        (z      LDRB     r0,[r5,#8]
        0x0001b10e:    2800        .(      CMP      r0,#0
        0x0001b110:    bf04        ..      ITT      EQ
        0x0001b112:    2007        .       MOVEQ    r0,#7
        0x0001b114:    bd70        p.      POPEQ    {r4-r6,pc}
        0x0001b116:    7860        `x      LDRB     r0,[r4,#1]
        0x0001b118:    2230        0"      MOVS     r2,#0x30
        0x0001b11a:    ea021000    ....    AND      r0,r2,r0,LSL #4
        0x0001b11e:    78a2        .x      LDRB     r2,[r4,#2]
        0x0001b120:    2340        @#      MOVS     r3,#0x40
        0x0001b122:    ea031282    ....    AND      r2,r3,r2,LSL #6
        0x0001b126:    4310        .C      ORRS     r0,r0,r2
        0x0001b128:    7822        "x      LDRB     r2,[r4,#0]
        0x0001b12a:    f44f537c    O.|S    MOV      r3,#0x3f00
        0x0001b12e:    ea032202    ..."    AND      r2,r3,r2,LSL #8
        0x0001b132:    4310        .C      ORRS     r0,r0,r2
        0x0001b134:    7aa2        .z      LDRB     r2,[r4,#0xa]
        0x0001b136:    b16a        j.      CBZ      r2,0x1b154 ; am_hal_mspi_device_configure + 104
        0x0001b138:    2a01        .*      CMP      r2,#1
        0x0001b13a:    bf08        ..      IT       EQ
        0x0001b13c:    f4404000    @..@    ORREQ    r0,r0,#0x8000
        0x0001b140:    d008        ..      BEQ      0x1b154 ; am_hal_mspi_device_configure + 104
        0x0001b142:    2a02        .*      CMP      r2,#2
        0x0001b144:    bf08        ..      IT       EQ
        0x0001b146:    f4404080    @..@    ORREQ    r0,r0,#0x4000
        0x0001b14a:    d003        ..      BEQ      0x1b154 ; am_hal_mspi_device_configure + 104
        0x0001b14c:    2a03        .*      CMP      r2,#3
        0x0001b14e:    bf08        ..      IT       EQ
        0x0001b150:    f4404040    @.@@    ORREQ    r0,r0,#0xc000
        0x0001b154:    7ae2        .z      LDRB     r2,[r4,#0xb]
        0x0001b156:    f44f137c    O.|.    MOV      r3,#0x3f0000
        0x0001b15a:    ea034302    ...C    AND      r3,r3,r2,LSL #16
        0x0001b15e:    4318        .C      ORRS     r0,r0,r3
        0x0001b160:    2a08        .*      CMP      r2,#8
        0x0001b162:    d013        ..      BEQ      0x1b18c ; am_hal_mspi_device_configure + 160
        0x0001b164:    dc07        ..      BGT      0x1b176 ; am_hal_mspi_device_configure + 138
        0x0001b166:    2a07        .*      CMP      r2,#7
        0x0001b168:    d275        u.      BCS      0x1b256 ; am_hal_mspi_device_configure + 362
        0x0001b16a:    e8dff002    ....    TBB      [pc,r2]
    $d
        0x0001b16e:    0d83        ..      DCW    3459
        0x0001b170:    830f0f0d    ....    DCD    2198802189
        0x0001b174:    000f        ..      DCW    15
    $t
        0x0001b176:    2a0c        .*      CMP      r2,#0xc
        0x0001b178:    bf18        ..      IT       NE
        0x0001b17a:    2a10        .*      CMPNE    r2,#0x10
        0x0001b17c:    d006        ..      BEQ      0x1b18c ; am_hal_mspi_device_configure + 160
        0x0001b17e:    2a18        .*      CMP      r2,#0x18
        0x0001b180:    bf18        ..      IT       NE
        0x0001b182:    2a20         *      CMPNE    r2,#0x20
        0x0001b184:    d002        ..      BEQ      0x1b18c ; am_hal_mspi_device_configure + 160
        0x0001b186:    e075        u.      B        0x1b274 ; am_hal_mspi_device_configure + 392
        0x0001b188:    f04070a0    @..p    ORR      r0,r0,#0x1400000
        0x0001b18c:    7a62        bz      LDRB     r2,[r4,#9]
        0x0001b18e:    ea406082    @..`    ORR      r0,r0,r2,LSL #26
        0x0001b192:    ea4f3201    O..2    LSL      r2,r1,#12
        0x0001b196:    f1024280    ...B    ADD      r2,r2,#0x40000000
        0x0001b19a:    f50222c0    ..."    ADD      r2,r2,#0x60000
        0x0001b19e:    f8c20084    ....    STR      r0,[r2,#0x84]
        0x0001b1a2:    6b10        .k      LDR      r0,[r2,#0x30]
        0x0001b1a4:    f0200001     ...    BIC      r0,r0,#1
        0x0001b1a8:    6310        .c      STR      r0,[r2,#0x30]
        0x0001b1aa:    f8d20090    ....    LDR      r0,[r2,#0x90]
        0x0001b1ae:    4b5e        ^K      LDR      r3,[pc,#376] ; [0x1b328] = 0xfe000f03
        0x0001b1b0:    f04f0c10    O...    MOV      r12,#0x10
        0x0001b1b4:    ea000003    ....    AND      r0,r0,r3
        0x0001b1b8:    7b2b        +{      LDRB     r3,[r5,#0xc]
        0x0001b1ba:    f040000c    @...    ORR      r0,r0,#0xc
        0x0001b1be:    ea0c1303    ....    AND      r3,r12,r3,LSL #4
        0x0001b1c2:    ea430000    C...    ORR      r0,r3,r0
        0x0001b1c6:    7be3        .{      LDRB     r3,[r4,#0xf]
        0x0001b1c8:    b143        C.      CBZ      r3,0x1b1dc ; am_hal_mspi_device_configure + 240
        0x0001b1ca:    7823        #x      LDRB     r3,[r4,#0]
        0x0001b1cc:    f44f2cfc    O..,    MOV      r12,#0x7e000
        0x0001b1d0:    f0400020    @. .    ORR      r0,r0,#0x20
        0x0001b1d4:    ea0c3343    ..C3    AND      r3,r12,r3,LSL #13
        0x0001b1d8:    ea430000    C...    ORR      r0,r3,r0
        0x0001b1dc:    7b63        c{      LDRB     r3,[r4,#0xd]
        0x0001b1de:    2b00        .+      CMP      r3,#0
        0x0001b1e0:    bf18        ..      IT       NE
        0x0001b1e2:    f0400040    @.@.    ORRNE    r0,r0,#0x40
        0x0001b1e6:    7ba3        .{      LDRB     r3,[r4,#0xe]
        0x0001b1e8:    2b00        .+      CMP      r3,#0
        0x0001b1ea:    bf18        ..      IT       NE
        0x0001b1ec:    f0400080    @...    ORRNE    r0,r0,#0x80
        0x0001b1f0:    7b23        #{      LDRB     r3,[r4,#0xc]
        0x0001b1f2:    f44f5c80    O..\    MOV      r12,#0x1000
        0x0001b1f6:    ea0c3303    ...3    AND      r3,r12,r3,LSL #12
        0x0001b1fa:    4318        .C      ORRS     r0,r0,r3
        0x0001b1fc:    7a63        cz      LDRB     r3,[r4,#9]
        0x0001b1fe:    f04f7cfc    O..|    MOV      r12,#0x1f80000
        0x0001b202:    ea0c43c3    ...C    AND      r3,r12,r3,LSL #19
        0x0001b206:    4318        .C      ORRS     r0,r0,r3
        0x0001b208:    f8c20090    ....    STR      r0,[r2,#0x90]
        0x0001b20c:    88e0        ..      LDRH     r0,[r4,#6]
        0x0001b20e:    88a3        ..      LDRH     r3,[r4,#4]
        0x0001b210:    ea404003    @..@    ORR      r0,r0,r3,LSL #16
        0x0001b214:    f8c20094    ....    STR      r0,[r2,#0x94]
        0x0001b218:    8a60        `.      LDRH     r0,[r4,#0x12]
        0x0001b21a:    7d23        #}      LDRB     r3,[r4,#0x14]
        0x0001b21c:    f44f4c70    O.pL    MOV      r12,#0xf000
        0x0001b220:    f3c0000b    ....    UBFX     r0,r0,#0,#12
        0x0001b224:    ea0c3303    ...3    AND      r3,r12,r3,LSL #12
        0x0001b228:    4318        .C      ORRS     r0,r0,r3
        0x0001b22a:    f8c20098    ....    STR      r0,[r2,#0x98]
        0x0001b22e:    6b10        .k      LDR      r0,[r2,#0x30]
        0x0001b230:    f02000f0     ...    BIC      r0,r0,#0xf0
        0x0001b234:    3070        p0      ADDS     r0,r0,#0x70
        0x0001b236:    6310        .c      STR      r0,[r2,#0x30]
        0x0001b238:    2600        .&      MOVS     r6,#0
        0x0001b23a:    732e        .s      STRB     r6,[r5,#0xc]
        0x0001b23c:    69a8        .i      LDR      r0,[r5,#0x18]
        0x0001b23e:    2800        .(      CMP      r0,#0
        0x0001b240:    d062        b.      BEQ      0x1b308 ; am_hal_mspi_device_configure + 540
        0x0001b242:    2020                MOVS     r0,#0x20
        0x0001b244:    f8c20114    ....    STR      r0,[r2,#0x114]
        0x0001b248:    7ae0        .z      LDRB     r0,[r4,#0xb]
        0x0001b24a:    2808        .(      CMP      r0,#8
        0x0001b24c:    d02c        ,.      BEQ      0x1b2a8 ; am_hal_mspi_device_configure + 444
        0x0001b24e:    dc09        ..      BGT      0x1b264 ; am_hal_mspi_device_configure + 376
        0x0001b250:    2807        .(      CMP      r0,#7
        0x0001b252:    d20f        ..      BCS      0x1b274 ; am_hal_mspi_device_configure + 392
        0x0001b254:    e000        ..      B        0x1b258 ; am_hal_mspi_device_configure + 364
        0x0001b256:    e00d        ..      B        0x1b274 ; am_hal_mspi_device_configure + 392
        0x0001b258:    e8dff000    ....    TBB      [pc,r0]
    $d
        0x0001b25c:    260f0f0c    ...&    DCD    638521100
        0x0001b260:    00260c26    &.&.    DCD    2493478
    $t
        0x0001b264:    280c        .(      CMP      r0,#0xc
        0x0001b266:    bf18        ..      IT       NE
        0x0001b268:    2810        .(      CMPNE    r0,#0x10
        0x0001b26a:    d01d        ..      BEQ      0x1b2a8 ; am_hal_mspi_device_configure + 444
        0x0001b26c:    2818        .(      CMP      r0,#0x18
        0x0001b26e:    bf18        ..      IT       NE
        0x0001b270:    2820         (      CMPNE    r0,#0x20
        0x0001b272:    d019        ..      BEQ      0x1b2a8 ; am_hal_mspi_device_configure + 444
        0x0001b274:    f04f0005    O...    MOV      r0,#5
        0x0001b278:    bd70        p.      POP      {r4-r6,pc}
        0x0001b27a:    f8d20118    ....    LDR      r0,[r2,#0x118]
        0x0001b27e:    f020001f     ...    BIC      r0,r0,#0x1f
        0x0001b282:    f100000c    ....    ADD      r0,r0,#0xc
        0x0001b286:    f8c20118    ....    STR      r0,[r2,#0x118]
        0x0001b28a:    6a10        .j      LDR      r0,[r2,#0x20]
        0x0001b28c:    f420507c     .|P    BIC      r0,r0,#0x3f00
        0x0001b290:    f50050f0    ...P    ADD      r0,r0,#0x1e00
        0x0001b294:    6210        .b      STR      r0,[r2,#0x20]
        0x0001b296:    f8d20118    ....    LDR      r0,[r2,#0x118]
        0x0001b29a:    f42050f8     ..P    BIC      r0,r0,#0x1f00
        0x0001b29e:    f5006000    ...`    ADD      r0,r0,#0x800
        0x0001b2a2:    f8c20118    ....    STR      r0,[r2,#0x118]
        0x0001b2a6:    e015        ..      B        0x1b2d4 ; am_hal_mspi_device_configure + 488
        0x0001b2a8:    f8d20118    ....    LDR      r0,[r2,#0x118]
        0x0001b2ac:    f020001f     ...    BIC      r0,r0,#0x1f
        0x0001b2b0:    f1000008    ....    ADD      r0,r0,#8
        0x0001b2b4:    f8c20118    ....    STR      r0,[r2,#0x118]
        0x0001b2b8:    6a10        .j      LDR      r0,[r2,#0x20]
        0x0001b2ba:    f420507c     .|P    BIC      r0,r0,#0x3f00
        0x0001b2be:    f50050f0    ...P    ADD      r0,r0,#0x1e00
        0x0001b2c2:    6210        .b      STR      r0,[r2,#0x20]
        0x0001b2c4:    f8d20118    ....    LDR      r0,[r2,#0x118]
        0x0001b2c8:    f42050f8     ..P    BIC      r0,r0,#0x1f00
        0x0001b2cc:    f5006000    ...`    ADD      r0,r0,#0x800
        0x0001b2d0:    f8c20118    ....    STR      r0,[r2,#0x118]
        0x0001b2d4:    6968        hi      LDR      r0,[r5,#0x14]
        0x0001b2d6:    4a15        .J      LDR      r2,[pc,#84] ; [0x1b32c] = 0xba2e8ba3
        0x0001b2d8:    ea4f0080    O...    LSL      r0,r0,#2
        0x0001b2dc:    f1a00020    .. .    SUB      r0,r0,#0x20
        0x0001b2e0:    fba22000    ...     UMULL    r2,r0,r2,r0
        0x0001b2e4:    ebc11141    ..A.    RSB      r1,r1,r1,LSL #5
        0x0001b2e8:    eb0102c1    ....    ADD      r2,r1,r1,LSL #3
        0x0001b2ec:    4910        .I      LDR      r1,[pc,#64] ; [0x1b330] = 0x10005808
        0x0001b2ee:    ea4f1090    O...    LSR      r0,r0,#6
        0x0001b2f2:    eb0101c2    ....    ADD      r1,r1,r2,LSL #3
        0x0001b2f6:    f5b07f80    ....    CMP      r0,#0x100
        0x0001b2fa:    f8c10858    ..X.    STR      r0,[r1,#0x858]
        0x0001b2fe:    bf88        ..      IT       HI
        0x0001b300:    f44f7080    O..p    MOVHI    r0,#0x100
        0x0001b304:    f8c10858    ..X.    STR      r0,[r1,#0x858]
        0x0001b308:    7a20         z      LDRB     r0,[r4,#8]
        0x0001b30a:    72a8        .r      STRB     r0,[r5,#0xa]
        0x0001b30c:    4628        (F      MOV      r0,r5
        0x0001b30e:    f002fbff    ....    BL       mspi_device_configure ; 0x1db10
        0x0001b312:    732e        .s      STRB     r6,[r5,#0xc]
        0x0001b314:    7ae0        .z      LDRB     r0,[r4,#0xb]
        0x0001b316:    72e8        .r      STRB     r0,[r5,#0xb]
        0x0001b318:    f2427010    B..p    MOV      r0,#0x2710
        0x0001b31c:    6128        (a      STR      r0,[r5,#0x10]
        0x0001b31e:    2000        .       MOVS     r0,#0
        0x0001b320:    bd70        p.      POP      {r4-r6,pc}
    $d
        0x0001b322:    0000        ..      DCW    0
        0x0001b324:    00bebebe    ....    DCD    12500670
        0x0001b328:    fe000f03    ....    DCD    4261416707
        0x0001b32c:    ba2e8ba3    ....    DCD    3123612579
        0x0001b330:    10005808    .X..    DCD    268457992
    $t
    i.am_hal_mspi_disable
    am_hal_mspi_disable
        0x0001b334:    b570        p.      PUSH     {r4-r6,lr}
        0x0001b336:    0004        ..      MOVS     r4,r0
        0x0001b338:    bf1c        ..      ITT      NE
        0x0001b33a:    6820         h      LDRNE    r0,[r4,#0]
        0x0001b33c:    f0107f80    ....    TSTNE    r0,#0x1000000
        0x0001b340:    d004        ..      BEQ      0x1b34c ; am_hal_mspi_disable + 24
        0x0001b342:    4a15        .J      LDR      r2,[pc,#84] ; [0x1b398] = 0xbebebe
        0x0001b344:    f020417f     ..A    BIC      r1,r0,#0xff000000
        0x0001b348:    4291        .B      CMP      r1,r2
        0x0001b34a:    d001        ..      BEQ      0x1b350 ; am_hal_mspi_disable + 28
        0x0001b34c:    2002        .       MOVS     r0,#2
        0x0001b34e:    bd70        p.      POP      {r4-r6,pc}
        0x0001b350:    f0107000    ...p    ANDS     r0,r0,#0x2000000
        0x0001b354:    bf08        ..      IT       EQ
        0x0001b356:    bd70        p.      POPEQ    {r4-r6,pc}
        0x0001b358:    69a0        .i      LDR      r0,[r4,#0x18]
        0x0001b35a:    b1b8        ..      CBZ      r0,0x1b38c ; am_hal_mspi_disable + 88
        0x0001b35c:    f8d40828    ..(.    LDR      r0,[r4,#0x828]
        0x0001b360:    f7fefbde    ....    BL       am_hal_cmdq_disable ; 0x19b20
        0x0001b364:    2800        .(      CMP      r0,#0
        0x0001b366:    bf18        ..      IT       NE
        0x0001b368:    bd70        p.      POPNE    {r4-r6,pc}
        0x0001b36a:    6860        `h      LDR      r0,[r4,#4]
        0x0001b36c:    ebc01040    ..@.    RSB      r0,r0,r0,LSL #5
        0x0001b370:    eb0001c0    ....    ADD      r1,r0,r0,LSL #3
        0x0001b374:    4809        .H      LDR      r0,[pc,#36] ; [0x1b39c] = 0x10005808
        0x0001b376:    eb0005c1    ....    ADD      r5,r0,r1,LSL #3
        0x0001b37a:    f8d50828    ..(.    LDR      r0,[r5,#0x828]
        0x0001b37e:    b128        (.      CBZ      r0,0x1b38c ; am_hal_mspi_disable + 88
        0x0001b380:    2101        .!      MOVS     r1,#1
        0x0001b382:    f7fefdb3    ....    BL       am_hal_cmdq_term ; 0x19eec
        0x0001b386:    2000        .       MOVS     r0,#0
        0x0001b388:    f8c50828    ..(.    STR      r0,[r5,#0x828]
        0x0001b38c:    6820         h      LDR      r0,[r4,#0]
        0x0001b38e:    f0207000     ..p    BIC      r0,r0,#0x2000000
        0x0001b392:    6020         `      STR      r0,[r4,#0]
        0x0001b394:    2000        .       MOVS     r0,#0
        0x0001b396:    bd70        p.      POP      {r4-r6,pc}
    $d
        0x0001b398:    00bebebe    ....    DCD    12500670
        0x0001b39c:    10005808    .X..    DCD    268457992
    $t
    i.am_hal_mspi_enable
    am_hal_mspi_enable
        0x0001b3a0:    b570        p.      PUSH     {r4-r6,lr}
        0x0001b3a2:    b084        ..      SUB      sp,sp,#0x10
        0x0001b3a4:    1e04        ..      SUBS     r4,r0,#0
        0x0001b3a6:    bf1c        ..      ITT      NE
        0x0001b3a8:    6820         h      LDRNE    r0,[r4,#0]
        0x0001b3aa:    f0107f80    ....    TSTNE    r0,#0x1000000
        0x0001b3ae:    d004        ..      BEQ      0x1b3ba ; am_hal_mspi_enable + 26
        0x0001b3b0:    4925        %I      LDR      r1,[pc,#148] ; [0x1b448] = 0xbebebe
        0x0001b3b2:    f020407f     ..@    BIC      r0,r0,#0xff000000
        0x0001b3b6:    4288        .B      CMP      r0,r1
        0x0001b3b8:    d002        ..      BEQ      0x1b3c0 ; am_hal_mspi_enable + 32
        0x0001b3ba:    b004        ..      ADD      sp,sp,#0x10
        0x0001b3bc:    2002        .       MOVS     r0,#2
        0x0001b3be:    bd70        p.      POP      {r4-r6,pc}
        0x0001b3c0:    7a20         z      LDRB     r0,[r4,#8]
        0x0001b3c2:    2800        .(      CMP      r0,#0
        0x0001b3c4:    bf02        ..      ITTT     EQ
        0x0001b3c6:    2007        .       MOVEQ    r0,#7
        0x0001b3c8:    b004        ..      ADDEQ    sp,sp,#0x10
        0x0001b3ca:    bd70        p.      POPEQ    {r4-r6,pc}
        0x0001b3cc:    69a0        .i      LDR      r0,[r4,#0x18]
        0x0001b3ce:    b3a0        ..      CBZ      r0,0x1b43a ; am_hal_mspi_enable + 154
        0x0001b3d0:    2500        .%      MOVS     r5,#0
        0x0001b3d2:    61e5        .a      STR      r5,[r4,#0x1c]
        0x0001b3d4:    6225        %b      STR      r5,[r4,#0x20]
        0x0001b3d6:    e9d41205    ....    LDRD     r1,r2,[r4,#0x14]
        0x0001b3da:    6860        `h      LDR      r0,[r4,#4]
        0x0001b3dc:    0849        I.      LSRS     r1,r1,#1
        0x0001b3de:    e9cd1200    ....    STRD     r1,r2,[sp,#0]
        0x0001b3e2:    ebc01140    ..@.    RSB      r1,r0,r0,LSL #5
        0x0001b3e6:    4a19        .J      LDR      r2,[pc,#100] ; [0x1b44c] = 0x10005808
        0x0001b3e8:    eb0101c1    ....    ADD      r1,r1,r1,LSL #3
        0x0001b3ec:    eb0201c1    ....    ADD      r1,r2,r1,LSL #3
        0x0001b3f0:    2601        .&      MOVS     r6,#1
        0x0001b3f2:    f6010228    ..(.    ADD      r2,r1,#0x828
        0x0001b3f6:    3008        .0      ADDS     r0,r0,#8
        0x0001b3f8:    f88d6008    ...`    STRB     r6,[sp,#8]
        0x0001b3fc:    b2c0        ..      UXTB     r0,r0
        0x0001b3fe:    4669        iF      MOV      r1,sp
        0x0001b400:    f7fefc5a    ..Z.    BL       am_hal_cmdq_init ; 0x19cb8
        0x0001b404:    6861        ah      LDR      r1,[r4,#4]
        0x0001b406:    4812        .H      LDR      r0,[pc,#72] ; [0x1b450] = 0x400080
        0x0001b408:    0309        ..      LSLS     r1,r1,#12
        0x0001b40a:    f1014180    ...A    ADD      r1,r1,#0x40000000
        0x0001b40e:    f50121c0    ...!    ADD      r1,r1,#0x60000
        0x0001b412:    f8c102b4    ....    STR      r0,[r1,#0x2b4]
        0x0001b416:    f8c45854    ..TX    STR      r5,[r4,#0x854]
        0x0001b41a:    f884583c    ..<X    STRB     r5,[r4,#0x83c]
        0x0001b41e:    f8c45844    ..DX    STR      r5,[r4,#0x844]
        0x0001b422:    f8c45838    ..8X    STR      r5,[r4,#0x838]
        0x0001b426:    f8c45840    ..@X    STR      r5,[r4,#0x840]
        0x0001b42a:    f884582c    ..,X    STRB     r5,[r4,#0x82c]
        0x0001b42e:    f8c45830    ..0X    STR      r5,[r4,#0x830]
        0x0001b432:    f884682d    ..-h    STRB     r6,[r4,#0x82d]
        0x0001b436:    f8c4585c    ..\X    STR      r5,[r4,#0x85c]
        0x0001b43a:    6820         h      LDR      r0,[r4,#0]
        0x0001b43c:    f0407000    @..p    ORR      r0,r0,#0x2000000
        0x0001b440:    6020         `      STR      r0,[r4,#0]
        0x0001b442:    b004        ..      ADD      sp,sp,#0x10
        0x0001b444:    2000        .       MOVS     r0,#0
        0x0001b446:    bd70        p.      POP      {r4-r6,pc}
    $d
        0x0001b448:    00bebebe    ....    DCD    12500670
        0x0001b44c:    10005808    .X..    DCD    268457992
        0x0001b450:    00400080    ..@.    DCD    4194432
    $t
    i.am_hal_mspi_initialize
    am_hal_mspi_initialize
        0x0001b454:    2803        .(      CMP      r0,#3
        0x0001b456:    bf24        $.      ITT      CS
        0x0001b458:    2005        .       MOVCS    r0,#5
        0x0001b45a:    4770        pG      BXCS     lr
        0x0001b45c:    2900        .)      CMP      r1,#0
        0x0001b45e:    bf04        ..      ITT      EQ
        0x0001b460:    2006        .       MOVEQ    r0,#6
        0x0001b462:    4770        pG      BXEQ     lr
        0x0001b464:    b410        ..      PUSH     {r4}
        0x0001b466:    ebc01240    ..@.    RSB      r2,r0,r0,LSL #5
        0x0001b46a:    eb0203c2    ....    ADD      r3,r2,r2,LSL #3
        0x0001b46e:    4a0c        .J      LDR      r2,[pc,#48] ; [0x1b4a0] = 0x10005808
        0x0001b470:    f852c033    R.3.    LDR      r12,[r2,r3,LSL #3]
        0x0001b474:    f01c7f80    ....    TST      r12,#0x1000000
        0x0001b478:    bf1e        ..      ITTT     NE
        0x0001b47a:    2007        .       MOVNE    r0,#7
        0x0001b47c:    bc10        ..      POPNE    {r4}
        0x0001b47e:    4770        pG      BXNE     lr
        0x0001b480:    f04c7c80    L..|    ORR      r12,r12,#0x1000000
        0x0001b484:    4c07        .L      LDR      r4,[pc,#28] ; [0x1b4a4] = 0xbebebe
        0x0001b486:    f3640c17    d...    BFI      r12,r4,#0,#24
        0x0001b48a:    f842c033    B.3.    STR      r12,[r2,r3,LSL #3]
        0x0001b48e:    eb0202c3    ....    ADD      r2,r2,r3,LSL #3
        0x0001b492:    6050        P`      STR      r0,[r2,#4]
        0x0001b494:    2000        .       MOVS     r0,#0
        0x0001b496:    72d0        .r      STRB     r0,[r2,#0xb]
        0x0001b498:    6190        .a      STR      r0,[r2,#0x18]
        0x0001b49a:    600a        .`      STR      r2,[r1,#0]
        0x0001b49c:    bc10        ..      POP      {r4}
        0x0001b49e:    4770        pG      BX       lr
    $d
        0x0001b4a0:    10005808    .X..    DCD    268457992
        0x0001b4a4:    00bebebe    ....    DCD    12500670
    $t
    i.am_hal_mspi_interrupt_clear
    am_hal_mspi_interrupt_clear
        0x0001b4a8:    2800        .(      CMP      r0,#0
        0x0001b4aa:    bf1c        ..      ITT      NE
        0x0001b4ac:    6802        .h      LDRNE    r2,[r0,#0]
        0x0001b4ae:    f0127f80    ....    TSTNE    r2,#0x1000000
        0x0001b4b2:    d004        ..      BEQ      0x1b4be ; am_hal_mspi_interrupt_clear + 22
        0x0001b4b4:    4b08        .K      LDR      r3,[pc,#32] ; [0x1b4d8] = 0xbebebe
        0x0001b4b6:    f022427f    "..B    BIC      r2,r2,#0xff000000
        0x0001b4ba:    429a        .B      CMP      r2,r3
        0x0001b4bc:    d001        ..      BEQ      0x1b4c2 ; am_hal_mspi_interrupt_clear + 26
        0x0001b4be:    2002        .       MOVS     r0,#2
        0x0001b4c0:    4770        pG      BX       lr
        0x0001b4c2:    6840        @h      LDR      r0,[r0,#4]
        0x0001b4c4:    0300        ..      LSLS     r0,r0,#12
        0x0001b4c6:    f1004080    ...@    ADD      r0,r0,#0x40000000
        0x0001b4ca:    f50020c0    ...     ADD      r0,r0,#0x60000
        0x0001b4ce:    f8c01208    ....    STR      r1,[r0,#0x208]
        0x0001b4d2:    2000        .       MOVS     r0,#0
        0x0001b4d4:    4770        pG      BX       lr
    $d
        0x0001b4d6:    0000        ..      DCW    0
        0x0001b4d8:    00bebebe    ....    DCD    12500670
    $t
    i.am_hal_mspi_interrupt_disable
    am_hal_mspi_interrupt_disable
        0x0001b4dc:    2800        .(      CMP      r0,#0
        0x0001b4de:    bf1c        ..      ITT      NE
        0x0001b4e0:    6802        .h      LDRNE    r2,[r0,#0]
        0x0001b4e2:    f0127f80    ....    TSTNE    r2,#0x1000000
        0x0001b4e6:    d004        ..      BEQ      0x1b4f2 ; am_hal_mspi_interrupt_disable + 22
        0x0001b4e8:    4b0a        .K      LDR      r3,[pc,#40] ; [0x1b514] = 0xbebebe
        0x0001b4ea:    f022427f    "..B    BIC      r2,r2,#0xff000000
        0x0001b4ee:    429a        .B      CMP      r2,r3
        0x0001b4f0:    d001        ..      BEQ      0x1b4f6 ; am_hal_mspi_interrupt_disable + 26
        0x0001b4f2:    2002        .       MOVS     r0,#2
        0x0001b4f4:    4770        pG      BX       lr
        0x0001b4f6:    6840        @h      LDR      r0,[r0,#4]
        0x0001b4f8:    0300        ..      LSLS     r0,r0,#12
        0x0001b4fa:    f1004080    ...@    ADD      r0,r0,#0x40000000
        0x0001b4fe:    f50020c0    ...     ADD      r0,r0,#0x60000
        0x0001b502:    f8d02200    ..."    LDR      r2,[r0,#0x200]
        0x0001b506:    ea220101    "...    BIC      r1,r2,r1
        0x0001b50a:    f8c01200    ....    STR      r1,[r0,#0x200]
        0x0001b50e:    2000        .       MOVS     r0,#0
        0x0001b510:    4770        pG      BX       lr
    $d
        0x0001b512:    0000        ..      DCW    0
        0x0001b514:    00bebebe    ....    DCD    12500670
    $t
    i.am_hal_mspi_interrupt_enable
    am_hal_mspi_interrupt_enable
        0x0001b518:    2800        .(      CMP      r0,#0
        0x0001b51a:    bf1c        ..      ITT      NE
        0x0001b51c:    6802        .h      LDRNE    r2,[r0,#0]
        0x0001b51e:    f0127f80    ....    TSTNE    r2,#0x1000000
        0x0001b522:    d004        ..      BEQ      0x1b52e ; am_hal_mspi_interrupt_enable + 22
        0x0001b524:    4b09        .K      LDR      r3,[pc,#36] ; [0x1b54c] = 0xbebebe
        0x0001b526:    f022427f    "..B    BIC      r2,r2,#0xff000000
        0x0001b52a:    429a        .B      CMP      r2,r3
        0x0001b52c:    d001        ..      BEQ      0x1b532 ; am_hal_mspi_interrupt_enable + 26
        0x0001b52e:    2002        .       MOVS     r0,#2
        0x0001b530:    4770        pG      BX       lr
        0x0001b532:    6840        @h      LDR      r0,[r0,#4]
        0x0001b534:    0300        ..      LSLS     r0,r0,#12
        0x0001b536:    f1004080    ...@    ADD      r0,r0,#0x40000000
        0x0001b53a:    f50020c0    ...     ADD      r0,r0,#0x60000
        0x0001b53e:    f8d02200    ..."    LDR      r2,[r0,#0x200]
        0x0001b542:    4311        .C      ORRS     r1,r1,r2
        0x0001b544:    f8c01200    ....    STR      r1,[r0,#0x200]
        0x0001b548:    2000        .       MOVS     r0,#0
        0x0001b54a:    4770        pG      BX       lr
    $d
        0x0001b54c:    00bebebe    ....    DCD    12500670
    $t
    i.am_hal_mspi_interrupt_service
    am_hal_mspi_interrupt_service
        0x0001b550:    e92d43f0    -..C    PUSH     {r4-r9,lr}
        0x0001b554:    b085        ..      SUB      sp,sp,#0x14
        0x0001b556:    4688        .F      MOV      r8,r1
        0x0001b558:    1e04        ..      SUBS     r4,r0,#0
        0x0001b55a:    bf1c        ..      ITT      NE
        0x0001b55c:    6820         h      LDRNE    r0,[r4,#0]
        0x0001b55e:    f0107f80    ....    TSTNE    r0,#0x1000000
        0x0001b562:    d004        ..      BEQ      0x1b56e ; am_hal_mspi_interrupt_service + 30
        0x0001b564:    49a1        .I      LDR      r1,[pc,#644] ; [0x1b7ec] = 0xbebebe
        0x0001b566:    f020407f     ..@    BIC      r0,r0,#0xff000000
        0x0001b56a:    4288        .B      CMP      r0,r1
        0x0001b56c:    d003        ..      BEQ      0x1b576 ; am_hal_mspi_interrupt_service + 38
        0x0001b56e:    b005        ..      ADD      sp,sp,#0x14
        0x0001b570:    2002        .       MOVS     r0,#2
        0x0001b572:    e8bd83f0    ....    POP      {r4-r9,pc}
        0x0001b576:    f894083c    ..<.    LDRB     r0,[r4,#0x83c]
        0x0001b57a:    6865        eh      LDR      r5,[r4,#4]
        0x0001b57c:    2600        .&      MOVS     r6,#0
        0x0001b57e:    2800        .(      CMP      r0,#0
        0x0001b580:    d074        t.      BEQ      0x1b66c ; am_hal_mspi_interrupt_service + 284
        0x0001b582:    6a60        `j      LDR      r0,[r4,#0x24]
        0x0001b584:    ea400208    @...    ORR      r2,r0,r8
        0x0001b588:    f4125fc6    ..._    TST      r2,#0x18c0
        0x0001b58c:    6262        bb      STR      r2,[r4,#0x24]
        0x0001b58e:    f0008128    ..(.    BEQ.W    0x1b7e2 ; am_hal_mspi_interrupt_service + 658
        0x0001b592:    0328        (.      LSLS     r0,r5,#12
        0x0001b594:    f1004080    ...@    ADD      r0,r0,#0x40000000
        0x0001b598:    f50020c0    ...     ADD      r0,r0,#0x60000
        0x0001b59c:    f8d01104    ....    LDR      r1,[r0,#0x104]
        0x0001b5a0:    f0110f01    ....    TST      r1,#1
        0x0001b5a4:    d1fa        ..      BNE      0x1b59c ; am_hal_mspi_interrupt_service + 76
        0x0001b5a6:    0328        (.      LSLS     r0,r5,#12
        0x0001b5a8:    f1004580    ...E    ADD      r5,r0,#0x40000000
        0x0001b5ac:    f50525c0    ...%    ADD      r5,r5,#0x60000
        0x0001b5b0:    f8d50204    ....    LDR      r0,[r5,#0x204]
        0x0001b5b4:    4310        .C      ORRS     r0,r0,r2
        0x0001b5b6:    6260        `b      STR      r0,[r4,#0x24]
        0x0001b5b8:    f04f30ff    O..0    MOV      r0,#0xffffffff
        0x0001b5bc:    f8c50208    ....    STR      r0,[r5,#0x208]
        0x0001b5c0:    8ca0        ..      LDRH     r0,[r4,#0x24]
        0x0001b5c2:    f4105fc4    ..._    TST      r0,#0x1880
        0x0001b5c6:    bf08        ..      IT       EQ
        0x0001b5c8:    2100        .!      MOVEQ    r1,#0
        0x0001b5ca:    d00e        ..      BEQ      0x1b5ea ; am_hal_mspi_interrupt_service + 154
        0x0001b5cc:    f8d50100    ....    LDR      r0,[r5,#0x100]
        0x0001b5d0:    2101        .!      MOVS     r1,#1
        0x0001b5d2:    f0200003     ...    BIC      r0,r0,#3
        0x0001b5d6:    f8c50100    ....    STR      r0,[r5,#0x100]
        0x0001b5da:    6b28        (k      LDR      r0,[r5,#0x30]
        0x0001b5dc:    f0204080     ..@    BIC      r0,r0,#0x40000000
        0x0001b5e0:    6328        (c      STR      r0,[r5,#0x30]
        0x0001b5e2:    6b28        (k      LDR      r0,[r5,#0x30]
        0x0001b5e4:    f0404080    @..@    ORR      r0,r0,#0x40000000
        0x0001b5e8:    6328        (c      STR      r0,[r5,#0x30]
        0x0001b5ea:    f8d40850    ..P.    LDR      r0,[r4,#0x850]
        0x0001b5ee:    1c40        @.      ADDS     r0,r0,#1
        0x0001b5f0:    f8c40850    ..P.    STR      r0,[r4,#0x850]
        0x0001b5f4:    f8d42840    ..@(    LDR      r2,[r4,#0x840]
        0x0001b5f8:    1e52        R.      SUBS     r2,r2,#1
        0x0001b5fa:    f8c42840    ..@(    STR      r2,[r4,#0x840]
        0x0001b5fe:    f8d42848    ..H(    LDR      r2,[r4,#0x848]
        0x0001b602:    fbb0f3f2    ....    UDIV     r3,r0,r2
        0x0001b606:    fb020013    ....    MLS      r0,r2,r3,r0
        0x0001b60a:    f8d42854    ..T(    LDR      r2,[r4,#0x854]
        0x0001b60e:    eb000040    ..@.    ADD      r0,r0,r0,LSL #1
        0x0001b612:    eb0207c0    ....    ADD      r7,r2,r0,LSL #3
        0x0001b616:    693a        :i      LDR      r2,[r7,#0x10]
        0x0001b618:    b112        ..      CBZ      r2,0x1b620 ; am_hal_mspi_interrupt_service + 208
        0x0001b61a:    6978        xi      LDR      r0,[r7,#0x14]
        0x0001b61c:    4790        .G      BLX      r2
        0x0001b61e:    613e        >a      STR      r6,[r7,#0x10]
        0x0001b620:    f8d40840    ..@.    LDR      r0,[r4,#0x840]
        0x0001b624:    b318        ..      CBZ      r0,0x1b66e ; am_hal_mspi_interrupt_service + 286
        0x0001b626:    6266        fb      STR      r6,[r4,#0x24]
        0x0001b628:    f8d41850    ..P.    LDR      r1,[r4,#0x850]
        0x0001b62c:    f8d42848    ..H(    LDR      r2,[r4,#0x848]
        0x0001b630:    1c49        I.      ADDS     r1,r1,#1
        0x0001b632:    fbb1f3f2    ....    UDIV     r3,r1,r2
        0x0001b636:    6860        `h      LDR      r0,[r4,#4]
        0x0001b638:    fb021113    ....    MLS      r1,r2,r3,r1
        0x0001b63c:    0300        ..      LSLS     r0,r0,#12
        0x0001b63e:    f1004080    ...@    ADD      r0,r0,#0x40000000
        0x0001b642:    f8d42854    ..T(    LDR      r2,[r4,#0x854]
        0x0001b646:    f50020c0    ...     ADD      r0,r0,#0x60000
        0x0001b64a:    eb010141    ..A.    ADD      r1,r1,r1,LSL #1
        0x0001b64e:    eb0201c1    ....    ADD      r1,r2,r1,LSL #3
        0x0001b652:    f8c06100    ...a    STR      r6,[r0,#0x100]
        0x0001b656:    680a        .h      LDR      r2,[r1,#0]
        0x0001b658:    f8c02108    ...!    STR      r2,[r0,#0x108]
        0x0001b65c:    684a        Jh      LDR      r2,[r1,#4]
        0x0001b65e:    f8c0210c    ...!    STR      r2,[r0,#0x10c]
        0x0001b662:    688a        .h      LDR      r2,[r1,#8]
        0x0001b664:    f8c02110    ...!    STR      r2,[r0,#0x110]
        0x0001b668:    68c9        .h      LDR      r1,[r1,#0xc]
        0x0001b66a:    e0b8        ..      B        0x1b7de ; am_hal_mspi_interrupt_service + 654
        0x0001b66c:    e00d        ..      B        0x1b68a ; am_hal_mspi_interrupt_service + 314
        0x0001b66e:    f884683c    ..<h    STRB     r6,[r4,#0x83c]
        0x0001b672:    f8c56100    ...a    STR      r6,[r5,#0x100]
        0x0001b676:    f8d50200    ....    LDR      r0,[r5,#0x200]
        0x0001b67a:    f0200040     .@.    BIC      r0,r0,#0x40
        0x0001b67e:    f8c50200    ....    STR      r0,[r5,#0x200]
        0x0001b682:    2080        .       MOVS     r0,#0x80
        0x0001b684:    f8c502b4    ....    STR      r0,[r5,#0x2b4]
        0x0001b688:    e0ab        ..      B        0x1b7e2 ; am_hal_mspi_interrupt_service + 658
        0x0001b68a:    6a20         j      LDR      r0,[r4,#0x20]
        0x0001b68c:    2800        .(      CMP      r0,#0
        0x0001b68e:    d07d        }.      BEQ      0x1b78c ; am_hal_mspi_interrupt_service + 572
        0x0001b690:    ebc51045    ..E.    RSB      r0,r5,r5,LSL #5
        0x0001b694:    4956        VI      LDR      r1,[pc,#344] ; [0x1b7f0] = 0x10005808
        0x0001b696:    eb0000c0    ....    ADD      r0,r0,r0,LSL #3
        0x0001b69a:    eb0107c0    ....    ADD      r7,r1,r0,LSL #3
        0x0001b69e:    6a60        `j      LDR      r0,[r4,#0x24]
        0x0001b6a0:    ea400008    @...    ORR      r0,r0,r8
        0x0001b6a4:    6260        `b      STR      r0,[r4,#0x24]
        0x0001b6a6:    f8d70828    ..(.    LDR      r0,[r7,#0x828]
        0x0001b6aa:    f6070728    ..(.    ADD      r7,r7,#0x828
        0x0001b6ae:    2800        .(      CMP      r0,#0
        0x0001b6b0:    d06c        l.      BEQ      0x1b78c ; am_hal_mspi_interrupt_service + 572
        0x0001b6b2:    4669        iF      MOV      r1,sp
        0x0001b6b4:    f7fefaae    ....    BL       am_hal_cmdq_get_status ; 0x19c14
        0x0001b6b8:    2800        .(      CMP      r0,#0
        0x0001b6ba:    bf08        ..      IT       EQ
        0x0001b6bc:    f8846834    ..4h    STRBEQ   r6,[r4,#0x834]
        0x0001b6c0:    d01c        ..      BEQ      0x1b6fc ; am_hal_mspi_interrupt_service + 428
        0x0001b6c2:    e081        ..      B        0x1b7c8 ; am_hal_mspi_interrupt_service + 632
        0x0001b6c4:    1c40        @.      ADDS     r0,r0,#1
        0x0001b6c6:    61e0        .a      STR      r0,[r4,#0x1c]
        0x0001b6c8:    6a21        !j      LDR      r1,[r4,#0x20]
        0x0001b6ca:    b2c0        ..      UXTB     r0,r0
        0x0001b6cc:    1e49        I.      SUBS     r1,r1,#1
        0x0001b6ce:    eb040980    ....    ADD      r9,r4,r0,LSL #2
        0x0001b6d2:    6221        !b      STR      r1,[r4,#0x20]
        0x0001b6d4:    f8d92028    ..(     LDR      r2,[r9,#0x28]
        0x0001b6d8:    b182        ..      CBZ      r2,0x1b6fc ; am_hal_mspi_interrupt_service + 428
        0x0001b6da:    f8940024    ..$.    LDRB     r0,[r4,#0x24]
        0x0001b6de:    f0100f20    .. .    TST      r0,#0x20
        0x0001b6e2:    f8d90428    ..(.    LDR      r0,[r9,#0x428]
        0x0001b6e6:    bf0c        ..      ITE      EQ
        0x0001b6e8:    2100        .!      MOVEQ    r1,#0
        0x0001b6ea:    f04f6100    O..a    MOVNE    r1,#0x8000000
        0x0001b6ee:    4790        .G      BLX      r2
        0x0001b6f0:    f894082c    ..,.    LDRB     r0,[r4,#0x82c]
        0x0001b6f4:    2802        .(      CMP      r0,#2
        0x0001b6f6:    bf18        ..      IT       NE
        0x0001b6f8:    f8c96028    ..(`    STRNE    r6,[r9,#0x28]
        0x0001b6fc:    f8940834    ..4.    LDRB     r0,[r4,#0x834]
        0x0001b700:    b918        ..      CBNZ     r0,0x1b70a ; am_hal_mspi_interrupt_service + 442
        0x0001b702:    69e0        .i      LDR      r0,[r4,#0x1c]
        0x0001b704:    9900        ..      LDR      r1,[sp,#0]
        0x0001b706:    4288        .B      CMP      r0,r1
        0x0001b708:    d1dc        ..      BNE      0x1b6c4 ; am_hal_mspi_interrupt_service + 372
        0x0001b70a:    f8940834    ..4.    LDRB     r0,[r4,#0x834]
        0x0001b70e:    2800        .(      CMP      r0,#0
        0x0001b710:    d15a        Z.      BNE      0x1b7c8 ; am_hal_mspi_interrupt_service + 632
        0x0001b712:    f4185fc4    ..._    TST      r8,#0x1880
        0x0001b716:    bf04        ..      ITT      EQ
        0x0001b718:    f89d000e    ....    LDRBEQ   r0,[sp,#0xe]
        0x0001b71c:    2800        .(      CMPEQ    r0,#0
        0x0001b71e:    d048        H.      BEQ      0x1b7b2 ; am_hal_mspi_interrupt_service + 610
        0x0001b720:    69e0        .i      LDR      r0,[r4,#0x1c]
        0x0001b722:    f1000001    ....    ADD      r0,r0,#1
        0x0001b726:    61e0        .a      STR      r0,[r4,#0x1c]
        0x0001b728:    6a21        !j      LDR      r1,[r4,#0x20]
        0x0001b72a:    b2c0        ..      UXTB     r0,r0
        0x0001b72c:    f1a10101    ....    SUB      r1,r1,#1
        0x0001b730:    eb040880    ....    ADD      r8,r4,r0,LSL #2
        0x0001b734:    6221        !b      STR      r1,[r4,#0x20]
        0x0001b736:    f8d82028    ..(     LDR      r2,[r8,#0x28]
        0x0001b73a:    b152        R.      CBZ      r2,0x1b752 ; am_hal_mspi_interrupt_service + 514
        0x0001b73c:    f04f0101    O...    MOV      r1,#1
        0x0001b740:    f8d80428    ..(.    LDR      r0,[r8,#0x428]
        0x0001b744:    4790        .G      BLX      r2
        0x0001b746:    f894082c    ..,.    LDRB     r0,[r4,#0x82c]
        0x0001b74a:    2802        .(      CMP      r0,#2
        0x0001b74c:    bf18        ..      IT       NE
        0x0001b74e:    f8c86028    ..(`    STRNE    r6,[r8,#0x28]
        0x0001b752:    f8d40828    ..(.    LDR      r0,[r4,#0x828]
        0x0001b756:    f7fef9e3    ....    BL       am_hal_cmdq_disable ; 0x19b20
        0x0001b75a:    2800        .(      CMP      r0,#0
        0x0001b75c:    bf1c        ..      ITT      NE
        0x0001b75e:    b005        ..      ADDNE    sp,sp,#0x14
        0x0001b760:    e8bd83f0    ....    POPNE    {r4-r9,pc}
        0x0001b764:    0328        (.      LSLS     r0,r5,#12
        0x0001b766:    f1004080    ...@    ADD      r0,r0,#0x40000000
        0x0001b76a:    f50020c0    ...     ADD      r0,r0,#0x60000
        0x0001b76e:    f8d01100    ....    LDR      r1,[r0,#0x100]
        0x0001b772:    f0210103    !...    BIC      r1,r1,#3
        0x0001b776:    f8c01100    ....    STR      r1,[r0,#0x100]
        0x0001b77a:    6b01        .k      LDR      r1,[r0,#0x30]
        0x0001b77c:    f0214180    !..A    BIC      r1,r1,#0x40000000
        0x0001b780:    6301        .c      STR      r1,[r0,#0x30]
        0x0001b782:    6b01        .k      LDR      r1,[r0,#0x30]
        0x0001b784:    f0414180    A..A    ORR      r1,r1,#0x40000000
        0x0001b788:    6301        .c      STR      r1,[r0,#0x30]
        0x0001b78a:    e000        ..      B        0x1b78e ; am_hal_mspi_interrupt_service + 574
        0x0001b78c:    e029        ).      B        0x1b7e2 ; am_hal_mspi_interrupt_service + 658
        0x0001b78e:    f8d012ac    ....    LDR      r1,[r0,#0x2ac]
        0x0001b792:    f8c012ac    ....    STR      r1,[r0,#0x2ac]
        0x0001b796:    6838        8h      LDR      r0,[r7,#0]
        0x0001b798:    f7fefa02    ....    BL       am_hal_cmdq_error_resume ; 0x19ba0
        0x0001b79c:    6a20         j      LDR      r0,[r4,#0x20]
        0x0001b79e:    b150        P.      CBZ      r0,0x1b7b6 ; am_hal_mspi_interrupt_service + 614
        0x0001b7a0:    f8d40828    ..(.    LDR      r0,[r4,#0x828]
        0x0001b7a4:    f7fef9dc    ....    BL       am_hal_cmdq_enable ; 0x19b60
        0x0001b7a8:    2800        .(      CMP      r0,#0
        0x0001b7aa:    bf1c        ..      ITT      NE
        0x0001b7ac:    b005        ..      ADDNE    sp,sp,#0x14
        0x0001b7ae:    e8bd83f0    ....    POPNE    {r4-r9,pc}
        0x0001b7b2:    6a20         j      LDR      r0,[r4,#0x20]
        0x0001b7b4:    b9a8        ..      CBNZ     r0,0x1b7e2 ; am_hal_mspi_interrupt_service + 658
        0x0001b7b6:    f8d40828    ..(.    LDR      r0,[r4,#0x828]
        0x0001b7ba:    f7fef9b1    ....    BL       am_hal_cmdq_disable ; 0x19b20
        0x0001b7be:    2800        .(      CMP      r0,#0
        0x0001b7c0:    bf1c        ..      ITT      NE
        0x0001b7c2:    b005        ..      ADDNE    sp,sp,#0x14
        0x0001b7c4:    e8bd83f0    ....    POPNE    {r4-r9,pc}
        0x0001b7c8:    6a20         j      LDR      r0,[r4,#0x20]
        0x0001b7ca:    b950        P.      CBNZ     r0,0x1b7e2 ; am_hal_mspi_interrupt_service + 658
        0x0001b7cc:    0328        (.      LSLS     r0,r5,#12
        0x0001b7ce:    f1004080    ...@    ADD      r0,r0,#0x40000000
        0x0001b7d2:    f50020c0    ...     ADD      r0,r0,#0x60000
        0x0001b7d6:    f8d01100    ....    LDR      r1,[r0,#0x100]
        0x0001b7da:    f0210103    !...    BIC      r1,r1,#3
        0x0001b7de:    f8c01100    ....    STR      r1,[r0,#0x100]
        0x0001b7e2:    b005        ..      ADD      sp,sp,#0x14
        0x0001b7e4:    2000        .       MOVS     r0,#0
        0x0001b7e6:    e8bd83f0    ....    POP      {r4-r9,pc}
    $d
        0x0001b7ea:    0000        ..      DCW    0
        0x0001b7ec:    00bebebe    ....    DCD    12500670
        0x0001b7f0:    10005808    .X..    DCD    268457992
    $t
    i.am_hal_mspi_interrupt_status_get
    am_hal_mspi_interrupt_status_get
        0x0001b7f4:    2800        .(      CMP      r0,#0
        0x0001b7f6:    bf1c        ..      ITT      NE
        0x0001b7f8:    6803        .h      LDRNE    r3,[r0,#0]
        0x0001b7fa:    f0137f80    ....    TSTNE    r3,#0x1000000
        0x0001b7fe:    d005        ..      BEQ      0x1b80c ; am_hal_mspi_interrupt_status_get + 24
        0x0001b800:    f8dfc034    ..4.    LDR      r12,[pc,#52] ; [0x1b838] = 0xbebebe
        0x0001b804:    f023437f    #..C    BIC      r3,r3,#0xff000000
        0x0001b808:    4563        cE      CMP      r3,r12
        0x0001b80a:    d001        ..      BEQ      0x1b810 ; am_hal_mspi_interrupt_status_get + 28
        0x0001b80c:    2002        .       MOVS     r0,#2
        0x0001b80e:    4770        pG      BX       lr
        0x0001b810:    6840        @h      LDR      r0,[r0,#4]
        0x0001b812:    2a00        .*      CMP      r2,#0
        0x0001b814:    ea4f3000    O..0    LSL      r0,r0,#12
        0x0001b818:    f1004080    ...@    ADD      r0,r0,#0x40000000
        0x0001b81c:    f50020c0    ...     ADD      r0,r0,#0x60000
        0x0001b820:    bf1d        ..      ITTTE    NE
        0x0001b822:    f8d02204    ..."    LDRNE    r2,[r0,#0x204]
        0x0001b826:    f8d00200    ....    LDRNE    r0,[r0,#0x200]
        0x0001b82a:    4010        .@      ANDNE    r0,r0,r2
        0x0001b82c:    f8d00204    ....    LDREQ    r0,[r0,#0x204]
        0x0001b830:    6008        .`      STR      r0,[r1,#0]
        0x0001b832:    2000        .       MOVS     r0,#0
        0x0001b834:    4770        pG      BX       lr
    $d
        0x0001b836:    0000        ..      DCW    0
        0x0001b838:    00bebebe    ....    DCD    12500670
    $t
    i.am_hal_mspi_nonblocking_transfer
    am_hal_mspi_nonblocking_transfer
        0x0001b83c:    e92d4ff0    -..O    PUSH     {r4-r11,lr}
        0x0001b840:    b083        ..      SUB      sp,sp,#0xc
        0x0001b842:    4698        .F      MOV      r8,r3
        0x0001b844:    f8ddb030    ..0.    LDR      r11,[sp,#0x30]
        0x0001b848:    0004        ..      MOVS     r4,r0
        0x0001b84a:    bf1c        ..      ITT      NE
        0x0001b84c:    6820         h      LDRNE    r0,[r4,#0]
        0x0001b84e:    f0107f80    ....    TSTNE    r0,#0x1000000
        0x0001b852:    d004        ..      BEQ      0x1b85e ; am_hal_mspi_nonblocking_transfer + 34
        0x0001b854:    4b55        UK      LDR      r3,[pc,#340] ; [0x1b9ac] = 0xbebebe
        0x0001b856:    f020407f     ..@    BIC      r0,r0,#0xff000000
        0x0001b85a:    4298        .B      CMP      r0,r3
        0x0001b85c:    d003        ..      BEQ      0x1b866 ; am_hal_mspi_nonblocking_transfer + 42
        0x0001b85e:    b003        ..      ADD      sp,sp,#0xc
        0x0001b860:    2002        .       MOVS     r0,#2
        0x0001b862:    e8bd8ff0    ....    POP      {r4-r11,pc}
        0x0001b866:    69a0        .i      LDR      r0,[r4,#0x18]
        0x0001b868:    2800        .(      CMP      r0,#0
        0x0001b86a:    bf19        ..      ITTEE    NE
        0x0001b86c:    f894082c    ..,.    LDRBNE   r0,[r4,#0x82c]
        0x0001b870:    2802        .(      CMPNE    r0,#2
        0x0001b872:    2007        .       MOVEQ    r0,#7
        0x0001b874:    b003        ..      ADDEQ    sp,sp,#0xc
        0x0001b876:    bf08        ..      IT       EQ
        0x0001b878:    e8bd8ff0    ....    POPEQ    {r4-r11,pc}
        0x0001b87c:    6a20         j      LDR      r0,[r4,#0x20]
        0x0001b87e:    2800        .(      CMP      r0,#0
        0x0001b880:    bf07        ..      ITTEE    EQ
        0x0001b882:    f8d40840    ..@.    LDREQ    r0,[r4,#0x840]
        0x0001b886:    2800        .(      CMPEQ    r0,#0
        0x0001b888:    2003        .       MOVNE    r0,#3
        0x0001b88a:    b003        ..      ADDNE    sp,sp,#0xc
        0x0001b88c:    bf18        ..      IT       NE
        0x0001b88e:    e8bd8ff0    ....    POPNE    {r4-r11,pc}
        0x0001b892:    f04f0000    O...    MOV      r0,#0
        0x0001b896:    6260        `b      STR      r0,[r4,#0x24]
        0x0001b898:    ea5f0608    _...    MOVS     r6,r8
        0x0001b89c:    bf01        ..      ITTTT    EQ
        0x0001b89e:    f8d40838    ..8.    LDREQ    r0,[r4,#0x838]
        0x0001b8a2:    2800        .(      CMPEQ    r0,#0
        0x0001b8a4:    f894082c    ..,.    LDRBEQ   r0,[r4,#0x82c]
        0x0001b8a8:    2800        .(      CMPEQ    r0,#0
        0x0001b8aa:    d107        ..      BNE      0x1b8bc ; am_hal_mspi_nonblocking_transfer + 128
        0x0001b8ac:    f8d4385c    ..\8    LDR      r3,[r4,#0x85c]
        0x0001b8b0:    f8d40858    ..X.    LDR      r0,[r4,#0x858]
        0x0001b8b4:    ebb30f50    ..P.    CMP      r3,r0,LSR #1
        0x0001b8b8:    bf28        (.      IT       CS
        0x0001b8ba:    4e3d        =N      LDRCS    r6,[pc,#244] ; [0x1b9b0] = 0x1df7b
        0x0001b8bc:    4625        %F      MOV      r5,r4
        0x0001b8be:    460f        .F      MOV      r7,r1
        0x0001b8c0:    ea5f0902    _...    MOVS     r9,r2
        0x0001b8c4:    f04f0001    O...    MOV      r0,#1
        0x0001b8c8:    f6040a28    ..(.    ADD      r10,r4,#0x828
        0x0001b8cc:    bf08        ..      IT       EQ
        0x0001b8ce:    2018        .       MOVEQ    r0,#0x18
        0x0001b8d0:    d003        ..      BEQ      0x1b8da ; am_hal_mspi_nonblocking_transfer + 158
        0x0001b8d2:    f1b90f01    ....    CMP      r9,#1
        0x0001b8d6:    bf08        ..      IT       EQ
        0x0001b8d8:    2050        P       MOVEQ    r0,#0x50
        0x0001b8da:    08c1        ..      LSRS     r1,r0,#3
        0x0001b8dc:    466b        kF      MOV      r3,sp
        0x0001b8de:    aa01        ..      ADD      r2,sp,#4
        0x0001b8e0:    f8da0000    ....    LDR      r0,[r10,#0]
        0x0001b8e4:    f7fef8b6    ....    BL       am_hal_cmdq_alloc_block ; 0x19a54
        0x0001b8e8:    2800        .(      CMP      r0,#0
        0x0001b8ea:    bf1c        ..      ITT      NE
        0x0001b8ec:    b003        ..      ADDNE    sp,sp,#0xc
        0x0001b8ee:    e8bd8ff0    ....    POPNE    {r4-r11,pc}
        0x0001b8f2:    463b        ;F      MOV      r3,r7
        0x0001b8f4:    4649        IF      MOV      r1,r9
        0x0001b8f6:    4628        (F      MOV      r0,r5
        0x0001b8f8:    9a01        ..      LDR      r2,[sp,#4]
        0x0001b8fa:    f001fb37    ..7.    BL       build_dma_cmdlist ; 0x1cf6c
        0x0001b8fe:    0007        ..      MOVS     r7,r0
        0x0001b900:    d007        ..      BEQ      0x1b912 ; am_hal_mspi_nonblocking_transfer + 214
        0x0001b902:    f8da0000    ....    LDR      r0,[r10,#0]
        0x0001b906:    f7fefaa3    ....    BL       am_hal_cmdq_release_block ; 0x19e50
        0x0001b90a:    b003        ..      ADD      sp,sp,#0xc
        0x0001b90c:    4638        8F      MOV      r0,r7
        0x0001b90e:    e8bd8ff0    ....    POP      {r4-r11,pc}
        0x0001b912:    9900        ..      LDR      r1,[sp,#0]
        0x0001b914:    b2c9        ..      UXTB     r1,r1
        0x0001b916:    eb050181    ....    ADD      r1,r5,r1,LSL #2
        0x0001b91a:    628e        .b      STR      r6,[r1,#0x28]
        0x0001b91c:    9800        ..      LDR      r0,[sp,#0]
        0x0001b91e:    b2c0        ..      UXTB     r0,r0
        0x0001b920:    eb050080    ....    ADD      r0,r5,r0,LSL #2
        0x0001b924:    f8c0b428    ..(.    STR      r11,[r0,#0x428]
        0x0001b928:    f7fcfd3c    ..<.    BL       am_hal_interrupt_master_disable ; 0x183a4
        0x0001b92c:    4681        .F      MOV      r9,r0
        0x0001b92e:    2e00        ..      CMP      r6,#0
        0x0001b930:    bf14        ..      ITE      NE
        0x0001b932:    2101        .!      MOVNE    r1,#1
        0x0001b934:    2100        .!      MOVEQ    r1,#0
        0x0001b936:    f8d40828    ..(.    LDR      r0,[r4,#0x828]
        0x0001b93a:    f7fefa35    ..5.    BL       am_hal_cmdq_post_block ; 0x19da8
        0x0001b93e:    0005        ..      MOVS     r5,r0
        0x0001b940:    d007        ..      BEQ      0x1b952 ; am_hal_mspi_nonblocking_transfer + 278
        0x0001b942:    4648        HF      MOV      r0,r9
        0x0001b944:    f7fcfd32    ..2.    BL       am_hal_interrupt_master_set ; 0x183ac
        0x0001b948:    f8d40828    ..(.    LDR      r0,[r4,#0x828]
        0x0001b94c:    f7fefa80    ....    BL       am_hal_cmdq_release_block ; 0x19e50
        0x0001b950:    e028        (.      B        0x1b9a4 ; am_hal_mspi_nonblocking_transfer + 360
        0x0001b952:    6a27        'j      LDR      r7,[r4,#0x20]
        0x0001b954:    1c79        y.      ADDS     r1,r7,#1
        0x0001b956:    6221        !b      STR      r1,[r4,#0x20]
        0x0001b958:    f8d40830    ..0.    LDR      r0,[r4,#0x830]
        0x0001b95c:    1c41        A.      ADDS     r1,r0,#1
        0x0001b95e:    f8c41830    ..0.    STR      r1,[r4,#0x830]
        0x0001b962:    f1b80f00    ....    CMP      r8,#0
        0x0001b966:    bf1c        ..      ITT      NE
        0x0001b968:    2000        .       MOVNE    r0,#0
        0x0001b96a:    f884082d    ..-.    STRBNE   r0,[r4,#0x82d]
        0x0001b96e:    d006        ..      BEQ      0x1b97e ; am_hal_mspi_nonblocking_transfer + 322
        0x0001b970:    f8c4085c    ..\.    STR      r0,[r4,#0x85c]
        0x0001b974:    4648        HF      MOV      r0,r9
        0x0001b976:    f7fcfd19    ....    BL       am_hal_interrupt_master_set ; 0x183ac
        0x0001b97a:    b99f        ..      CBNZ     r7,0x1b9a4 ; am_hal_mspi_nonblocking_transfer + 360
        0x0001b97c:    e009        ..      B        0x1b992 ; am_hal_mspi_nonblocking_transfer + 342
        0x0001b97e:    2e00        ..      CMP      r6,#0
        0x0001b980:    bf11        ..      ITEEE    NE
        0x0001b982:    2000        .       MOVNE    r0,#0
        0x0001b984:    f8d4085c    ..\.    LDREQ    r0,[r4,#0x85c]
        0x0001b988:    1c41        A.      ADDEQ    r1,r0,#1
        0x0001b98a:    f8c4185c    ..\.    STREQ    r1,[r4,#0x85c]
        0x0001b98e:    d1ef        ..      BNE      0x1b970 ; am_hal_mspi_nonblocking_transfer + 308
        0x0001b990:    e7f0        ..      B        0x1b974 ; am_hal_mspi_nonblocking_transfer + 312
        0x0001b992:    f8d40828    ..(.    LDR      r0,[r4,#0x828]
        0x0001b996:    f7fef8e3    ....    BL       am_hal_cmdq_enable ; 0x19b60
        0x0001b99a:    0005        ..      MOVS     r5,r0
        0x0001b99c:    bf1c        ..      ITT      NE
        0x0001b99e:    b003        ..      ADDNE    sp,sp,#0xc
        0x0001b9a0:    e8bd8ff0    ....    POPNE    {r4-r11,pc}
        0x0001b9a4:    4628        (F      MOV      r0,r5
        0x0001b9a6:    b003        ..      ADD      sp,sp,#0xc
        0x0001b9a8:    e8bd8ff0    ....    POP      {r4-r11,pc}
    $d
        0x0001b9ac:    00bebebe    ....    DCD    12500670
        0x0001b9b0:    0001df7b    {...    DCD    122747
    $t
    i.am_hal_mspi_power_control
    am_hal_mspi_power_control
        0x0001b9b4:    b570        p.      PUSH     {r4-r6,lr}
        0x0001b9b6:    4615        .F      MOV      r5,r2
        0x0001b9b8:    1e04        ..      SUBS     r4,r0,#0
        0x0001b9ba:    bf1c        ..      ITT      NE
        0x0001b9bc:    6802        .h      LDRNE    r2,[r0,#0]
        0x0001b9be:    f0127f80    ....    TSTNE    r2,#0x1000000
        0x0001b9c2:    d004        ..      BEQ      0x1b9ce ; am_hal_mspi_power_control + 26
        0x0001b9c4:    f022437f    "..C    BIC      r3,r2,#0xff000000
        0x0001b9c8:    4ae9        .J      LDR      r2,[pc,#932] ; [0x1bd70] = 0xbebebe
        0x0001b9ca:    4293        .B      CMP      r3,r2
        0x0001b9cc:    d001        ..      BEQ      0x1b9d2 ; am_hal_mspi_power_control + 30
        0x0001b9ce:    2002        .       MOVS     r0,#2
        0x0001b9d0:    bd70        p.      POP      {r4-r6,pc}
        0x0001b9d2:    2900        .)      CMP      r1,#0
        0x0001b9d4:    f00080f5    ....    BEQ.W    0x1bbc2 ; am_hal_mspi_power_control + 526
        0x0001b9d8:    2901        .)      CMP      r1,#1
        0x0001b9da:    bf1e        ..      ITTT     NE
        0x0001b9dc:    2902        .)      CMPNE    r1,#2
        0x0001b9de:    2006        .       MOVNE    r0,#6
        0x0001b9e0:    bd70        p.      POPNE    {r4-r6,pc}
        0x0001b9e2:    2d00        .-      CMP      r5,#0
        0x0001b9e4:    d07e        ~.      BEQ      0x1bae4 ; am_hal_mspi_power_control + 304
        0x0001b9e6:    6861        ah      LDR      r1,[r4,#4]
        0x0001b9e8:    0309        ..      LSLS     r1,r1,#12
        0x0001b9ea:    f1014180    ...A    ADD      r1,r1,#0x40000000
        0x0001b9ee:    f50121c0    ...!    ADD      r1,r1,#0x60000
        0x0001b9f2:    f8d11080    ....    LDR      r1,[r1,#0x80]
        0x0001b9f6:    f8c41864    ..d.    STR      r1,[r4,#0x864]
        0x0001b9fa:    6861        ah      LDR      r1,[r4,#4]
        0x0001b9fc:    0309        ..      LSLS     r1,r1,#12
        0x0001b9fe:    f1014180    ...A    ADD      r1,r1,#0x40000000
        0x0001ba02:    f50121c0    ...!    ADD      r1,r1,#0x60000
        0x0001ba06:    f8d11084    ....    LDR      r1,[r1,#0x84]
        0x0001ba0a:    f8c41868    ..h.    STR      r1,[r4,#0x868]
        0x0001ba0e:    6861        ah      LDR      r1,[r4,#4]
        0x0001ba10:    0309        ..      LSLS     r1,r1,#12
        0x0001ba12:    f1014180    ...A    ADD      r1,r1,#0x40000000
        0x0001ba16:    f50121c0    ...!    ADD      r1,r1,#0x60000
        0x0001ba1a:    f8d11088    ....    LDR      r1,[r1,#0x88]
        0x0001ba1e:    f8c4186c    ..l.    STR      r1,[r4,#0x86c]
        0x0001ba22:    6861        ah      LDR      r1,[r4,#4]
        0x0001ba24:    0309        ..      LSLS     r1,r1,#12
        0x0001ba26:    f1014180    ...A    ADD      r1,r1,#0x40000000
        0x0001ba2a:    f50121c0    ...!    ADD      r1,r1,#0x60000
        0x0001ba2e:    f8d11090    ....    LDR      r1,[r1,#0x90]
        0x0001ba32:    f8c41870    ..p.    STR      r1,[r4,#0x870]
        0x0001ba36:    6861        ah      LDR      r1,[r4,#4]
        0x0001ba38:    0309        ..      LSLS     r1,r1,#12
        0x0001ba3a:    f1014180    ...A    ADD      r1,r1,#0x40000000
        0x0001ba3e:    f50121c0    ...!    ADD      r1,r1,#0x60000
        0x0001ba42:    f8d11094    ....    LDR      r1,[r1,#0x94]
        0x0001ba46:    f8c41874    ..t.    STR      r1,[r4,#0x874]
        0x0001ba4a:    6861        ah      LDR      r1,[r4,#4]
        0x0001ba4c:    0309        ..      LSLS     r1,r1,#12
        0x0001ba4e:    f1014180    ...A    ADD      r1,r1,#0x40000000
        0x0001ba52:    f50121c0    ...!    ADD      r1,r1,#0x60000
        0x0001ba56:    f8d11098    ....    LDR      r1,[r1,#0x98]
        0x0001ba5a:    f8c41878    ..x.    STR      r1,[r4,#0x878]
        0x0001ba5e:    6861        ah      LDR      r1,[r4,#4]
        0x0001ba60:    0309        ..      LSLS     r1,r1,#12
        0x0001ba62:    f1014180    ...A    ADD      r1,r1,#0x40000000
        0x0001ba66:    f50121c0    ...!    ADD      r1,r1,#0x60000
        0x0001ba6a:    f8d1109c    ....    LDR      r1,[r1,#0x9c]
        0x0001ba6e:    f8c4187c    ..|.    STR      r1,[r4,#0x87c]
        0x0001ba72:    6861        ah      LDR      r1,[r4,#4]
        0x0001ba74:    0309        ..      LSLS     r1,r1,#12
        0x0001ba76:    f1014180    ...A    ADD      r1,r1,#0x40000000
        0x0001ba7a:    f50121c0    ...!    ADD      r1,r1,#0x60000
        0x0001ba7e:    f8d110a0    ....    LDR      r1,[r1,#0xa0]
        0x0001ba82:    f8c41880    ....    STR      r1,[r4,#0x880]
        0x0001ba86:    6861        ah      LDR      r1,[r4,#4]
        0x0001ba88:    0309        ..      LSLS     r1,r1,#12
        0x0001ba8a:    f1014180    ...A    ADD      r1,r1,#0x40000000
        0x0001ba8e:    f50121c0    ...!    ADD      r1,r1,#0x60000
        0x0001ba92:    6b09        .k      LDR      r1,[r1,#0x30]
        0x0001ba94:    f8c41884    ....    STR      r1,[r4,#0x884]
        0x0001ba98:    6861        ah      LDR      r1,[r4,#4]
        0x0001ba9a:    0309        ..      LSLS     r1,r1,#12
        0x0001ba9c:    f1014180    ...A    ADD      r1,r1,#0x40000000
        0x0001baa0:    f50121c0    ...!    ADD      r1,r1,#0x60000
        0x0001baa4:    6c49        Il      LDR      r1,[r1,#0x44]
        0x0001baa6:    f8c4188c    ....    STR      r1,[r4,#0x88c]
        0x0001baaa:    6861        ah      LDR      r1,[r4,#4]
        0x0001baac:    0309        ..      LSLS     r1,r1,#12
        0x0001baae:    f1014180    ...A    ADD      r1,r1,#0x40000000
        0x0001bab2:    f50121c0    ...!    ADD      r1,r1,#0x60000
        0x0001bab6:    6c89        .l      LDR      r1,[r1,#0x48]
        0x0001bab8:    f8c41890    ....    STR      r1,[r4,#0x890]
        0x0001babc:    6861        ah      LDR      r1,[r4,#4]
        0x0001babe:    0309        ..      LSLS     r1,r1,#12
        0x0001bac0:    f1014180    ...A    ADD      r1,r1,#0x40000000
        0x0001bac4:    f50121c0    ...!    ADD      r1,r1,#0x60000
        0x0001bac8:    6cc9        .l      LDR      r1,[r1,#0x4c]
        0x0001baca:    f8c41894    ....    STR      r1,[r4,#0x894]
        0x0001bace:    6861        ah      LDR      r1,[r4,#4]
        0x0001bad0:    0309        ..      LSLS     r1,r1,#12
        0x0001bad2:    f1014180    ...A    ADD      r1,r1,#0x40000000
        0x0001bad6:    f50121c0    ...!    ADD      r1,r1,#0x60000
        0x0001bada:    f8d112a0    ....    LDR      r1,[r1,#0x2a0]
        0x0001bade:    f8c41898    ....    STR      r1,[r4,#0x898]
        0x0001bae2:    e000        ..      B        0x1bae6 ; am_hal_mspi_power_control + 306
        0x0001bae4:    e052        R.      B        0x1bb8c ; am_hal_mspi_power_control + 472
        0x0001bae6:    6861        ah      LDR      r1,[r4,#4]
        0x0001bae8:    0309        ..      LSLS     r1,r1,#12
        0x0001baea:    f1014180    ...A    ADD      r1,r1,#0x40000000
        0x0001baee:    f50121c0    ...!    ADD      r1,r1,#0x60000
        0x0001baf2:    f8d112a8    ....    LDR      r1,[r1,#0x2a8]
        0x0001baf6:    f8c4189c    ....    STR      r1,[r4,#0x89c]
        0x0001bafa:    6861        ah      LDR      r1,[r4,#4]
        0x0001bafc:    0309        ..      LSLS     r1,r1,#12
        0x0001bafe:    f1014180    ...A    ADD      r1,r1,#0x40000000
        0x0001bb02:    f50121c0    ...!    ADD      r1,r1,#0x60000
        0x0001bb06:    f8d112b8    ....    LDR      r1,[r1,#0x2b8]
        0x0001bb0a:    f8c418a0    ....    STR      r1,[r4,#0x8a0]
        0x0001bb0e:    6861        ah      LDR      r1,[r4,#4]
        0x0001bb10:    0309        ..      LSLS     r1,r1,#12
        0x0001bb12:    f1014180    ...A    ADD      r1,r1,#0x40000000
        0x0001bb16:    f50121c0    ...!    ADD      r1,r1,#0x60000
        0x0001bb1a:    f8d112c0    ....    LDR      r1,[r1,#0x2c0]
        0x0001bb1e:    f8c418a4    ....    STR      r1,[r4,#0x8a4]
        0x0001bb22:    6861        ah      LDR      r1,[r4,#4]
        0x0001bb24:    0309        ..      LSLS     r1,r1,#12
        0x0001bb26:    f1014180    ...A    ADD      r1,r1,#0x40000000
        0x0001bb2a:    f50121c0    ...!    ADD      r1,r1,#0x60000
        0x0001bb2e:    f8d112c4    ....    LDR      r1,[r1,#0x2c4]
        0x0001bb32:    f8c418a8    ....    STR      r1,[r4,#0x8a8]
        0x0001bb36:    6861        ah      LDR      r1,[r4,#4]
        0x0001bb38:    0309        ..      LSLS     r1,r1,#12
        0x0001bb3a:    f1014180    ...A    ADD      r1,r1,#0x40000000
        0x0001bb3e:    f50121c0    ...!    ADD      r1,r1,#0x60000
        0x0001bb42:    f8d11200    ....    LDR      r1,[r1,#0x200]
        0x0001bb46:    f8c418ac    ....    STR      r1,[r4,#0x8ac]
        0x0001bb4a:    6861        ah      LDR      r1,[r4,#4]
        0x0001bb4c:    0309        ..      LSLS     r1,r1,#12
        0x0001bb4e:    f1014180    ...A    ADD      r1,r1,#0x40000000
        0x0001bb52:    f50121c0    ...!    ADD      r1,r1,#0x60000
        0x0001bb56:    f8d11114    ....    LDR      r1,[r1,#0x114]
        0x0001bb5a:    f8c418b0    ....    STR      r1,[r4,#0x8b0]
        0x0001bb5e:    6861        ah      LDR      r1,[r4,#4]
        0x0001bb60:    0309        ..      LSLS     r1,r1,#12
        0x0001bb62:    f1014180    ...A    ADD      r1,r1,#0x40000000
        0x0001bb66:    f50121c0    ...!    ADD      r1,r1,#0x60000
        0x0001bb6a:    f8d11118    ....    LDR      r1,[r1,#0x118]
        0x0001bb6e:    f8c418b4    ....    STR      r1,[r4,#0x8b4]
        0x0001bb72:    6861        ah      LDR      r1,[r4,#4]
        0x0001bb74:    0309        ..      LSLS     r1,r1,#12
        0x0001bb76:    f1014180    ...A    ADD      r1,r1,#0x40000000
        0x0001bb7a:    f50121c0    ...!    ADD      r1,r1,#0x60000
        0x0001bb7e:    f8d112a0    ....    LDR      r1,[r1,#0x2a0]
        0x0001bb82:    f8c41898    ....    STR      r1,[r4,#0x898]
        0x0001bb86:    2101        .!      MOVS     r1,#1
        0x0001bb88:    f8841860    ..`.    STRB     r1,[r4,#0x860]
        0x0001bb8c:    6801        .h      LDR      r1,[r0,#0]
        0x0001bb8e:    f0117f80    ....    TST      r1,#0x1000000
        0x0001bb92:    d00f        ..      BEQ      0x1bbb4 ; am_hal_mspi_power_control + 512
        0x0001bb94:    f021417f    !..A    BIC      r1,r1,#0xff000000
        0x0001bb98:    4291        .B      CMP      r1,r2
        0x0001bb9a:    d10b        ..      BNE      0x1bbb4 ; am_hal_mspi_power_control + 512
        0x0001bb9c:    6860        `h      LDR      r0,[r4,#4]
        0x0001bb9e:    0300        ..      LSLS     r0,r0,#12
        0x0001bba0:    f1004080    ...@    ADD      r0,r0,#0x40000000
        0x0001bba4:    f50020c0    ...     ADD      r0,r0,#0x60000
        0x0001bba8:    f8d01200    ....    LDR      r1,[r0,#0x200]
        0x0001bbac:    f36f010c    o...    BFC      r1,#0,#13
        0x0001bbb0:    f8c01200    ....    STR      r1,[r0,#0x200]
        0x0001bbb4:    7920         y      LDRB     r0,[r4,#4]
        0x0001bbb6:    300e        .0      ADDS     r0,r0,#0xe
        0x0001bbb8:    b2c0        ..      UXTB     r0,r0
        0x0001bbba:    f000fafb    ....    BL       am_hal_pwrctrl_periph_disable ; 0x1c1b4
        0x0001bbbe:    2000        .       MOVS     r0,#0
        0x0001bbc0:    bd70        p.      POP      {r4-r6,pc}
        0x0001bbc2:    b12d        -.      CBZ      r5,0x1bbd0 ; am_hal_mspi_power_control + 540
        0x0001bbc4:    f8940860    ..`.    LDRB     r0,[r4,#0x860]
        0x0001bbc8:    2800        .(      CMP      r0,#0
        0x0001bbca:    bf04        ..      ITT      EQ
        0x0001bbcc:    2007        .       MOVEQ    r0,#7
        0x0001bbce:    bd70        p.      POPEQ    {r4-r6,pc}
        0x0001bbd0:    7920         y      LDRB     r0,[r4,#4]
        0x0001bbd2:    300e        .0      ADDS     r0,r0,#0xe
        0x0001bbd4:    b2c0        ..      UXTB     r0,r0
        0x0001bbd6:    f000fb1b    ....    BL       am_hal_pwrctrl_periph_enable ; 0x1c210
        0x0001bbda:    2d00        .-      CMP      r5,#0
        0x0001bbdc:    d0ef        ..      BEQ      0x1bbbe ; am_hal_mspi_power_control + 522
        0x0001bbde:    6861        ah      LDR      r1,[r4,#4]
        0x0001bbe0:    f8d40864    ..d.    LDR      r0,[r4,#0x864]
        0x0001bbe4:    0309        ..      LSLS     r1,r1,#12
        0x0001bbe6:    f1014180    ...A    ADD      r1,r1,#0x40000000
        0x0001bbea:    f50121c0    ...!    ADD      r1,r1,#0x60000
        0x0001bbee:    f8c10080    ....    STR      r0,[r1,#0x80]
        0x0001bbf2:    6861        ah      LDR      r1,[r4,#4]
        0x0001bbf4:    f8d40868    ..h.    LDR      r0,[r4,#0x868]
        0x0001bbf8:    0309        ..      LSLS     r1,r1,#12
        0x0001bbfa:    f1014180    ...A    ADD      r1,r1,#0x40000000
        0x0001bbfe:    f50121c0    ...!    ADD      r1,r1,#0x60000
        0x0001bc02:    f8c10084    ....    STR      r0,[r1,#0x84]
        0x0001bc06:    6861        ah      LDR      r1,[r4,#4]
        0x0001bc08:    f8d4086c    ..l.    LDR      r0,[r4,#0x86c]
        0x0001bc0c:    0309        ..      LSLS     r1,r1,#12
        0x0001bc0e:    f1014180    ...A    ADD      r1,r1,#0x40000000
        0x0001bc12:    f50121c0    ...!    ADD      r1,r1,#0x60000
        0x0001bc16:    f8c10088    ....    STR      r0,[r1,#0x88]
        0x0001bc1a:    6861        ah      LDR      r1,[r4,#4]
        0x0001bc1c:    f8d40870    ..p.    LDR      r0,[r4,#0x870]
        0x0001bc20:    0309        ..      LSLS     r1,r1,#12
        0x0001bc22:    f1014180    ...A    ADD      r1,r1,#0x40000000
        0x0001bc26:    f50121c0    ...!    ADD      r1,r1,#0x60000
        0x0001bc2a:    f8c10090    ....    STR      r0,[r1,#0x90]
        0x0001bc2e:    6861        ah      LDR      r1,[r4,#4]
        0x0001bc30:    f8d40874    ..t.    LDR      r0,[r4,#0x874]
        0x0001bc34:    0309        ..      LSLS     r1,r1,#12
        0x0001bc36:    f1014180    ...A    ADD      r1,r1,#0x40000000
        0x0001bc3a:    f50121c0    ...!    ADD      r1,r1,#0x60000
        0x0001bc3e:    f8c10094    ....    STR      r0,[r1,#0x94]
        0x0001bc42:    6861        ah      LDR      r1,[r4,#4]
        0x0001bc44:    f8d40878    ..x.    LDR      r0,[r4,#0x878]
        0x0001bc48:    0309        ..      LSLS     r1,r1,#12
        0x0001bc4a:    f1014180    ...A    ADD      r1,r1,#0x40000000
        0x0001bc4e:    f50121c0    ...!    ADD      r1,r1,#0x60000
        0x0001bc52:    f8c10098    ....    STR      r0,[r1,#0x98]
        0x0001bc56:    6861        ah      LDR      r1,[r4,#4]
        0x0001bc58:    f8d4087c    ..|.    LDR      r0,[r4,#0x87c]
        0x0001bc5c:    0309        ..      LSLS     r1,r1,#12
        0x0001bc5e:    f1014180    ...A    ADD      r1,r1,#0x40000000
        0x0001bc62:    f50121c0    ...!    ADD      r1,r1,#0x60000
        0x0001bc66:    f8c1009c    ....    STR      r0,[r1,#0x9c]
        0x0001bc6a:    6861        ah      LDR      r1,[r4,#4]
        0x0001bc6c:    f8d40880    ....    LDR      r0,[r4,#0x880]
        0x0001bc70:    0309        ..      LSLS     r1,r1,#12
        0x0001bc72:    f1014180    ...A    ADD      r1,r1,#0x40000000
        0x0001bc76:    f50121c0    ...!    ADD      r1,r1,#0x60000
        0x0001bc7a:    f8c100a0    ....    STR      r0,[r1,#0xa0]
        0x0001bc7e:    6861        ah      LDR      r1,[r4,#4]
        0x0001bc80:    f8d40884    ....    LDR      r0,[r4,#0x884]
        0x0001bc84:    0309        ..      LSLS     r1,r1,#12
        0x0001bc86:    f1014180    ...A    ADD      r1,r1,#0x40000000
        0x0001bc8a:    f50121c0    ...!    ADD      r1,r1,#0x60000
        0x0001bc8e:    6308        .c      STR      r0,[r1,#0x30]
        0x0001bc90:    6861        ah      LDR      r1,[r4,#4]
        0x0001bc92:    f8d4088c    ....    LDR      r0,[r4,#0x88c]
        0x0001bc96:    0309        ..      LSLS     r1,r1,#12
        0x0001bc98:    f1014180    ...A    ADD      r1,r1,#0x40000000
        0x0001bc9c:    f50121c0    ...!    ADD      r1,r1,#0x60000
        0x0001bca0:    6448        Hd      STR      r0,[r1,#0x44]
        0x0001bca2:    6861        ah      LDR      r1,[r4,#4]
        0x0001bca4:    f8d40890    ....    LDR      r0,[r4,#0x890]
        0x0001bca8:    0309        ..      LSLS     r1,r1,#12
        0x0001bcaa:    f1014180    ...A    ADD      r1,r1,#0x40000000
        0x0001bcae:    f50121c0    ...!    ADD      r1,r1,#0x60000
        0x0001bcb2:    6488        .d      STR      r0,[r1,#0x48]
        0x0001bcb4:    6861        ah      LDR      r1,[r4,#4]
        0x0001bcb6:    f8d40894    ....    LDR      r0,[r4,#0x894]
        0x0001bcba:    0309        ..      LSLS     r1,r1,#12
        0x0001bcbc:    f1014180    ...A    ADD      r1,r1,#0x40000000
        0x0001bcc0:    f50121c0    ...!    ADD      r1,r1,#0x60000
        0x0001bcc4:    64c8        .d      STR      r0,[r1,#0x4c]
        0x0001bcc6:    6861        ah      LDR      r1,[r4,#4]
        0x0001bcc8:    f8d4089c    ....    LDR      r0,[r4,#0x89c]
        0x0001bccc:    0309        ..      LSLS     r1,r1,#12
        0x0001bcce:    f1014180    ...A    ADD      r1,r1,#0x40000000
        0x0001bcd2:    f50121c0    ...!    ADD      r1,r1,#0x60000
        0x0001bcd6:    f8c102a8    ....    STR      r0,[r1,#0x2a8]
        0x0001bcda:    6861        ah      LDR      r1,[r4,#4]
        0x0001bcdc:    f8d408a0    ....    LDR      r0,[r4,#0x8a0]
        0x0001bce0:    0309        ..      LSLS     r1,r1,#12
        0x0001bce2:    f1014180    ...A    ADD      r1,r1,#0x40000000
        0x0001bce6:    f50121c0    ...!    ADD      r1,r1,#0x60000
        0x0001bcea:    f8c102b8    ....    STR      r0,[r1,#0x2b8]
        0x0001bcee:    6861        ah      LDR      r1,[r4,#4]
        0x0001bcf0:    f8d408a4    ....    LDR      r0,[r4,#0x8a4]
        0x0001bcf4:    0309        ..      LSLS     r1,r1,#12
        0x0001bcf6:    f1014180    ...A    ADD      r1,r1,#0x40000000
        0x0001bcfa:    f50121c0    ...!    ADD      r1,r1,#0x60000
        0x0001bcfe:    f8c102c0    ....    STR      r0,[r1,#0x2c0]
        0x0001bd02:    6861        ah      LDR      r1,[r4,#4]
        0x0001bd04:    f8d408a8    ....    LDR      r0,[r4,#0x8a8]
        0x0001bd08:    0309        ..      LSLS     r1,r1,#12
        0x0001bd0a:    f1014180    ...A    ADD      r1,r1,#0x40000000
        0x0001bd0e:    f50121c0    ...!    ADD      r1,r1,#0x60000
        0x0001bd12:    f8c102c4    ....    STR      r0,[r1,#0x2c4]
        0x0001bd16:    6861        ah      LDR      r1,[r4,#4]
        0x0001bd18:    f8d408ac    ....    LDR      r0,[r4,#0x8ac]
        0x0001bd1c:    0309        ..      LSLS     r1,r1,#12
        0x0001bd1e:    f1014180    ...A    ADD      r1,r1,#0x40000000
        0x0001bd22:    f50121c0    ...!    ADD      r1,r1,#0x60000
        0x0001bd26:    f8c10200    ....    STR      r0,[r1,#0x200]
        0x0001bd2a:    6861        ah      LDR      r1,[r4,#4]
        0x0001bd2c:    f8d408b0    ....    LDR      r0,[r4,#0x8b0]
        0x0001bd30:    0309        ..      LSLS     r1,r1,#12
        0x0001bd32:    f1014180    ...A    ADD      r1,r1,#0x40000000
        0x0001bd36:    f50121c0    ...!    ADD      r1,r1,#0x60000
        0x0001bd3a:    f8c10114    ....    STR      r0,[r1,#0x114]
        0x0001bd3e:    6861        ah      LDR      r1,[r4,#4]
        0x0001bd40:    f8d408b4    ....    LDR      r0,[r4,#0x8b4]
        0x0001bd44:    0309        ..      LSLS     r1,r1,#12
        0x0001bd46:    f1014180    ...A    ADD      r1,r1,#0x40000000
        0x0001bd4a:    f50121c0    ...!    ADD      r1,r1,#0x60000
        0x0001bd4e:    f8c10118    ....    STR      r0,[r1,#0x118]
        0x0001bd52:    6861        ah      LDR      r1,[r4,#4]
        0x0001bd54:    f8d40898    ....    LDR      r0,[r4,#0x898]
        0x0001bd58:    0309        ..      LSLS     r1,r1,#12
        0x0001bd5a:    f1014180    ...A    ADD      r1,r1,#0x40000000
        0x0001bd5e:    f50121c0    ...!    ADD      r1,r1,#0x60000
        0x0001bd62:    f8c102a0    ....    STR      r0,[r1,#0x2a0]
        0x0001bd66:    2000        .       MOVS     r0,#0
        0x0001bd68:    f8840860    ..`.    STRB     r0,[r4,#0x860]
        0x0001bd6c:    e727        '.      B        0x1bbbe ; am_hal_mspi_power_control + 522
    $d
        0x0001bd6e:    0000        ..      DCW    0
        0x0001bd70:    00bebebe    ....    DCD    12500670
    $t
    i.am_hal_pwrctrl_control
    am_hal_pwrctrl_control
        0x0001bd74:    e92d43f8    -..C    PUSH     {r3-r9,lr}
        0x0001bd78:    2700        .'      MOVS     r7,#0
        0x0001bd7a:    f8df8154    ..T.    LDR      r8,[pc,#340] ; [0x1bed0] = 0x40021000
        0x0001bd7e:    4c55        UL      LDR      r4,[pc,#340] ; [0x1bed4] = 0x40020000
        0x0001bd80:    2601        .&      MOVS     r6,#1
        0x0001bd82:    46b9        .F      MOV      r9,r7
        0x0001bd84:    b158        X.      CBZ      r0,0x1bd9e ; am_hal_pwrctrl_control + 42
        0x0001bd86:    2801        .(      CMP      r0,#1
        0x0001bd88:    d05d        ].      BEQ      0x1be46 ; am_hal_pwrctrl_control + 210
        0x0001bd8a:    2802        .(      CMP      r0,#2
        0x0001bd8c:    d07e        ~.      BEQ      0x1be8c ; am_hal_pwrctrl_control + 280
        0x0001bd8e:    2803        .(      CMP      r0,#3
        0x0001bd90:    bf0c        ..      ITE      EQ
        0x0001bd92:    f8c89004    ....    STREQ    r9,[r8,#4]
        0x0001bd96:    2706        .'      MOVNE    r7,#6
        0x0001bd98:    4638        8F      MOV      r0,r7
        0x0001bd9a:    e8bd83f8    ....    POP      {r3-r9,pc}
        0x0001bd9e:    2007        .       MOVS     r0,#7
        0x0001bda0:    f8c4033c    ..<.    STR      r0,[r4,#0x33c]
        0x0001bda4:    f8d40378    ..x.    LDR      r0,[r4,#0x378]
        0x0001bda8:    f02050f8     ..P    BIC      r0,r0,#0x1f000000
        0x0001bdac:    f8c40378    ..x.    STR      r0,[r4,#0x378]
        0x0001bdb0:    f8d40358    ..X.    LDR      r0,[r4,#0x358]
        0x0001bdb4:    f42000f8     ...    BIC      r0,r0,#0x7c0000
        0x0001bdb8:    f8c40358    ..X.    STR      r0,[r4,#0x358]
        0x0001bdbc:    4d46        FM      LDR      r5,[pc,#280] ; [0x1bed8] = 0x10000168
        0x0001bdbe:    6868        hh      LDR      r0,[r5,#4]
        0x0001bdc0:    f1b03fff    ...?    CMP      r0,#0xffffffff
        0x0001bdc4:    d10d        ..      BNE      0x1bde2 ; am_hal_pwrctrl_control + 110
        0x0001bdc6:    2201        ."      MOVS     r2,#1
        0x0001bdc8:    1d2b        +.      ADDS     r3,r5,#4
        0x0001bdca:    f24041c4    @..A    MOV      r1,#0x4c4
        0x0001bdce:    4610        .F      MOV      r0,r2
        0x0001bdd0:    f7fefaba    ....    BL       am_hal_mram_info_read ; 0x1a348
        0x0001bdd4:    b918        ..      CBNZ     r0,0x1bdde ; am_hal_pwrctrl_control + 106
        0x0001bdd6:    6868        hh      LDR      r0,[r5,#4]
        0x0001bdd8:    f1b03fff    ...?    CMP      r0,#0xffffffff
        0x0001bddc:    d101        ..      BNE      0x1bde2 ; am_hal_pwrctrl_control + 110
        0x0001bdde:    f8c59004    ....    STR      r9,[r5,#4]
        0x0001bde2:    6868        hh      LDR      r0,[r5,#4]
        0x0001bde4:    68e1        .h      LDR      r1,[r4,#0xc]
        0x0001bde6:    b2c9        ..      UXTB     r1,r1
        0x0001bde8:    2922        ")      CMP      r1,#0x22
        0x0001bdea:    bf22        ".      ITTT     CS
        0x0001bdec:    2806        .(      CMPCS    r0,#6
        0x0001bdee:    7868        hx      LDRBCS   r0,[r5,#1]
        0x0001bdf0:    2800        .(      CMPCS    r0,#0
        0x0001bdf2:    d121        !.      BNE      0x1be38 ; am_hal_pwrctrl_control + 196
        0x0001bdf4:    706e        np      STRB     r6,[r5,#1]
        0x0001bdf6:    6c60        `l      LDR      r0,[r4,#0x44]
        0x0001bdf8:    68e9        .h      LDR      r1,[r5,#0xc]
        0x0001bdfa:    f3c010c6    ....    UBFX     r0,r0,#7,#7
        0x0001bdfe:    f1b13fff    ...?    CMP      r1,#0xffffffff
        0x0001be02:    bf08        ..      IT       EQ
        0x0001be04:    60e8        .`      STREQ    r0,[r5,#0xc]
        0x0001be06:    f8d41378    ..x.    LDR      r1,[r4,#0x378]
        0x0001be0a:    f0414100    A..A    ORR      r1,r1,#0x80000000
        0x0001be0e:    f8c41378    ..x.    STR      r1,[r4,#0x378]
        0x0001be12:    f1100f18    ....    CMN      r0,#0x18
        0x0001be16:    bf94        ..      ITE      LS
        0x0001be18:    f1000518    ....    ADDLS    r5,r0,#0x18
        0x0001be1c:    2500        .%      MOVHI    r5,#0
        0x0001be1e:    f7fcfac1    ....    BL       am_hal_interrupt_master_disable ; 0x183a4
        0x0001be22:    9000        ..      STR      r0,[sp,#0]
        0x0001be24:    6c60        `l      LDR      r0,[r4,#0x44]
        0x0001be26:    f36510cd    e...    BFI      r0,r5,#7,#7
        0x0001be2a:    6460        `d      STR      r0,[r4,#0x44]
        0x0001be2c:    2014        .       MOVS     r0,#0x14
        0x0001be2e:    f7fef983    ....    BL       am_hal_delay_us ; 0x1a138
        0x0001be32:    9800        ..      LDR      r0,[sp,#0]
        0x0001be34:    f7fcfaba    ....    BL       am_hal_interrupt_master_set ; 0x183ac
        0x0001be38:    f8d80100    ....    LDR      r0,[r8,#0x100]
        0x0001be3c:    f0400001    @...    ORR      r0,r0,#1
        0x0001be40:    f8c80100    ....    STR      r0,[r8,#0x100]
        0x0001be44:    e7a8        ..      B        0x1bd98 ; am_hal_pwrctrl_control + 36
        0x0001be46:    4825        %H      LDR      r0,[pc,#148] ; [0x1bedc] = 0x1e7e0
        0x0001be48:    f50074a0    ...t    ADD      r4,r0,#0x140
        0x0001be4c:    f8d00148    ..H.    LDR      r0,[r0,#0x148]
        0x0001be50:    68e1        .h      LDR      r1,[r4,#0xc]
        0x0001be52:    6800        .h      LDR      r0,[r0,#0]
        0x0001be54:    4008        .@      ANDS     r0,r0,r1
        0x0001be56:    bf18        ..      IT       NE
        0x0001be58:    2001        .       MOVNE    r0,#1
        0x0001be5a:    2800        .(      CMP      r0,#0
        0x0001be5c:    d09c        ..      BEQ      0x1bd98 ; am_hal_pwrctrl_control + 36
        0x0001be5e:    2301        .#      MOVS     r3,#1
        0x0001be60:    461a        .F      MOV      r2,r3
        0x0001be62:    491f        .I      LDR      r1,[pc,#124] ; [0x1bee0] = 0x400c0a7c
        0x0001be64:    2064        d       MOVS     r0,#0x64
        0x0001be66:    f7fef97d    ..}.    BL       am_hal_delay_us_status_change ; 0x1a164
        0x0001be6a:    2800        .(      CMP      r0,#0
        0x0001be6c:    bf18        ..      IT       NE
        0x0001be6e:    e8bd83f8    ....    POPNE    {r3-r9,pc}
        0x0001be72:    2301        .#      MOVS     r3,#1
        0x0001be74:    461a        .F      MOV      r2,r3
        0x0001be76:    491b        .I      LDR      r1,[pc,#108] ; [0x1bee4] = 0x400c1f10
        0x0001be78:    2064        d       MOVS     r0,#0x64
        0x0001be7a:    f7fef973    ..s.    BL       am_hal_delay_us_status_change ; 0x1a164
        0x0001be7e:    2800        .(      CMP      r0,#0
        0x0001be80:    bf18        ..      IT       NE
        0x0001be82:    e8bd83f8    ....    POPNE    {r3-r9,pc}
        0x0001be86:    4818        .H      LDR      r0,[pc,#96] ; [0x1bee8] = 0x400c0a80
        0x0001be88:    6801        .h      LDR      r1,[r0,#0]
        0x0001be8a:    e000        ..      B        0x1be8e ; am_hal_pwrctrl_control + 282
        0x0001be8c:    e016        ..      B        0x1bebc ; am_hal_pwrctrl_control + 328
        0x0001be8e:    f0410101    A...    ORR      r1,r1,#1
        0x0001be92:    6001        .`      STR      r1,[r0,#0]
        0x0001be94:    200f        .       MOVS     r0,#0xf
        0x0001be96:    f7fef94f    ..O.    BL       am_hal_delay_us ; 0x1a138
        0x0001be9a:    2310        .#      MOVS     r3,#0x10
        0x0001be9c:    2200        ."      MOVS     r2,#0
        0x0001be9e:    0419        ..      LSLS     r1,r3,#16
        0x0001bea0:    4812        .H      LDR      r0,[pc,#72] ; [0x1beec] = 0x40021004
        0x0001bea2:    f000fb23    ..#.    BL       am_hal_util_write_and_wait ; 0x1c4ec
        0x0001bea6:    480d        .H      LDR      r0,[pc,#52] ; [0x1bedc] = 0x1e7e0
        0x0001bea8:    68e1        .h      LDR      r1,[r4,#0xc]
        0x0001beaa:    f8d00148    ..H.    LDR      r0,[r0,#0x148]
        0x0001beae:    6800        .h      LDR      r0,[r0,#0]
        0x0001beb0:    4208        .B      TST      r0,r1
        0x0001beb2:    bf1c        ..      ITT      NE
        0x0001beb4:    4630        0F      MOVNE    r0,r6
        0x0001beb6:    e8bd83f8    ....    POPNE    {r3-r9,pc}
        0x0001beba:    e76d        m.      B        0x1bd98 ; am_hal_pwrctrl_control + 36
        0x0001bebc:    f8d40124    ..$.    LDR      r0,[r4,#0x124]
        0x0001bec0:    f02000fc     ...    BIC      r0,r0,#0xfc
        0x0001bec4:    3080        .0      ADDS     r0,r0,#0x80
        0x0001bec6:    f8c40124    ..$.    STR      r0,[r4,#0x124]
        0x0001beca:    f8c46120    .. a    STR      r6,[r4,#0x120]
        0x0001bece:    e763        c.      B        0x1bd98 ; am_hal_pwrctrl_control + 36
    $d
        0x0001bed0:    40021000    ...@    DCD    1073876992
        0x0001bed4:    40020000    ...@    DCD    1073872896
        0x0001bed8:    10000168    h...    DCD    268435816
        0x0001bedc:    0001e7e0    ....    DCD    124896
        0x0001bee0:    400c0a7c    |..@    DCD    1074530940
        0x0001bee4:    400c1f10    ...@    DCD    1074536208
        0x0001bee8:    400c0a80    ...@    DCD    1074530944
        0x0001beec:    40021004    ...@    DCD    1073876996
    $t
    i.am_hal_pwrctrl_low_power_init
    am_hal_pwrctrl_low_power_init
        0x0001bef0:    b5f8        ..      PUSH     {r3-r7,lr}
        0x0001bef2:    4862        bH      LDR      r0,[pc,#392] ; [0x1c07c] = 0x1e7d8
        0x0001bef4:    f000f8d0    ....    BL       am_hal_pwrctrl_mcu_memory_config ; 0x1c098
        0x0001bef8:    4d61        aM      LDR      r5,[pc,#388] ; [0x1c080] = 0x1e7d4
        0x0001befa:    4c62        bL      LDR      r4,[pc,#392] ; [0x1c084] = 0x40021000
        0x0001befc:    7829        )x      LDRB     r1,[r5,#0]
        0x0001befe:    6a60        `j      LDR      r0,[r4,#0x24]
        0x0001bf00:    f3610001    a...    BFI      r0,r1,#0,#2
        0x0001bf04:    6260        `b      STR      r0,[r4,#0x24]
        0x0001bf06:    2601        .&      MOVS     r6,#1
        0x0001bf08:    9600        ..      STR      r6,[sp,#0]
        0x0001bf0a:    6a63        cj      LDR      r3,[r4,#0x24]
        0x0001bf0c:    2203        ."      MOVS     r2,#3
        0x0001bf0e:    495e        ^I      LDR      r1,[pc,#376] ; [0x1c088] = 0x40021028
        0x0001bf10:    2005        .       MOVS     r0,#5
        0x0001bf12:    f7fef953    ..S.    BL       am_hal_delay_us_status_check ; 0x1a1bc
        0x0001bf16:    2800        .(      CMP      r0,#0
        0x0001bf18:    d12f        /.      BNE      0x1bf7a ; am_hal_pwrctrl_low_power_init + 138
        0x0001bf1a:    6aa0        .j      LDR      r0,[r4,#0x28]
        0x0001bf1c:    6a61        aj      LDR      r1,[r4,#0x24]
        0x0001bf1e:    f0000003    ....    AND      r0,r0,#3
        0x0001bf22:    f0010103    ....    AND      r1,r1,#3
        0x0001bf26:    4288        .B      CMP      r0,r1
        0x0001bf28:    d127        '.      BNE      0x1bf7a ; am_hal_pwrctrl_low_power_init + 138
        0x0001bf2a:    7869        ix      LDRB     r1,[r5,#1]
        0x0001bf2c:    6ae0        .j      LDR      r0,[r4,#0x2c]
        0x0001bf2e:    f3610083    a...    BFI      r0,r1,#2,#2
        0x0001bf32:    62e0        .b      STR      r0,[r4,#0x2c]
        0x0001bf34:    78a9        .x      LDRB     r1,[r5,#2]
        0x0001bf36:    6ae0        .j      LDR      r0,[r4,#0x2c]
        0x0001bf38:    f3611005    a...    BFI      r0,r1,#4,#2
        0x0001bf3c:    62e0        .b      STR      r0,[r4,#0x2c]
        0x0001bf3e:    6ae0        .j      LDR      r0,[r4,#0x2c]
        0x0001bf40:    f02000c0     ...    BIC      r0,r0,#0xc0
        0x0001bf44:    62e0        .b      STR      r0,[r4,#0x2c]
        0x0001bf46:    6ae0        .j      LDR      r0,[r4,#0x2c]
        0x0001bf48:    f4207040     .@p    BIC      r0,r0,#0x300
        0x0001bf4c:    62e0        .b      STR      r0,[r4,#0x2c]
        0x0001bf4e:    78e8        .x      LDRB     r0,[r5,#3]
        0x0001bf50:    2800        .(      CMP      r0,#0
        0x0001bf52:    bf04        ..      ITT      EQ
        0x0001bf54:    6ae0        .j      LDREQ    r0,[r4,#0x2c]
        0x0001bf56:    f0400003    @...    ORREQ    r0,r0,#3
        0x0001bf5a:    d008        ..      BEQ      0x1bf6e ; am_hal_pwrctrl_low_power_init + 126
        0x0001bf5c:    2801        .(      CMP      r0,#1
        0x0001bf5e:    d002        ..      BEQ      0x1bf66 ; am_hal_pwrctrl_low_power_init + 118
        0x0001bf60:    2803        .(      CMP      r0,#3
        0x0001bf62:    d006        ..      BEQ      0x1bf72 ; am_hal_pwrctrl_low_power_init + 130
        0x0001bf64:    e009        ..      B        0x1bf7a ; am_hal_pwrctrl_low_power_init + 138
        0x0001bf66:    6ae0        .j      LDR      r0,[r4,#0x2c]
        0x0001bf68:    f0200003     ...    BIC      r0,r0,#3
        0x0001bf6c:    1c80        ..      ADDS     r0,r0,#2
        0x0001bf6e:    62e0        .b      STR      r0,[r4,#0x2c]
        0x0001bf70:    e003        ..      B        0x1bf7a ; am_hal_pwrctrl_low_power_init + 138
        0x0001bf72:    6ae0        .j      LDR      r0,[r4,#0x2c]
        0x0001bf74:    f0200003     ...    BIC      r0,r0,#3
        0x0001bf78:    62e0        .b      STR      r0,[r4,#0x2c]
        0x0001bf7a:    f04f2040    O.@     MOV      r0,#0x40004000
        0x0001bf7e:    6c41        Al      LDR      r1,[r0,#0x44]
        0x0001bf80:    f021717f    !..q    BIC      r1,r1,#0x3fc0000
        0x0001bf84:    f5010178    ..x.    ADD      r1,r1,#0xf80000
        0x0001bf88:    6441        Ad      STR      r1,[r0,#0x44]
        0x0001bf8a:    2500        .%      MOVS     r5,#0
        0x0001bf8c:    f8c45140    ..@Q    STR      r5,[r4,#0x140]
        0x0001bf90:    f8c45144    ..DQ    STR      r5,[r4,#0x144]
        0x0001bf94:    f8c45148    ..HQ    STR      r5,[r4,#0x148]
        0x0001bf98:    f8c4514c    ..LQ    STR      r5,[r4,#0x14c]
        0x0001bf9c:    f8c45150    ..PQ    STR      r5,[r4,#0x150]
        0x0001bfa0:    f8c45154    ..TQ    STR      r5,[r4,#0x154]
        0x0001bfa4:    f8c45158    ..XQ    STR      r5,[r4,#0x158]
        0x0001bfa8:    f8c4515c    ..\Q    STR      r5,[r4,#0x15c]
        0x0001bfac:    f8c45160    ..`Q    STR      r5,[r4,#0x160]
        0x0001bfb0:    f8c45164    ..dQ    STR      r5,[r4,#0x164]
        0x0001bfb4:    f8c45168    ..hQ    STR      r5,[r4,#0x168]
        0x0001bfb8:    f8c4516c    ..lQ    STR      r5,[r4,#0x16c]
        0x0001bfbc:    f8c45170    ..pQ    STR      r5,[r4,#0x170]
        0x0001bfc0:    f8c45174    ..tQ    STR      r5,[r4,#0x174]
        0x0001bfc4:    f8c45178    ..xQ    STR      r5,[r4,#0x178]
        0x0001bfc8:    f8c4517c    ..|Q    STR      r5,[r4,#0x17c]
        0x0001bfcc:    f8c45180    ...Q    STR      r5,[r4,#0x180]
        0x0001bfd0:    f8c45184    ...Q    STR      r5,[r4,#0x184]
        0x0001bfd4:    f8c45188    ...Q    STR      r5,[r4,#0x188]
        0x0001bfd8:    482c        ,H      LDR      r0,[pc,#176] ; [0x1c08c] = 0x1ea10
        0x0001bfda:    f7fdffcb    ....    BL       am_hal_daxi_config ; 0x19f74
        0x0001bfde:    2100        .!      MOVS     r1,#0
        0x0001bfe0:    2002        .       MOVS     r0,#2
        0x0001bfe2:    f7fdffdc    ....    BL       am_hal_daxi_control ; 0x19f9e
        0x0001bfe6:    2100        .!      MOVS     r1,#0
        0x0001bfe8:    2001        .       MOVS     r0,#1
        0x0001bfea:    f7fdffd8    ....    BL       am_hal_daxi_control ; 0x19f9e
        0x0001bfee:    2064        d       MOVS     r0,#0x64
        0x0001bff0:    f7fef8a2    ....    BL       am_hal_delay_us ; 0x1a138
        0x0001bff4:    f8d40108    ....    LDR      r0,[r4,#0x108]
        0x0001bff8:    f3c01001    ....    UBFX     r0,r0,#4,#2
        0x0001bffc:    2803        .(      CMP      r0,#3
        0x0001bffe:    d03a        :.      BEQ      0x1c076 ; am_hal_pwrctrl_low_power_init + 390
        0x0001c000:    4c23        #L      LDR      r4,[pc,#140] ; [0x1c090] = 0x10000168
        0x0001c002:    6860        `h      LDR      r0,[r4,#4]
        0x0001c004:    f1b03fff    ...?    CMP      r0,#0xffffffff
        0x0001c008:    d10c        ..      BNE      0x1c024 ; am_hal_pwrctrl_low_power_init + 308
        0x0001c00a:    2201        ."      MOVS     r2,#1
        0x0001c00c:    1d23        #.      ADDS     r3,r4,#4
        0x0001c00e:    f24041c4    @..A    MOV      r1,#0x4c4
        0x0001c012:    4610        .F      MOV      r0,r2
        0x0001c014:    f7fef998    ....    BL       am_hal_mram_info_read ; 0x1a348
        0x0001c018:    b918        ..      CBNZ     r0,0x1c022 ; am_hal_pwrctrl_low_power_init + 306
        0x0001c01a:    6860        `h      LDR      r0,[r4,#4]
        0x0001c01c:    f1b03fff    ...?    CMP      r0,#0xffffffff
        0x0001c020:    d100        ..      BNE      0x1c024 ; am_hal_pwrctrl_low_power_init + 308
        0x0001c022:    6065        e`      STR      r5,[r4,#4]
        0x0001c024:    4d1b        .M      LDR      r5,[pc,#108] ; [0x1c094] = 0x40020000
        0x0001c026:    6860        `h      LDR      r0,[r4,#4]
        0x0001c028:    68e9        .h      LDR      r1,[r5,#0xc]
        0x0001c02a:    b2c9        ..      UXTB     r1,r1
        0x0001c02c:    2922        ")      CMP      r1,#0x22
        0x0001c02e:    bf22        ".      ITTT     CS
        0x0001c030:    2806        .(      CMPCS    r0,#6
        0x0001c032:    78a0        .x      LDRBCS   r0,[r4,#2]
        0x0001c034:    2800        .(      CMPCS    r0,#0
        0x0001c036:    d11e        ..      BNE      0x1c076 ; am_hal_pwrctrl_low_power_init + 390
        0x0001c038:    70a6        .p      STRB     r6,[r4,#2]
        0x0001c03a:    f8d50080    ....    LDR      r0,[r5,#0x80]
        0x0001c03e:    6921        !i      LDR      r1,[r4,#0x10]
        0x0001c040:    f3c00009    ....    UBFX     r0,r0,#0,#10
        0x0001c044:    f1b13fff    ...?    CMP      r1,#0xffffffff
        0x0001c048:    bf08        ..      IT       EQ
        0x0001c04a:    6120         a      STREQ    r0,[r4,#0x10]
        0x0001c04c:    f1100f0a    ....    CMN      r0,#0xa
        0x0001c050:    bf94        ..      ITE      LS
        0x0001c052:    f100040a    ....    ADDLS    r4,r0,#0xa
        0x0001c056:    2400        .$      MOVHI    r4,#0
        0x0001c058:    f7fcf9a4    ....    BL       am_hal_interrupt_master_disable ; 0x183a4
        0x0001c05c:    9000        ..      STR      r0,[sp,#0]
        0x0001c05e:    f8d50080    ....    LDR      r0,[r5,#0x80]
        0x0001c062:    f3640009    d...    BFI      r0,r4,#0,#10
        0x0001c066:    f8c50080    ....    STR      r0,[r5,#0x80]
        0x0001c06a:    2014        .       MOVS     r0,#0x14
        0x0001c06c:    f7fef864    ..d.    BL       am_hal_delay_us ; 0x1a138
        0x0001c070:    9800        ..      LDR      r0,[sp,#0]
        0x0001c072:    f7fcf99b    ....    BL       am_hal_interrupt_master_set ; 0x183ac
        0x0001c076:    2000        .       MOVS     r0,#0
        0x0001c078:    bdf8        ..      POP      {r3-r7,pc}
    $d
        0x0001c07a:    0000        ..      DCW    0
        0x0001c07c:    0001e7d8    ....    DCD    124888
        0x0001c080:    0001e7d4    ....    DCD    124884
        0x0001c084:    40021000    ...@    DCD    1073876992
        0x0001c088:    40021028    (..@    DCD    1073877032
        0x0001c08c:    0001ea10    ....    DCD    125456
        0x0001c090:    10000168    h...    DCD    268435816
        0x0001c094:    40020000    ...@    DCD    1073872896
    $t
    i.am_hal_pwrctrl_mcu_memory_config
    am_hal_pwrctrl_mcu_memory_config
        0x0001c098:    b538        8.      PUSH     {r3-r5,lr}
        0x0001c09a:    4605        .F      MOV      r5,r0
        0x0001c09c:    7800        .x      LDRB     r0,[r0,#0]
        0x0001c09e:    4c43        CL      LDR      r4,[pc,#268] ; [0x1c1ac] = 0x40021000
        0x0001c0a0:    b120         .      CBZ      r0,0x1c0ac ; am_hal_pwrctrl_mcu_memory_config + 20
        0x0001c0a2:    2801        .(      CMP      r0,#1
        0x0001c0a4:    d00a        ..      BEQ      0x1c0bc ; am_hal_pwrctrl_mcu_memory_config + 36
        0x0001c0a6:    2802        .(      CMP      r0,#2
        0x0001c0a8:    d011        ..      BEQ      0x1c0ce ; am_hal_pwrctrl_mcu_memory_config + 54
        0x0001c0aa:    e018        ..      B        0x1c0de ; am_hal_pwrctrl_mcu_memory_config + 70
        0x0001c0ac:    6960        `i      LDR      r0,[r4,#0x14]
        0x0001c0ae:    f0200010     ...    BIC      r0,r0,#0x10
        0x0001c0b2:    6160        `a      STR      r0,[r4,#0x14]
        0x0001c0b4:    6960        `i      LDR      r0,[r4,#0x14]
        0x0001c0b6:    f0200020     . .    BIC      r0,r0,#0x20
        0x0001c0ba:    e00f        ..      B        0x1c0dc ; am_hal_pwrctrl_mcu_memory_config + 68
        0x0001c0bc:    6960        `i      LDR      r0,[r4,#0x14]
        0x0001c0be:    f0400010    @...    ORR      r0,r0,#0x10
        0x0001c0c2:    6160        `a      STR      r0,[r4,#0x14]
        0x0001c0c4:    6960        `i      LDR      r0,[r4,#0x14]
        0x0001c0c6:    f0200020     . .    BIC      r0,r0,#0x20
        0x0001c0ca:    6160        `a      STR      r0,[r4,#0x14]
        0x0001c0cc:    e007        ..      B        0x1c0de ; am_hal_pwrctrl_mcu_memory_config + 70
        0x0001c0ce:    6960        `i      LDR      r0,[r4,#0x14]
        0x0001c0d0:    f0400010    @...    ORR      r0,r0,#0x10
        0x0001c0d4:    6160        `a      STR      r0,[r4,#0x14]
        0x0001c0d6:    6960        `i      LDR      r0,[r4,#0x14]
        0x0001c0d8:    f0400020    @. .    ORR      r0,r0,#0x20
        0x0001c0dc:    6160        `a      STR      r0,[r4,#0x14]
        0x0001c0de:    78a9        .x      LDRB     r1,[r5,#2]
        0x0001c0e0:    6960        `i      LDR      r0,[r4,#0x14]
        0x0001c0e2:    f3610002    a...    BFI      r0,r1,#0,#3
        0x0001c0e6:    6160        `a      STR      r0,[r4,#0x14]
        0x0001c0e8:    7929        )y      LDRB     r1,[r5,#4]
        0x0001c0ea:    6960        `i      LDR      r0,[r4,#0x14]
        0x0001c0ec:    f36100c3    a...    BFI      r0,r1,#3,#1
        0x0001c0f0:    6160        `a      STR      r0,[r4,#0x14]
        0x0001c0f2:    2001        .       MOVS     r0,#1
        0x0001c0f4:    9000        ..      STR      r0,[sp,#0]
        0x0001c0f6:    6963        ci      LDR      r3,[r4,#0x14]
        0x0001c0f8:    223f        ?"      MOVS     r2,#0x3f
        0x0001c0fa:    492d        -I      LDR      r1,[pc,#180] ; [0x1c1b0] = 0x40021018
        0x0001c0fc:    2005        .       MOVS     r0,#5
        0x0001c0fe:    f7fef85d    ..].    BL       am_hal_delay_us_status_check ; 0x1a1bc
        0x0001c102:    2800        .(      CMP      r0,#0
        0x0001c104:    bf18        ..      IT       NE
        0x0001c106:    bd38        8.      POPNE    {r3-r5,pc}
        0x0001c108:    69a0        .i      LDR      r0,[r4,#0x18]
        0x0001c10a:    6961        ai      LDR      r1,[r4,#0x14]
        0x0001c10c:    f3c01000    ....    UBFX     r0,r0,#4,#1
        0x0001c110:    f3c11100    ....    UBFX     r1,r1,#4,#1
        0x0001c114:    4288        .B      CMP      r0,r1
        0x0001c116:    d117        ..      BNE      0x1c148 ; am_hal_pwrctrl_mcu_memory_config + 176
        0x0001c118:    69a0        .i      LDR      r0,[r4,#0x18]
        0x0001c11a:    6961        ai      LDR      r1,[r4,#0x14]
        0x0001c11c:    f3c01040    ..@.    UBFX     r0,r0,#5,#1
        0x0001c120:    f3c11140    ..@.    UBFX     r1,r1,#5,#1
        0x0001c124:    4288        .B      CMP      r0,r1
        0x0001c126:    d10f        ..      BNE      0x1c148 ; am_hal_pwrctrl_mcu_memory_config + 176
        0x0001c128:    69a0        .i      LDR      r0,[r4,#0x18]
        0x0001c12a:    6961        ai      LDR      r1,[r4,#0x14]
        0x0001c12c:    f0000007    ....    AND      r0,r0,#7
        0x0001c130:    f0010107    ....    AND      r1,r1,#7
        0x0001c134:    4288        .B      CMP      r0,r1
        0x0001c136:    d107        ..      BNE      0x1c148 ; am_hal_pwrctrl_mcu_memory_config + 176
        0x0001c138:    69a0        .i      LDR      r0,[r4,#0x18]
        0x0001c13a:    6961        ai      LDR      r1,[r4,#0x14]
        0x0001c13c:    f3c000c0    ....    UBFX     r0,r0,#3,#1
        0x0001c140:    f3c101c0    ....    UBFX     r1,r1,#3,#1
        0x0001c144:    4288        .B      CMP      r0,r1
        0x0001c146:    d001        ..      BEQ      0x1c14c ; am_hal_pwrctrl_mcu_memory_config + 180
        0x0001c148:    2001        .       MOVS     r0,#1
        0x0001c14a:    bd38        8.      POP      {r3-r5,pc}
        0x0001c14c:    7868        hx      LDRB     r0,[r5,#1]
        0x0001c14e:    2800        .(      CMP      r0,#0
        0x0001c150:    69e0        .i      LDR      r0,[r4,#0x1c]
        0x0001c152:    bf14        ..      ITE      NE
        0x0001c154:    f0200010     ...    BICNE    r0,r0,#0x10
        0x0001c158:    f0400010    @...    ORREQ    r0,r0,#0x10
        0x0001c15c:    61e0        .a      STR      r0,[r4,#0x1c]
        0x0001c15e:    7968        hy      LDRB     r0,[r5,#5]
        0x0001c160:    2800        .(      CMP      r0,#0
        0x0001c162:    69e0        .i      LDR      r0,[r4,#0x1c]
        0x0001c164:    bf14        ..      ITE      NE
        0x0001c166:    f0200008     ...    BICNE    r0,r0,#8
        0x0001c16a:    f0400008    @...    ORREQ    r0,r0,#8
        0x0001c16e:    61e0        .a      STR      r0,[r4,#0x1c]
        0x0001c170:    78e8        .x      LDRB     r0,[r5,#3]
        0x0001c172:    2800        .(      CMP      r0,#0
        0x0001c174:    bf04        ..      ITT      EQ
        0x0001c176:    69e0        .i      LDREQ    r0,[r4,#0x1c]
        0x0001c178:    f0400007    @...    ORREQ    r0,r0,#7
        0x0001c17c:    d013        ..      BEQ      0x1c1a6 ; am_hal_pwrctrl_mcu_memory_config + 270
        0x0001c17e:    2801        .(      CMP      r0,#1
        0x0001c180:    d008        ..      BEQ      0x1c194 ; am_hal_pwrctrl_mcu_memory_config + 252
        0x0001c182:    2803        .(      CMP      r0,#3
        0x0001c184:    d00b        ..      BEQ      0x1c19e ; am_hal_pwrctrl_mcu_memory_config + 262
        0x0001c186:    2807        .(      CMP      r0,#7
        0x0001c188:    bf04        ..      ITT      EQ
        0x0001c18a:    69e0        .i      LDREQ    r0,[r4,#0x1c]
        0x0001c18c:    f0200007     ...    BICEQ    r0,r0,#7
        0x0001c190:    d009        ..      BEQ      0x1c1a6 ; am_hal_pwrctrl_mcu_memory_config + 270
        0x0001c192:    e009        ..      B        0x1c1a8 ; am_hal_pwrctrl_mcu_memory_config + 272
        0x0001c194:    69e0        .i      LDR      r0,[r4,#0x1c]
        0x0001c196:    f0200007     ...    BIC      r0,r0,#7
        0x0001c19a:    1d80        ..      ADDS     r0,r0,#6
        0x0001c19c:    e003        ..      B        0x1c1a6 ; am_hal_pwrctrl_mcu_memory_config + 270
        0x0001c19e:    69e0        .i      LDR      r0,[r4,#0x1c]
        0x0001c1a0:    f0200007     ...    BIC      r0,r0,#7
        0x0001c1a4:    1d00        ..      ADDS     r0,r0,#4
        0x0001c1a6:    61e0        .a      STR      r0,[r4,#0x1c]
        0x0001c1a8:    2000        .       MOVS     r0,#0
        0x0001c1aa:    bd38        8.      POP      {r3-r5,pc}
    $d
        0x0001c1ac:    40021000    ...@    DCD    1073876992
        0x0001c1b0:    40021018    ...@    DCD    1073877016
    $t
    i.am_hal_pwrctrl_periph_disable
    am_hal_pwrctrl_periph_disable
        0x0001c1b4:    b538        8.      PUSH     {r3-r5,lr}
        0x0001c1b6:    4914        .I      LDR      r1,[pc,#80] ; [0x1c208] = 0x1e7e0
        0x0001c1b8:    2814        .(      CMP      r0,#0x14
        0x0001c1ba:    eb011400    ....    ADD      r4,r1,r0,LSL #4
        0x0001c1be:    d01c        ..      BEQ      0x1c1fa ; am_hal_pwrctrl_periph_disable + 70
        0x0001c1c0:    f7fcf8f0    ....    BL       am_hal_interrupt_master_disable ; 0x183a4
        0x0001c1c4:    9000        ..      STR      r0,[sp,#0]
        0x0001c1c6:    6820         h      LDR      r0,[r4,#0]
        0x0001c1c8:    6862        bh      LDR      r2,[r4,#4]
        0x0001c1ca:    6801        .h      LDR      r1,[r0,#0]
        0x0001c1cc:    4391        .C      BICS     r1,r1,r2
        0x0001c1ce:    6001        .`      STR      r1,[r0,#0]
        0x0001c1d0:    9800        ..      LDR      r0,[sp,#0]
        0x0001c1d2:    f7fcf8eb    ....    BL       am_hal_interrupt_master_set ; 0x183ac
        0x0001c1d6:    2000        .       MOVS     r0,#0
        0x0001c1d8:    9000        ..      STR      r0,[sp,#0]
        0x0001c1da:    e9d41202    ....    LDRD     r1,r2,[r4,#8]
        0x0001c1de:    4613        .F      MOV      r3,r2
        0x0001c1e0:    2005        .       MOVS     r0,#5
        0x0001c1e2:    f7fdffeb    ....    BL       am_hal_delay_us_status_check ; 0x1a1bc
        0x0001c1e6:    2800        .(      CMP      r0,#0
        0x0001c1e8:    bf18        ..      IT       NE
        0x0001c1ea:    bd38        8.      POPNE    {r3-r5,pc}
        0x0001c1ec:    68a0        .h      LDR      r0,[r4,#8]
        0x0001c1ee:    68e1        .h      LDR      r1,[r4,#0xc]
        0x0001c1f0:    6800        .h      LDR      r0,[r0,#0]
        0x0001c1f2:    4008        .@      ANDS     r0,r0,r1
        0x0001c1f4:    bf18        ..      IT       NE
        0x0001c1f6:    2001        .       MOVNE    r0,#1
        0x0001c1f8:    bd38        8.      POP      {r3-r5,pc}
        0x0001c1fa:    2310        .#      MOVS     r3,#0x10
        0x0001c1fc:    2200        ."      MOVS     r2,#0
        0x0001c1fe:    0419        ..      LSLS     r1,r3,#16
        0x0001c200:    4802        .H      LDR      r0,[pc,#8] ; [0x1c20c] = 0x40021004
        0x0001c202:    f000f973    ..s.    BL       am_hal_util_write_and_wait ; 0x1c4ec
        0x0001c206:    e7f1        ..      B        0x1c1ec ; am_hal_pwrctrl_periph_disable + 56
    $d
        0x0001c208:    0001e7e0    ....    DCD    124896
        0x0001c20c:    40021004    ...@    DCD    1073876996
    $t
    i.am_hal_pwrctrl_periph_enable
    am_hal_pwrctrl_periph_enable
        0x0001c210:    b538        8.      PUSH     {r3-r5,lr}
        0x0001c212:    4915        .I      LDR      r1,[pc,#84] ; [0x1c268] = 0x1e7e0
        0x0001c214:    2814        .(      CMP      r0,#0x14
        0x0001c216:    eb011400    ....    ADD      r4,r1,r0,LSL #4
        0x0001c21a:    d01d        ..      BEQ      0x1c258 ; am_hal_pwrctrl_periph_enable + 72
        0x0001c21c:    f7fcf8c2    ....    BL       am_hal_interrupt_master_disable ; 0x183a4
        0x0001c220:    9000        ..      STR      r0,[sp,#0]
        0x0001c222:    6820         h      LDR      r0,[r4,#0]
        0x0001c224:    6862        bh      LDR      r2,[r4,#4]
        0x0001c226:    6801        .h      LDR      r1,[r0,#0]
        0x0001c228:    4311        .C      ORRS     r1,r1,r2
        0x0001c22a:    6001        .`      STR      r1,[r0,#0]
        0x0001c22c:    9800        ..      LDR      r0,[sp,#0]
        0x0001c22e:    f7fcf8bd    ....    BL       am_hal_interrupt_master_set ; 0x183ac
        0x0001c232:    2001        .       MOVS     r0,#1
        0x0001c234:    9000        ..      STR      r0,[sp,#0]
        0x0001c236:    e9d41202    ....    LDRD     r1,r2,[r4,#8]
        0x0001c23a:    4613        .F      MOV      r3,r2
        0x0001c23c:    2005        .       MOVS     r0,#5
        0x0001c23e:    f7fdffbd    ....    BL       am_hal_delay_us_status_check ; 0x1a1bc
        0x0001c242:    2800        .(      CMP      r0,#0
        0x0001c244:    bf18        ..      IT       NE
        0x0001c246:    bd38        8.      POPNE    {r3-r5,pc}
        0x0001c248:    68a0        .h      LDR      r0,[r4,#8]
        0x0001c24a:    68e1        .h      LDR      r1,[r4,#0xc]
        0x0001c24c:    6800        .h      LDR      r0,[r0,#0]
        0x0001c24e:    4208        .B      TST      r0,r1
        0x0001c250:    bf14        ..      ITE      NE
        0x0001c252:    2000        .       MOVNE    r0,#0
        0x0001c254:    2001        .       MOVEQ    r0,#1
        0x0001c256:    bd38        8.      POP      {r3-r5,pc}
        0x0001c258:    2310        .#      MOVS     r3,#0x10
        0x0001c25a:    041a        ..      LSLS     r2,r3,#16
        0x0001c25c:    4611        .F      MOV      r1,r2
        0x0001c25e:    4803        .H      LDR      r0,[pc,#12] ; [0x1c26c] = 0x40021004
        0x0001c260:    f000f944    ..D.    BL       am_hal_util_write_and_wait ; 0x1c4ec
        0x0001c264:    e7f0        ..      B        0x1c248 ; am_hal_pwrctrl_periph_enable + 56
    $d
        0x0001c266:    0000        ..      DCW    0
        0x0001c268:    0001e7e0    ....    DCD    124896
        0x0001c26c:    40021004    ...@    DCD    1073876996
    $t
    i.am_hal_rtc_osc_disable
    am_hal_rtc_osc_disable
        0x0001c270:    4803        .H      LDR      r0,[pc,#12] ; [0x1c280] = 0x40004800
        0x0001c272:    6801        .h      LDR      r1,[r0,#0]
        0x0001c274:    f0410110    A...    ORR      r1,r1,#0x10
        0x0001c278:    6001        .`      STR      r1,[r0,#0]
        0x0001c27a:    2000        .       MOVS     r0,#0
        0x0001c27c:    4770        pG      BX       lr
    $d
        0x0001c27e:    0000        ..      DCW    0
        0x0001c280:    40004800    .H.@    DCD    1073760256
    $t
    i.am_hal_sysctrl_sleep
    am_hal_sysctrl_sleep
        0x0001c284:    e92d43f8    -..C    PUSH     {r3-r9,lr}
        0x0001c288:    4604        .F      MOV      r4,r0
        0x0001c28a:    f04f0800    O...    MOV      r8,#0
        0x0001c28e:    f04f37ff    O..7    MOV      r7,#0xffffffff
        0x0001c292:    f7fcf887    ....    BL       am_hal_interrupt_master_disable ; 0x183a4
        0x0001c296:    4e2e        .N      LDR      r6,[pc,#184] ; [0x1c350] = 0xe000ed10
        0x0001c298:    9000        ..      STR      r0,[sp,#0]
        0x0001c29a:    b12c        ,.      CBZ      r4,0x1c2a8 ; am_hal_sysctrl_sleep + 36
        0x0001c29c:    4d2d        -M      LDR      r5,[pc,#180] ; [0x1c354] = 0x40020000
        0x0001c29e:    f8d50250    ..P.    LDR      r0,[r5,#0x250]
        0x0001c2a2:    f0100f10    ....    TST      r0,#0x10
        0x0001c2a6:    d009        ..      BEQ      0x1c2bc ; am_hal_sysctrl_sleep + 56
        0x0001c2a8:    6830        0h      LDR      r0,[r6,#0]
        0x0001c2aa:    f0200004     ...    BIC      r0,r0,#4
        0x0001c2ae:    6030        0`      STR      r0,[r6,#0]
        0x0001c2b0:    f3bf8f4f    ..O.    DSB      
        0x0001c2b4:    bf30        0.      WFI      
        0x0001c2b6:    f3bf8f6f    ..o.    ISB      
        0x0001c2ba:    e043        C.      B        0x1c344 ; am_hal_sysctrl_sleep + 192
        0x0001c2bc:    4c26        &L      LDR      r4,[pc,#152] ; [0x1c358] = 0x40021000
        0x0001c2be:    68a0        .h      LDR      r0,[r4,#8]
        0x0001c2c0:    f4101f80    ....    TST      r0,#0x100000
        0x0001c2c4:    bf1c        ..      ITT      NE
        0x0001c2c6:    69e0        .i      LDRNE    r0,[r4,#0x1c]
        0x0001c2c8:    f0100f08    ....    TSTNE    r0,#8
        0x0001c2cc:    d005        ..      BEQ      0x1c2da ; am_hal_sysctrl_sleep + 86
        0x0001c2ce:    69e0        .i      LDR      r0,[r4,#0x1c]
        0x0001c2d0:    f0200008     ...    BIC      r0,r0,#8
        0x0001c2d4:    61e0        .a      STR      r0,[r4,#0x1c]
        0x0001c2d6:    f04f0801    O...    MOV      r8,#1
        0x0001c2da:    4820         H      LDR      r0,[pc,#128] ; [0x1c35c] = 0x10000169
        0x0001c2dc:    7800        .x      LDRB     r0,[r0,#0]
        0x0001c2de:    b188        ..      CBZ      r0,0x1c304 ; am_hal_sysctrl_sleep + 128
        0x0001c2e0:    f8d50378    ..x.    LDR      r0,[r5,#0x378]
        0x0001c2e4:    f0404000    @..@    ORR      r0,r0,#0x80000000
        0x0001c2e8:    f8c50378    ..x.    STR      r0,[r5,#0x378]
        0x0001c2ec:    6c68        hl      LDR      r0,[r5,#0x44]
        0x0001c2ee:    f3c017c6    ....    UBFX     r7,r0,#7,#7
        0x0001c2f2:    481b        .H      LDR      r0,[pc,#108] ; [0x1c360] = 0x10000174
        0x0001c2f4:    7801        .x      LDRB     r1,[r0,#0]
        0x0001c2f6:    6c68        hl      LDR      r0,[r5,#0x44]
        0x0001c2f8:    f36110cd    a...    BFI      r0,r1,#7,#7
        0x0001c2fc:    6468        hd      STR      r0,[r5,#0x44]
        0x0001c2fe:    2014        .       MOVS     r0,#0x14
        0x0001c300:    f7fdff1a    ....    BL       am_hal_delay_us ; 0x1a138
        0x0001c304:    6830        0h      LDR      r0,[r6,#0]
        0x0001c306:    f0400004    @...    ORR      r0,r0,#4
        0x0001c30a:    6030        0`      STR      r0,[r6,#0]
        0x0001c30c:    f3bf8f4f    ..O.    DSB      
        0x0001c310:    bf30        0.      WFI      
        0x0001c312:    f3bf8f6f    ..o.    ISB      
        0x0001c316:    f1b73fff    ...?    CMP      r7,#0xffffffff
        0x0001c31a:    d00c        ..      BEQ      0x1c336 ; am_hal_sysctrl_sleep + 178
        0x0001c31c:    f8d50378    ..x.    LDR      r0,[r5,#0x378]
        0x0001c320:    f0404000    @..@    ORR      r0,r0,#0x80000000
        0x0001c324:    f8c50378    ..x.    STR      r0,[r5,#0x378]
        0x0001c328:    6c68        hl      LDR      r0,[r5,#0x44]
        0x0001c32a:    f36710cd    g...    BFI      r0,r7,#7,#7
        0x0001c32e:    6468        hd      STR      r0,[r5,#0x44]
        0x0001c330:    2014        .       MOVS     r0,#0x14
        0x0001c332:    f7fdff01    ....    BL       am_hal_delay_us ; 0x1a138
        0x0001c336:    f1b80f00    ....    CMP      r8,#0
        0x0001c33a:    d003        ..      BEQ      0x1c344 ; am_hal_sysctrl_sleep + 192
        0x0001c33c:    69e0        .i      LDR      r0,[r4,#0x1c]
        0x0001c33e:    f0400008    @...    ORR      r0,r0,#8
        0x0001c342:    61e0        .a      STR      r0,[r4,#0x1c]
        0x0001c344:    9800        ..      LDR      r0,[sp,#0]
        0x0001c346:    e8bd43f8    ...C    POP      {r3-r9,lr}
        0x0001c34a:    f7fcb82f    ../.    B        am_hal_interrupt_master_set ; 0x183ac
    $d
        0x0001c34e:    0000        ..      DCW    0
        0x0001c350:    e000ed10    ....    DCD    3758157072
        0x0001c354:    40020000    ...@    DCD    1073872896
        0x0001c358:    40021000    ...@    DCD    1073876992
        0x0001c35c:    10000169    i...    DCD    268435817
        0x0001c360:    10000174    t...    DCD    268435828
    $t
    i.am_hal_timer_clear
    am_hal_timer_clear
        0x0001c364:    b538        8.      PUSH     {r3-r5,lr}
        0x0001c366:    4604        .F      MOV      r4,r0
        0x0001c368:    f7fcf81c    ....    BL       am_hal_interrupt_master_disable ; 0x183a4
        0x0001c36c:    4914        .I      LDR      r1,[pc,#80] ; [0x1c3c0] = 0x40008000
        0x0001c36e:    9000        ..      STR      r0,[sp,#0]
        0x0001c370:    f8d13104    ...1    LDR      r3,[r1,#0x104]
        0x0001c374:    2001        .       MOVS     r0,#1
        0x0001c376:    fa00f204    ....    LSL      r2,r0,r4
        0x0001c37a:    ea230002    #...    BIC      r0,r3,r2
        0x0001c37e:    f8c10104    ....    STR      r0,[r1,#0x104]
        0x0001c382:    0160        `.      LSLS     r0,r4,#5
        0x0001c384:    4408        .D      ADD      r0,r0,r1
        0x0001c386:    f8d03200    ...2    LDR      r3,[r0,#0x200]
        0x0001c38a:    f0230301    #...    BIC      r3,r3,#1
        0x0001c38e:    f8c03200    ...2    STR      r3,[r0,#0x200]
        0x0001c392:    f8d03200    ...2    LDR      r3,[r0,#0x200]
        0x0001c396:    f0430302    C...    ORR      r3,r3,#2
        0x0001c39a:    f8c03200    ...2    STR      r3,[r0,#0x200]
        0x0001c39e:    f8d03200    ...2    LDR      r3,[r0,#0x200]
        0x0001c3a2:    f0430301    C...    ORR      r3,r3,#1
        0x0001c3a6:    f8c03200    ...2    STR      r3,[r0,#0x200]
        0x0001c3aa:    f8d10104    ....    LDR      r0,[r1,#0x104]
        0x0001c3ae:    4310        .C      ORRS     r0,r0,r2
        0x0001c3b0:    f8c10104    ....    STR      r0,[r1,#0x104]
        0x0001c3b4:    9800        ..      LDR      r0,[sp,#0]
        0x0001c3b6:    f7fbfff9    ....    BL       am_hal_interrupt_master_set ; 0x183ac
        0x0001c3ba:    2000        .       MOVS     r0,#0
        0x0001c3bc:    bd38        8.      POP      {r3-r5,pc}
    $d
        0x0001c3be:    0000        ..      DCW    0
        0x0001c3c0:    40008000    ...@    DCD    1073774592
    $t
    i.am_hal_timer_default_config_set
    am_hal_timer_default_config_set
        0x0001c3c4:    2201        ."      MOVS     r2,#1
        0x0001c3c6:    7002        .p      STRB     r2,[r0,#0]
        0x0001c3c8:    7042        Bp      STRB     r2,[r0,#1]
        0x0001c3ca:    1e91        ..      SUBS     r1,r2,#2
        0x0001c3cc:    60c1        .`      STR      r1,[r0,#0xc]
        0x0001c3ce:    6101        .a      STR      r1,[r0,#0x10]
        0x0001c3d0:    2100        .!      MOVS     r1,#0
        0x0001c3d2:    7081        .p      STRB     r1,[r0,#2]
        0x0001c3d4:    70c1        .p      STRB     r1,[r0,#3]
        0x0001c3d6:    7101        .q      STRB     r1,[r0,#4]
        0x0001c3d8:    7142        Bq      STRB     r2,[r0,#5]
        0x0001c3da:    6081        .`      STR      r1,[r0,#8]
        0x0001c3dc:    4608        .F      MOV      r0,r1
        0x0001c3de:    4770        pG      BX       lr
    i.am_hal_timer_interrupt_clear
    am_hal_timer_interrupt_clear
        0x0001c3e0:    4901        .I      LDR      r1,[pc,#4] ; [0x1c3e8] = 0x40008000
        0x0001c3e2:    6688        .f      STR      r0,[r1,#0x68]
        0x0001c3e4:    2000        .       MOVS     r0,#0
        0x0001c3e6:    4770        pG      BX       lr
    $d
        0x0001c3e8:    40008000    ...@    DCD    1073774592
    $t
    i.am_hal_timer_interrupt_enable
    am_hal_timer_interrupt_enable
        0x0001c3ec:    4a14        .J      LDR      r2,[pc,#80] ; [0x1c440] = 0x40020000
        0x0001c3ee:    4601        .F      MOV      r1,r0
        0x0001c3f0:    68d2        .h      LDR      r2,[r2,#0xc]
        0x0001c3f2:    b2d2        ..      UXTB     r2,r2
        0x0001c3f4:    2a22        "*      CMP      r2,#0x22
        0x0001c3f6:    bf24        $.      ITT      CS
        0x0001c3f8:    2200        ."      MOVCS    r2,#0
        0x0001c3fa:    4b12        .K      LDRCS    r3,[pc,#72] ; [0x1c444] = 0x10007414
        0x0001c3fc:    d318        ..      BCC      0x1c430 ; am_hal_timer_interrupt_enable + 68
        0x0001c3fe:    bf00        ..      NOP      
        0x0001c400:    f0110f01    ....    TST      r1,#1
        0x0001c404:    d006        ..      BEQ      0x1c414 ; am_hal_timer_interrupt_enable + 40
        0x0001c406:    eb030c82    ....    ADD      r12,r3,r2,LSL #2
        0x0001c40a:    f89cc001    ....    LDRB     r12,[r12,#1]
        0x0001c40e:    f1bc0f00    ....    CMP      r12,#0
        0x0001c412:    d013        ..      BEQ      0x1c43c ; am_hal_timer_interrupt_enable + 80
        0x0001c414:    f0110f02    ....    TST      r1,#2
        0x0001c418:    d006        ..      BEQ      0x1c428 ; am_hal_timer_interrupt_enable + 60
        0x0001c41a:    eb030c82    ....    ADD      r12,r3,r2,LSL #2
        0x0001c41e:    f89cc003    ....    LDRB     r12,[r12,#3]
        0x0001c422:    f1bc0f00    ....    CMP      r12,#0
        0x0001c426:    d009        ..      BEQ      0x1c43c ; am_hal_timer_interrupt_enable + 80
        0x0001c428:    0889        ..      LSRS     r1,r1,#2
        0x0001c42a:    1c52        R.      ADDS     r2,r2,#1
        0x0001c42c:    2a10        .*      CMP      r2,#0x10
        0x0001c42e:    d3e7        ..      BCC      0x1c400 ; am_hal_timer_interrupt_enable + 20
        0x0001c430:    4905        .I      LDR      r1,[pc,#20] ; [0x1c448] = 0x40008000
        0x0001c432:    6e0a        .n      LDR      r2,[r1,#0x60]
        0x0001c434:    4310        .C      ORRS     r0,r0,r2
        0x0001c436:    6608        .f      STR      r0,[r1,#0x60]
        0x0001c438:    2000        .       MOVS     r0,#0
        0x0001c43a:    4770        pG      BX       lr
        0x0001c43c:    2006        .       MOVS     r0,#6
        0x0001c43e:    4770        pG      BX       lr
    $d
        0x0001c440:    40020000    ...@    DCD    1073872896
        0x0001c444:    10007414    .t..    DCD    268465172
        0x0001c448:    40008000    ...@    DCD    1073774592
    $t
    i.am_hal_timer_interrupt_status_get
    am_hal_timer_interrupt_status_get
        0x0001c44c:    4a04        .J      LDR      r2,[pc,#16] ; [0x1c460] = 0x40008000
        0x0001c44e:    2800        .(      CMP      r0,#0
        0x0001c450:    6e50        Pn      LDR      r0,[r2,#0x64]
        0x0001c452:    bf1c        ..      ITT      NE
        0x0001c454:    6e12        .n      LDRNE    r2,[r2,#0x60]
        0x0001c456:    4010        .@      ANDNE    r0,r0,r2
        0x0001c458:    6008        .`      STR      r0,[r1,#0]
        0x0001c45a:    2000        .       MOVS     r0,#0
        0x0001c45c:    4770        pG      BX       lr
    $d
        0x0001c45e:    0000        ..      DCW    0
        0x0001c460:    40008000    ...@    DCD    1073774592
    $t
    i.am_hal_timer_stop
    am_hal_timer_stop
        0x0001c464:    b538        8.      PUSH     {r3-r5,lr}
        0x0001c466:    4604        .F      MOV      r4,r0
        0x0001c468:    f7fbff9c    ....    BL       am_hal_interrupt_master_disable ; 0x183a4
        0x0001c46c:    9000        ..      STR      r0,[sp,#0]
        0x0001c46e:    480c        .H      LDR      r0,[pc,#48] ; [0x1c4a0] = 0x40008000
        0x0001c470:    f8d01104    ....    LDR      r1,[r0,#0x104]
        0x0001c474:    2201        ."      MOVS     r2,#1
        0x0001c476:    40a2        .@      LSLS     r2,r2,r4
        0x0001c478:    4391        .C      BICS     r1,r1,r2
        0x0001c47a:    f8c01104    ....    STR      r1,[r0,#0x104]
        0x0001c47e:    0160        `.      LSLS     r0,r4,#5
        0x0001c480:    f1004080    ...@    ADD      r0,r0,#0x40000000
        0x0001c484:    f5004000    ...@    ADD      r0,r0,#0x8000
        0x0001c488:    f8d01200    ....    LDR      r1,[r0,#0x200]
        0x0001c48c:    f0210101    !...    BIC      r1,r1,#1
        0x0001c490:    f8c01200    ....    STR      r1,[r0,#0x200]
        0x0001c494:    9800        ..      LDR      r0,[sp,#0]
        0x0001c496:    f7fbff89    ....    BL       am_hal_interrupt_master_set ; 0x183ac
        0x0001c49a:    2000        .       MOVS     r0,#0
        0x0001c49c:    bd38        8.      POP      {r3-r5,pc}
    $d
        0x0001c49e:    0000        ..      DCW    0
        0x0001c4a0:    40008000    ...@    DCD    1073774592
    $t
    i.am_hal_tpiu_enable
    am_hal_tpiu_enable
        0x0001c4a4:    480e        .H      LDR      r0,[pc,#56] ; [0x1c4e0] = 0xe0040000
        0x0001c4a6:    2100        .!      MOVS     r1,#0
        0x0001c4a8:    f8c01304    ....    STR      r1,[r0,#0x304]
        0x0001c4ac:    2201        ."      MOVS     r2,#1
        0x0001c4ae:    6042        B`      STR      r2,[r0,#4]
        0x0001c4b0:    2217        ."      MOVS     r2,#0x17
        0x0001c4b2:    6102        .a      STR      r2,[r0,#0x10]
        0x0001c4b4:    2202        ."      MOVS     r2,#2
        0x0001c4b6:    f8c020f0    ...     STR      r2,[r0,#0xf0]
        0x0001c4ba:    480a        .H      LDR      r0,[pc,#40] ; [0x1c4e4] = 0xe0040f00
        0x0001c4bc:    6001        .`      STR      r1,[r0,#0]
        0x0001c4be:    480a        .H      LDR      r0,[pc,#40] ; [0x1c4e8] = 0x40020000
        0x0001c4c0:    f8d01250    ..P.    LDR      r1,[r0,#0x250]
        0x0001c4c4:    f021010e    !...    BIC      r1,r1,#0xe
        0x0001c4c8:    1c89        ..      ADDS     r1,r1,#2
        0x0001c4ca:    f8c01250    ..P.    STR      r1,[r0,#0x250]
        0x0001c4ce:    f8d01250    ..P.    LDR      r1,[r0,#0x250]
        0x0001c4d2:    f0410101    A...    ORR      r1,r1,#1
        0x0001c4d6:    f8c01250    ..P.    STR      r1,[r0,#0x250]
        0x0001c4da:    2032        2       MOVS     r0,#0x32
        0x0001c4dc:    f7fdbe2c    ..,.    B        am_hal_delay_us ; 0x1a138
    $d
        0x0001c4e0:    e0040000    ....    DCD    3758358528
        0x0001c4e4:    e0040f00    ....    DCD    3758362368
        0x0001c4e8:    40020000    ...@    DCD    1073872896
    $t
    i.am_hal_util_write_and_wait
    am_hal_util_write_and_wait
        0x0001c4ec:    e92d4fff    -..O    PUSH     {r0-r11,lr}
        0x0001c4f0:    b089        ..      SUB      sp,sp,#0x24
        0x0001c4f2:    4f46        FO      LDR      r7,[pc,#280] ; [0x1c60c] = 0x10000168
        0x0001c4f4:    2000        .       MOVS     r0,#0
        0x0001c4f6:    9000        ..      STR      r0,[sp,#0]
        0x0001c4f8:    6978        xi      LDR      r0,[r7,#0x14]
        0x0001c4fa:    f8dfb114    ....    LDR      r11,[pc,#276] ; [0x1c610] = 0xe000e008
        0x0001c4fe:    4615        .F      MOV      r5,r2
        0x0001c500:    460e        .F      MOV      r6,r1
        0x0001c502:    f44f3a80    O..:    MOV      r10,#0x10000
        0x0001c506:    f04f0801    O...    MOV      r8,#1
        0x0001c50a:    4283        .B      CMP      r3,r0
        0x0001c50c:    d038        8.      BEQ      0x1c580 ; am_hal_util_write_and_wait + 148
        0x0001c50e:    461c        .F      MOV      r4,r3
        0x0001c510:    a802        ..      ADD      r0,sp,#8
        0x0001c512:    f7ffff57    ..W.    BL       am_hal_timer_default_config_set ; 0x1c3c4
        0x0001c516:    f04f30ff    O..0    MOV      r0,#0xffffffff
        0x0001c51a:    f04f0900    O...    MOV      r9,#0
        0x0001c51e:    e9cd9004    ....    STRD     r9,r0,[sp,#0x10]
        0x0001c522:    483c        <H      LDR      r0,[pc,#240] ; [0x1c614] = 0x5b8d80
        0x0001c524:    493c        <I      LDR      r1,[pc,#240] ; [0x1c618] = 0xf4240
        0x0001c526:    4360        `C      MULS     r0,r4,r0
        0x0001c528:    fbb0f0f1    ....    UDIV     r0,r0,r1
        0x0001c52c:    9006        ..      STR      r0,[sp,#0x18]
        0x0001c52e:    f88d8009    ....    STRB     r8,[sp,#9]
        0x0001c532:    a902        ..      ADD      r1,sp,#8
        0x0001c534:    200d        .       MOVS     r0,#0xd
        0x0001c536:    f000ff47    ..G.    BL       internal_timer_config ; 0x1d3c8
        0x0001c53a:    2800        .(      CMP      r0,#0
        0x0001c53c:    bf1c        ..      ITT      NE
        0x0001c53e:    b00d        ..      ADDNE    sp,sp,#0x34
        0x0001c540:    e8bd8ff0    ....    POPNE    {r4-r11,pc}
        0x0001c544:    200d        .       MOVS     r0,#0xd
        0x0001c546:    f7ffff0d    ....    BL       am_hal_timer_clear ; 0x1c364
        0x0001c54a:    200d        .       MOVS     r0,#0xd
        0x0001c54c:    f7ffff8a    ....    BL       am_hal_timer_stop ; 0x1c464
        0x0001c550:    f04f6000    O..`    MOV      r0,#0x8000000
        0x0001c554:    f7ffff44    ..D.    BL       am_hal_timer_interrupt_clear ; 0x1c3e0
        0x0001c558:    2800        .(      CMP      r0,#0
        0x0001c55a:    bf1c        ..      ITT      NE
        0x0001c55c:    b00d        ..      ADDNE    sp,sp,#0x34
        0x0001c55e:    e8bd8ff0    ....    POPNE    {r4-r11,pc}
        0x0001c562:    f04f6000    O..`    MOV      r0,#0x8000000
        0x0001c566:    f7ffff41    ..A.    BL       am_hal_timer_interrupt_enable ; 0x1c3ec
        0x0001c56a:    2800        .(      CMP      r0,#0
        0x0001c56c:    bf1c        ..      ITT      NE
        0x0001c56e:    b00d        ..      ADDNE    sp,sp,#0x34
        0x0001c570:    e8bd8ff0    ....    POPNE    {r4-r11,pc}
        0x0001c574:    4829        )H      LDR      r0,[pc,#164] ; [0x1c61c] = 0xe000e050
        0x0001c576:    f8809400    ....    STRB     r9,[r0,#0x400]
        0x0001c57a:    f8cba100    ....    STR      r10,[r11,#0x100]
        0x0001c57e:    617c        |a      STR      r4,[r7,#0x14]
        0x0001c580:    4827        'H      LDR      r0,[pc,#156] ; [0x1c620] = 0xe000ed0c
        0x0001c582:    6800        .h      LDR      r0,[r0,#0]
        0x0001c584:    f3c02902    ...)    UBFX     r9,r0,#8,#3
        0x0001c588:    f1b90f07    ....    CMP      r9,#7
        0x0001c58c:    bf02        ..      ITTT     EQ
        0x0001c58e:    2001        .       MOVEQ    r0,#1
        0x0001c590:    b00d        ..      ADDEQ    sp,sp,#0x34
        0x0001c592:    e8bd8ff0    ....    POPEQ    {r4-r11,pc}
        0x0001c596:    f7fbff05    ....    BL       am_hal_interrupt_master_disable ; 0x183a4
        0x0001c59a:    f3ef8411    ....    MRS      r4,BASEPRI
        0x0001c59e:    9002        ..      STR      r0,[sp,#8]
        0x0001c5a0:    f1b90f05    ....    CMP      r9,#5
        0x0001c5a4:    bf23        #.      ITTTE    CS
        0x0001c5a6:    f1090001    ....    ADDCS    r0,r9,#1
        0x0001c5aa:    fa08f000    ....    LSLCS    r0,r8,r0
        0x0001c5ae:    b2c0        ..      UXTBCS   r0,r0
        0x0001c5b0:    2020                MOVCC    r0,#0x20
        0x0001c5b2:    f3808811    ....    MSR      BASEPRI,r0
        0x0001c5b6:    f1b63fff    ...?    CMP      r6,#0xffffffff
        0x0001c5ba:    d003        ..      BEQ      0x1c5c4 ; am_hal_util_write_and_wait + 216
        0x0001c5bc:    9809        ..      LDR      r0,[sp,#0x24]
        0x0001c5be:    6800        .h      LDR      r0,[r0,#0]
        0x0001c5c0:    43b0        .C      BICS     r0,r0,r6
        0x0001c5c2:    4305        .C      ORRS     r5,r5,r0
        0x0001c5c4:    200d        .       MOVS     r0,#0xd
        0x0001c5c6:    f7fffecd    ....    BL       am_hal_timer_clear ; 0x1c364
        0x0001c5ca:    4816        .H      LDR      r0,[pc,#88] ; [0x1c624] = 0xe000ed10
        0x0001c5cc:    6801        .h      LDR      r1,[r0,#0]
        0x0001c5ce:    f0210104    !...    BIC      r1,r1,#4
        0x0001c5d2:    6001        .`      STR      r1,[r0,#0]
        0x0001c5d4:    69ba        .i      LDR      r2,[r7,#0x18]
        0x0001c5d6:    4628        (F      MOV      r0,r5
        0x0001c5d8:    9909        ..      LDR      r1,[sp,#0x24]
        0x0001c5da:    4790        .G      BLX      r2
        0x0001c5dc:    200d        .       MOVS     r0,#0xd
        0x0001c5de:    f7ffff41    ..A.    BL       am_hal_timer_stop ; 0x1c464
        0x0001c5e2:    f04f6000    O..`    MOV      r0,#0x8000000
        0x0001c5e6:    f7fffefb    ....    BL       am_hal_timer_interrupt_clear ; 0x1c3e0
        0x0001c5ea:    a904        ..      ADD      r1,sp,#0x10
        0x0001c5ec:    2000        .       MOVS     r0,#0
        0x0001c5ee:    f7ffff2d    ..-.    BL       am_hal_timer_interrupt_status_get ; 0x1c44c
        0x0001c5f2:    f8cba280    ....    STR      r10,[r11,#0x280]
        0x0001c5f6:    b2e0        ..      UXTB     r0,r4
        0x0001c5f8:    f3808811    ....    MSR      BASEPRI,r0
        0x0001c5fc:    9802        ..      LDR      r0,[sp,#8]
        0x0001c5fe:    f7fbfed5    ....    BL       am_hal_interrupt_master_set ; 0x183ac
        0x0001c602:    9800        ..      LDR      r0,[sp,#0]
        0x0001c604:    b00d        ..      ADD      sp,sp,#0x34
        0x0001c606:    e8bd8ff0    ....    POP      {r4-r11,pc}
    $d
        0x0001c60a:    0000        ..      DCW    0
        0x0001c60c:    10000168    h...    DCD    268435816
        0x0001c610:    e000e008    ....    DCD    3758153736
        0x0001c614:    005b8d80    ..[.    DCD    6000000
        0x0001c618:    000f4240    @B..    DCD    1000000
        0x0001c61c:    e000e050    P...    DCD    3758153808
        0x0001c620:    e000ed0c    ....    DCD    3758157068
        0x0001c624:    e000ed10    ....    DCD    3758157072
    $t
    i.am_mspi2_isr
    am_mspi2_isr
        0x0001c628:    b508        ..      PUSH     {r3,lr}
        0x0001c62a:    2200        ."      MOVS     r2,#0
        0x0001c62c:    4669        iF      MOV      r1,sp
        0x0001c62e:    4807        .H      LDR      r0,[pc,#28] ; [0x1c64c] = 0x10000008
        0x0001c630:    6800        .h      LDR      r0,[r0,#0]
        0x0001c632:    f7fff8df    ....    BL       am_hal_mspi_interrupt_status_get ; 0x1b7f4
        0x0001c636:    4805        .H      LDR      r0,[pc,#20] ; [0x1c64c] = 0x10000008
        0x0001c638:    9900        ..      LDR      r1,[sp,#0]
        0x0001c63a:    6800        .h      LDR      r0,[r0,#0]
        0x0001c63c:    f7feff34    ..4.    BL       am_hal_mspi_interrupt_clear ; 0x1b4a8
        0x0001c640:    4802        .H      LDR      r0,[pc,#8] ; [0x1c64c] = 0x10000008
        0x0001c642:    9900        ..      LDR      r1,[sp,#0]
        0x0001c644:    6800        .h      LDR      r0,[r0,#0]
        0x0001c646:    f7feff83    ....    BL       am_hal_mspi_interrupt_service ; 0x1b550
        0x0001c64a:    bd08        ..      POP      {r3,pc}
    $d
        0x0001c64c:    10000008    ....    DCD    268435464
    $t
    i.am_util_delay_ms
    am_util_delay_ms
        0x0001c650:    b510        ..      PUSH     {r4,lr}
        0x0001c652:    4604        .F      MOV      r4,r0
        0x0001c654:    f44f717a    O.zq    MOV      r1,#0x3e8
        0x0001c658:    fb04f001    ....    MUL      r0,r4,r1
        0x0001c65c:    f7fdfd6c    ..l.    BL       am_hal_delay_us ; 0x1a138
        0x0001c660:    bd10        ..      POP      {r4,pc}
    i.am_util_delay_us
    am_util_delay_us
        0x0001c662:    b510        ..      PUSH     {r4,lr}
        0x0001c664:    4604        .F      MOV      r4,r0
        0x0001c666:    4620         F      MOV      r0,r4
        0x0001c668:    f7fdfd66    ..f.    BL       am_hal_delay_us ; 0x1a138
        0x0001c66c:    bd10        ..      POP      {r4,pc}
        0x0001c66e:    0000        ..      MOVS     r0,r0
    i.am_util_faultisr_collect_data
    am_util_faultisr_collect_data
        0x0001c670:    b092        ..      SUB      sp,sp,#0x48
        0x0001c672:    4605        .F      MOV      r5,r0
        0x0001c674:    2118        .!      MOVS     r1,#0x18
        0x0001c676:    4668        hF      MOV      r0,sp
        0x0001c678:    f7fbff13    ....    BL       __aeabi_memclr4 ; 0x184a2
        0x0001c67c:    2400        .$      MOVS     r4,#0
        0x0001c67e:    9410        ..      STR      r4,[sp,#0x40]
        0x0001c680:    4870        pH      LDR      r0,[pc,#448] ; [0x1c844] = 0xe000ed28
        0x0001c682:    6800        .h      LDR      r0,[r0,#0]
        0x0001c684:    9010        ..      STR      r0,[sp,#0x40]
        0x0001c686:    9810        ..      LDR      r0,[sp,#0x40]
        0x0001c688:    b2c0        ..      UXTB     r0,r0
        0x0001c68a:    f88d0044    ..D.    STRB     r0,[sp,#0x44]
        0x0001c68e:    9810        ..      LDR      r0,[sp,#0x40]
        0x0001c690:    0a00        ..      LSRS     r0,r0,#8
        0x0001c692:    f88d0045    ..E.    STRB     r0,[sp,#0x45]
        0x0001c696:    9810        ..      LDR      r0,[sp,#0x40]
        0x0001c698:    f64f71ff    O..q    MOV      r1,#0xffff
        0x0001c69c:    ea014010    ...@    AND      r0,r1,r0,LSR #16
        0x0001c6a0:    f8ad0046    ..F.    STRH     r0,[sp,#0x46]
        0x0001c6a4:    4867        gH      LDR      r0,[pc,#412] ; [0x1c844] = 0xe000ed28
        0x0001c6a6:    3010        .0      ADDS     r0,r0,#0x10
        0x0001c6a8:    6800        .h      LDR      r0,[r0,#0]
        0x0001c6aa:    900f        ..      STR      r0,[sp,#0x3c]
        0x0001c6ac:    f89d0045    ..E.    LDRB     r0,[sp,#0x45]
        0x0001c6b0:    f0000002    ....    AND      r0,r0,#2
        0x0001c6b4:    b120         .      CBZ      r0,0x1c6c0 ; am_util_faultisr_collect_data + 80
        0x0001c6b6:    4629        )F      MOV      r1,r5
        0x0001c6b8:    2006        .       MOVS     r0,#6
        0x0001c6ba:    f7fbfe6a    ..j.    BL       getStackedReg ; 0x18392
        0x0001c6be:    e001        ..      B        0x1c6c4 ; am_util_faultisr_collect_data + 84
        0x0001c6c0:    f04f30ff    O..0    MOV      r0,#0xffffffff
        0x0001c6c4:    900e        ..      STR      r0,[sp,#0x38]
        0x0001c6c6:    4629        )F      MOV      r1,r5
        0x0001c6c8:    2000        .       MOVS     r0,#0
        0x0001c6ca:    f7fbfe62    ..b.    BL       getStackedReg ; 0x18392
        0x0001c6ce:    9006        ..      STR      r0,[sp,#0x18]
        0x0001c6d0:    4629        )F      MOV      r1,r5
        0x0001c6d2:    2001        .       MOVS     r0,#1
        0x0001c6d4:    f7fbfe5d    ..].    BL       getStackedReg ; 0x18392
        0x0001c6d8:    9007        ..      STR      r0,[sp,#0x1c]
        0x0001c6da:    4629        )F      MOV      r1,r5
        0x0001c6dc:    2002        .       MOVS     r0,#2
        0x0001c6de:    f7fbfe58    ..X.    BL       getStackedReg ; 0x18392
        0x0001c6e2:    9008        ..      STR      r0,[sp,#0x20]
        0x0001c6e4:    4629        )F      MOV      r1,r5
        0x0001c6e6:    2003        .       MOVS     r0,#3
        0x0001c6e8:    f7fbfe53    ..S.    BL       getStackedReg ; 0x18392
        0x0001c6ec:    9009        ..      STR      r0,[sp,#0x24]
        0x0001c6ee:    4629        )F      MOV      r1,r5
        0x0001c6f0:    2004        .       MOVS     r0,#4
        0x0001c6f2:    f7fbfe4e    ..N.    BL       getStackedReg ; 0x18392
        0x0001c6f6:    900a        ..      STR      r0,[sp,#0x28]
        0x0001c6f8:    4629        )F      MOV      r1,r5
        0x0001c6fa:    2005        .       MOVS     r0,#5
        0x0001c6fc:    f7fbfe49    ..I.    BL       getStackedReg ; 0x18392
        0x0001c700:    900b        ..      STR      r0,[sp,#0x2c]
        0x0001c702:    4629        )F      MOV      r1,r5
        0x0001c704:    2006        .       MOVS     r0,#6
        0x0001c706:    f7fbfe44    ..D.    BL       getStackedReg ; 0x18392
        0x0001c70a:    900c        ..      STR      r0,[sp,#0x30]
        0x0001c70c:    4629        )F      MOV      r1,r5
        0x0001c70e:    2007        .       MOVS     r0,#7
        0x0001c710:    f7fbfe3f    ..?.    BL       getStackedReg ; 0x18392
        0x0001c714:    900d        ..      STR      r0,[sp,#0x34]
        0x0001c716:    4668        hF      MOV      r0,sp
        0x0001c718:    f7fdfd8b    ....    BL       am_hal_fault_status_get ; 0x1a232
        0x0001c71c:    a04a        J.      ADR      r0,{pc}+0x12c ; 0x1c848
        0x0001c71e:    f000fa17    ....    BL       am_util_stdio_printf ; 0x1cb50
        0x0001c722:    9906        ..      LDR      r1,[sp,#0x18]
        0x0001c724:    a04f        O.      ADR      r0,{pc}+0x140 ; 0x1c864
        0x0001c726:    f000fa13    ....    BL       am_util_stdio_printf ; 0x1cb50
        0x0001c72a:    9907        ..      LDR      r1,[sp,#0x1c]
        0x0001c72c:    a052        R.      ADR      r0,{pc}+0x14c ; 0x1c878
        0x0001c72e:    f000fa0f    ....    BL       am_util_stdio_printf ; 0x1cb50
        0x0001c732:    9908        ..      LDR      r1,[sp,#0x20]
        0x0001c734:    a055        U.      ADR      r0,{pc}+0x158 ; 0x1c88c
        0x0001c736:    f000fa0b    ....    BL       am_util_stdio_printf ; 0x1cb50
        0x0001c73a:    9909        ..      LDR      r1,[sp,#0x24]
        0x0001c73c:    a058        X.      ADR      r0,{pc}+0x164 ; 0x1c8a0
        0x0001c73e:    f000fa07    ....    BL       am_util_stdio_printf ; 0x1cb50
        0x0001c742:    990a        ..      LDR      r1,[sp,#0x28]
        0x0001c744:    a05b        [.      ADR      r0,{pc}+0x170 ; 0x1c8b4
        0x0001c746:    f000fa03    ....    BL       am_util_stdio_printf ; 0x1cb50
        0x0001c74a:    990b        ..      LDR      r1,[sp,#0x2c]
        0x0001c74c:    a05e        ^.      ADR      r0,{pc}+0x17c ; 0x1c8c8
        0x0001c74e:    f000f9ff    ....    BL       am_util_stdio_printf ; 0x1cb50
        0x0001c752:    990c        ..      LDR      r1,[sp,#0x30]
        0x0001c754:    a061        a.      ADR      r0,{pc}+0x188 ; 0x1c8dc
        0x0001c756:    f000f9fb    ....    BL       am_util_stdio_printf ; 0x1cb50
        0x0001c75a:    990d        ..      LDR      r1,[sp,#0x34]
        0x0001c75c:    a064        d.      ADR      r0,{pc}+0x194 ; 0x1c8f0
        0x0001c75e:    f000f9f7    ....    BL       am_util_stdio_printf ; 0x1cb50
        0x0001c762:    a068        h.      ADR      r0,{pc}+0x1a2 ; 0x1c904
        0x0001c764:    f000f9f4    ....    BL       am_util_stdio_printf ; 0x1cb50
        0x0001c768:    990e        ..      LDR      r1,[sp,#0x38]
        0x0001c76a:    a06c        l.      ADR      r0,{pc}+0x1b2 ; 0x1c91c
        0x0001c76c:    f000f9f0    ....    BL       am_util_stdio_printf ; 0x1cb50
        0x0001c770:    990f        ..      LDR      r1,[sp,#0x3c]
        0x0001c772:    a071        q.      ADR      r0,{pc}+0x1c6 ; 0x1c938
        0x0001c774:    f000f9ec    ....    BL       am_util_stdio_printf ; 0x1cb50
        0x0001c778:    f89d1044    ..D.    LDRB     r1,[sp,#0x44]
        0x0001c77c:    a078        x.      ADR      r0,{pc}+0x1e4 ; 0x1c960
        0x0001c77e:    f000f9e7    ....    BL       am_util_stdio_printf ; 0x1cb50
        0x0001c782:    f89d1045    ..E.    LDRB     r1,[sp,#0x45]
        0x0001c786:    a082        ..      ADR      r0,{pc}+0x20a ; 0x1c990
        0x0001c788:    f000f9e2    ....    BL       am_util_stdio_printf ; 0x1cb50
        0x0001c78c:    f8bd1046    ..F.    LDRH     r1,[sp,#0x46]
        0x0001c790:    a08a        ..      ADR      r0,{pc}+0x22c ; 0x1c9bc
        0x0001c792:    f000f9dd    ....    BL       am_util_stdio_printf ; 0x1cb50
        0x0001c796:    2480        .$      MOVS     r4,#0x80
        0x0001c798:    e037        7.      B        0x1c80a ; am_util_faultisr_collect_data + 410
        0x0001c79a:    f89d0045    ..E.    LDRB     r0,[sp,#0x45]
        0x0001c79e:    4020         @      ANDS     r0,r0,r4
        0x0001c7a0:    2810        .(      CMP      r0,#0x10
        0x0001c7a2:    d01b        ..      BEQ      0x1c7dc ; am_util_faultisr_collect_data + 364
        0x0001c7a4:    dc08        ..      BGT      0x1c7b8 ; am_util_faultisr_collect_data + 328
        0x0001c7a6:    2801        .(      CMP      r0,#1
        0x0001c7a8:    d028        (.      BEQ      0x1c7fc ; am_util_faultisr_collect_data + 396
        0x0001c7aa:    2802        .(      CMP      r0,#2
        0x0001c7ac:    d022        ".      BEQ      0x1c7f4 ; am_util_faultisr_collect_data + 388
        0x0001c7ae:    2804        .(      CMP      r0,#4
        0x0001c7b0:    d01c        ..      BEQ      0x1c7ec ; am_util_faultisr_collect_data + 380
        0x0001c7b2:    2808        .(      CMP      r0,#8
        0x0001c7b4:    d126        &.      BNE      0x1c804 ; am_util_faultisr_collect_data + 404
        0x0001c7b6:    e015        ..      B        0x1c7e4 ; am_util_faultisr_collect_data + 372
        0x0001c7b8:    2820         (      CMP      r0,#0x20
        0x0001c7ba:    d00b        ..      BEQ      0x1c7d4 ; am_util_faultisr_collect_data + 356
        0x0001c7bc:    2840        @(      CMP      r0,#0x40
        0x0001c7be:    d005        ..      BEQ      0x1c7cc ; am_util_faultisr_collect_data + 348
        0x0001c7c0:    2880        .(      CMP      r0,#0x80
        0x0001c7c2:    d11f        ..      BNE      0x1c804 ; am_util_faultisr_collect_data + 404
        0x0001c7c4:    a088        ..      ADR      r0,{pc}+0x224 ; 0x1c9e8
        0x0001c7c6:    f000f9c3    ....    BL       am_util_stdio_printf ; 0x1cb50
        0x0001c7ca:    e01c        ..      B        0x1c806 ; am_util_faultisr_collect_data + 406
        0x0001c7cc:    a08e        ..      ADR      r0,{pc}+0x23c ; 0x1ca08
        0x0001c7ce:    f000f9bf    ....    BL       am_util_stdio_printf ; 0x1cb50
        0x0001c7d2:    e018        ..      B        0x1c806 ; am_util_faultisr_collect_data + 406
        0x0001c7d4:    a094        ..      ADR      r0,{pc}+0x254 ; 0x1ca28
        0x0001c7d6:    f000f9bb    ....    BL       am_util_stdio_printf ; 0x1cb50
        0x0001c7da:    e014        ..      B        0x1c806 ; am_util_faultisr_collect_data + 406
        0x0001c7dc:    a099        ..      ADR      r0,{pc}+0x268 ; 0x1ca44
        0x0001c7de:    f000f9b7    ....    BL       am_util_stdio_printf ; 0x1cb50
        0x0001c7e2:    e010        ..      B        0x1c806 ; am_util_faultisr_collect_data + 406
        0x0001c7e4:    a09e        ..      ADR      r0,{pc}+0x27c ; 0x1ca60
        0x0001c7e6:    f000f9b3    ....    BL       am_util_stdio_printf ; 0x1cb50
        0x0001c7ea:    e00c        ..      B        0x1c806 ; am_util_faultisr_collect_data + 406
        0x0001c7ec:    a0a4        ..      ADR      r0,{pc}+0x294 ; 0x1ca80
        0x0001c7ee:    f000f9af    ....    BL       am_util_stdio_printf ; 0x1cb50
        0x0001c7f2:    e008        ..      B        0x1c806 ; am_util_faultisr_collect_data + 406
        0x0001c7f4:    a0aa        ..      ADR      r0,{pc}+0x2ac ; 0x1caa0
        0x0001c7f6:    f000f9ab    ....    BL       am_util_stdio_printf ; 0x1cb50
        0x0001c7fa:    e004        ..      B        0x1c806 ; am_util_faultisr_collect_data + 406
        0x0001c7fc:    a0b0        ..      ADR      r0,{pc}+0x2c4 ; 0x1cac0
        0x0001c7fe:    f000f9a7    ....    BL       am_util_stdio_printf ; 0x1cb50
        0x0001c802:    e000        ..      B        0x1c806 ; am_util_faultisr_collect_data + 406
        0x0001c804:    bf00        ..      NOP      
        0x0001c806:    bf00        ..      NOP      
        0x0001c808:    0864        d.      LSRS     r4,r4,#1
        0x0001c80a:    2c00        .,      CMP      r4,#0
        0x0001c80c:    d1c5        ..      BNE      0x1c79a ; am_util_faultisr_collect_data + 298
        0x0001c80e:    a0b3        ..      ADR      r0,{pc}+0x2ce ; 0x1cadc
        0x0001c810:    f000f99e    ....    BL       am_util_stdio_printf ; 0x1cb50
        0x0001c814:    f89d0000    ....    LDRB     r0,[sp,#0]
        0x0001c818:    b118        ..      CBZ      r0,0x1c822 ; am_util_faultisr_collect_data + 434
        0x0001c81a:    a0b5        ..      ADR      r0,{pc}+0x2d6 ; 0x1caf0
        0x0001c81c:    9901        ..      LDR      r1,[sp,#4]
        0x0001c81e:    f000f997    ....    BL       am_util_stdio_printf ; 0x1cb50
        0x0001c822:    f89d0008    ....    LDRB     r0,[sp,#8]
        0x0001c826:    b118        ..      CBZ      r0,0x1c830 ; am_util_faultisr_collect_data + 448
        0x0001c828:    a0b9        ..      ADR      r0,{pc}+0x2e8 ; 0x1cb10
        0x0001c82a:    9903        ..      LDR      r1,[sp,#0xc]
        0x0001c82c:    f000f990    ....    BL       am_util_stdio_printf ; 0x1cb50
        0x0001c830:    f89d0010    ....    LDRB     r0,[sp,#0x10]
        0x0001c834:    b118        ..      CBZ      r0,0x1c83e ; am_util_faultisr_collect_data + 462
        0x0001c836:    a0be        ..      ADR      r0,{pc}+0x2fa ; 0x1cb30
        0x0001c838:    9905        ..      LDR      r1,[sp,#0x14]
        0x0001c83a:    f000f989    ....    BL       am_util_stdio_printf ; 0x1cb50
        0x0001c83e:    bf00        ..      NOP      
        0x0001c840:    bf00        ..      NOP      
        0x0001c842:    e7fe        ..      B        0x1c842 ; am_util_faultisr_collect_data + 466
    $d
        0x0001c844:    e000ed28    (...    DCD    3758157096
        0x0001c848:    64726148    Hard    DCD    1685217608
        0x0001c84c:    75614620     Fau    DCD    1969309216
        0x0001c850:    7320746c    lt s    DCD    1931506796
        0x0001c854:    6b636174    tack    DCD    1801675124
        0x0001c858:    64206465    ed d    DCD    1679844453
        0x0001c85c:    3a617461    ata:    DCD    979465313
        0x0001c860:    0000000a    ....    DCD    10
        0x0001c864:    20202020            DCD    538976288
        0x0001c868:    20203052    R0      DCD    538980434
        0x0001c86c:    7830203d    = 0x    DCD    2016419901
        0x0001c870:    58383025    %08X    DCD    1480077349
        0x0001c874:    0000000a    ....    DCD    10
        0x0001c878:    20202020            DCD    538976288
        0x0001c87c:    20203152    R1      DCD    538980690
        0x0001c880:    7830203d    = 0x    DCD    2016419901
        0x0001c884:    58383025    %08X    DCD    1480077349
        0x0001c888:    0000000a    ....    DCD    10
        0x0001c88c:    20202020            DCD    538976288
        0x0001c890:    20203252    R2      DCD    538980946
        0x0001c894:    7830203d    = 0x    DCD    2016419901
        0x0001c898:    58383025    %08X    DCD    1480077349
        0x0001c89c:    0000000a    ....    DCD    10
        0x0001c8a0:    20202020            DCD    538976288
        0x0001c8a4:    20203352    R3      DCD    538981202
        0x0001c8a8:    7830203d    = 0x    DCD    2016419901
        0x0001c8ac:    58383025    %08X    DCD    1480077349
        0x0001c8b0:    0000000a    ....    DCD    10
        0x0001c8b4:    20202020            DCD    538976288
        0x0001c8b8:    20323152    R12     DCD    540160338
        0x0001c8bc:    7830203d    = 0x    DCD    2016419901
        0x0001c8c0:    58383025    %08X    DCD    1480077349
        0x0001c8c4:    0000000a    ....    DCD    10
        0x0001c8c8:    20202020            DCD    538976288
        0x0001c8cc:    2020524c    LR      DCD    538989132
        0x0001c8d0:    7830203d    = 0x    DCD    2016419901
        0x0001c8d4:    58383025    %08X    DCD    1480077349
        0x0001c8d8:    0000000a    ....    DCD    10
        0x0001c8dc:    20202020            DCD    538976288
        0x0001c8e0:    20204350    PC      DCD    538985296
        0x0001c8e4:    7830203d    = 0x    DCD    2016419901
        0x0001c8e8:    58383025    %08X    DCD    1480077349
        0x0001c8ec:    0000000a    ....    DCD    10
        0x0001c8f0:    20202020            DCD    538976288
        0x0001c8f4:    20525350    PSR     DCD    542266192
        0x0001c8f8:    7830203d    = 0x    DCD    2016419901
        0x0001c8fc:    58383025    %08X    DCD    1480077349
        0x0001c900:    0000000a    ....    DCD    10
        0x0001c904:    6568744f    Othe    DCD    1701344335
        0x0001c908:    61482072    r Ha    DCD    1632116850
        0x0001c90c:    46206472    rd F    DCD    1176527986
        0x0001c910:    746c7561    ault    DCD    1953264993
        0x0001c914:    74616420     dat    DCD    1952539680
        0x0001c918:    000a3a61    a:..    DCD    670305
        0x0001c91c:    20202020            DCD    538976288
        0x0001c920:    6c756146    Faul    DCD    1819631942
        0x0001c924:    64612074    t ad    DCD    1684086900
        0x0001c928:    73657264    dres    DCD    1936028260
        0x0001c92c:    203d2073    s =     DCD    540876915
        0x0001c930:    30257830    0x%0    DCD    807761968
        0x0001c934:    000a5838    8X..    DCD    677944
        0x0001c938:    20202020            DCD    538976288
        0x0001c93c:    52414642    BFAR    DCD    1380009538
        0x0001c940:    75422820     (Bu    DCD    1967269920
        0x0001c944:    61462073    s Fa    DCD    1631985779
        0x0001c948:    20746c75    ult     DCD    544500853
        0x0001c94c:    72646441    Addr    DCD    1919181889
        0x0001c950:    67655220     Reg    DCD    1734693408
        0x0001c954:    203d2029    ) =     DCD    540876841
        0x0001c958:    30257830    0x%0    DCD    807761968
        0x0001c95c:    000a5838    8X..    DCD    677944
        0x0001c960:    20202020            DCD    538976288
        0x0001c964:    52534d4d    MMSR    DCD    1381190989
        0x0001c968:    654d2820     (Me    DCD    1699555360
        0x0001c96c:    674d206d    m Mg    DCD    1733107821
        0x0001c970:    4620746d    mt F    DCD    1176532077
        0x0001c974:    746c7561    ault    DCD    1953264993
        0x0001c978:    61745320     Sta    DCD    1635013408
        0x0001c97c:    20737574    tus     DCD    544437620
        0x0001c980:    29676552    Reg)    DCD    694642002
        0x0001c984:    30203d20     = 0    DCD    807419168
        0x0001c988:    32302578    x%02    DCD    842016120
        0x0001c98c:    00000a58    X...    DCD    2648
        0x0001c990:    20202020            DCD    538976288
        0x0001c994:    52534642    BFSR    DCD    1381189186
        0x0001c998:    75422820     (Bu    DCD    1967269920
        0x0001c99c:    61462073    s Fa    DCD    1631985779
        0x0001c9a0:    20746c75    ult     DCD    544500853
        0x0001c9a4:    74617453    Stat    DCD    1952543827
        0x0001c9a8:    52207375    us R    DCD    1377858421
        0x0001c9ac:    20296765    eg)     DCD    539584357
        0x0001c9b0:    7830203d    = 0x    DCD    2016419901
        0x0001c9b4:    58323025    %02X    DCD    1479684133
        0x0001c9b8:    0000000a    ....    DCD    10
        0x0001c9bc:    20202020            DCD    538976288
        0x0001c9c0:    52534655    UFSR    DCD    1381189205
        0x0001c9c4:    73552820     (Us    DCD    1934960672
        0x0001c9c8:    20656761    age     DCD    543516513
        0x0001c9cc:    6c756146    Faul    DCD    1819631942
        0x0001c9d0:    74532074    t St    DCD    1951604852
        0x0001c9d4:    73757461    atus    DCD    1937077345
        0x0001c9d8:    67655220     Reg    DCD    1734693408
        0x0001c9dc:    203d2029    ) =     DCD    540876841
        0x0001c9e0:    30257830    0x%0    DCD    807761968
        0x0001c9e4:    000a5834    4X..    DCD    677940
        0x0001c9e8:    20202020            DCD    538976288
        0x0001c9ec:    20202020            DCD    538976288
        0x0001c9f0:    52534642    BFSR    DCD    1381189186
        0x0001c9f4:    74696220     bit    DCD    1953063456
        0x0001c9f8:    42203a37    7: B    DCD    1109408311
        0x0001c9fc:    56524146    FARV    DCD    1448231238
        0x0001ca00:    44494c41    ALID    DCD    1145654337
        0x0001ca04:    0000000a    ....    DCD    10
        0x0001ca08:    20202020            DCD    538976288
        0x0001ca0c:    20202020            DCD    538976288
        0x0001ca10:    52534642    BFSR    DCD    1381189186
        0x0001ca14:    74696220     bit    DCD    1953063456
        0x0001ca18:    52203a36    6: R    DCD    1377843766
        0x0001ca1c:    52455345    ESER    DCD    1380275013
        0x0001ca20:    0a444556    VED.    DCD    172246358
        0x0001ca24:    00000000    ....    DCD    0
        0x0001ca28:    20202020            DCD    538976288
        0x0001ca2c:    20202020            DCD    538976288
        0x0001ca30:    52534642    BFSR    DCD    1381189186
        0x0001ca34:    74696220     bit    DCD    1953063456
        0x0001ca38:    4c203a35    5: L    DCD    1277180469
        0x0001ca3c:    52455053    SPER    DCD    1380274259
        0x0001ca40:    00000a52    R...    DCD    2642
        0x0001ca44:    20202020            DCD    538976288
        0x0001ca48:    20202020            DCD    538976288
        0x0001ca4c:    52534642    BFSR    DCD    1381189186
        0x0001ca50:    74696220     bit    DCD    1953063456
        0x0001ca54:    53203a34    4: S    DCD    1394620980
        0x0001ca58:    52454b54    TKER    DCD    1380272980
        0x0001ca5c:    00000a52    R...    DCD    2642
        0x0001ca60:    20202020            DCD    538976288
        0x0001ca64:    20202020            DCD    538976288
        0x0001ca68:    52534642    BFSR    DCD    1381189186
        0x0001ca6c:    74696220     bit    DCD    1953063456
        0x0001ca70:    55203a33    3: U    DCD    1428175411
        0x0001ca74:    4b54534e    NSTK    DCD    1263817550
        0x0001ca78:    0a525245    ERR.    DCD    173167173
        0x0001ca7c:    00000000    ....    DCD    0
        0x0001ca80:    20202020            DCD    538976288
        0x0001ca84:    20202020            DCD    538976288
        0x0001ca88:    52534642    BFSR    DCD    1381189186
        0x0001ca8c:    74696220     bit    DCD    1953063456
        0x0001ca90:    49203a32    2: I    DCD    1226848818
        0x0001ca94:    4552504d    MPRE    DCD    1163022413
        0x0001ca98:    45534943    CISE    DCD    1163086147
        0x0001ca9c:    000a5252    RR..    DCD    676434
        0x0001caa0:    20202020            DCD    538976288
        0x0001caa4:    20202020            DCD    538976288
        0x0001caa8:    52534642    BFSR    DCD    1381189186
        0x0001caac:    74696220     bit    DCD    1953063456
        0x0001cab0:    50203a31    1: P    DCD    1344289329
        0x0001cab4:    49434552    RECI    DCD    1229145426
        0x0001cab8:    52454553    SEER    DCD    1380271443
        0x0001cabc:    00000a52    R...    DCD    2642
        0x0001cac0:    20202020            DCD    538976288
        0x0001cac4:    20202020            DCD    538976288
        0x0001cac8:    52534642    BFSR    DCD    1381189186
        0x0001cacc:    74696220     bit    DCD    1953063456
        0x0001cad0:    49203a30    0: I    DCD    1226848816
        0x0001cad4:    45535542    BUSE    DCD    1163089218
        0x0001cad8:    000a5252    RR..    DCD    676434
        0x0001cadc:    2055434d    MCU     DCD    542458701
        0x0001cae0:    6c756146    Faul    DCD    1819631942
        0x0001cae4:    61642074    t da    DCD    1633951860
        0x0001cae8:    0a3a6174    ta:.    DCD    171598196
        0x0001caec:    00000000    ....    DCD    0
        0x0001caf0:    49202020       I    DCD    1226842144
        0x0001caf4:    45444f43    CODE    DCD    1162104643
        0x0001caf8:    75614620     Fau    DCD    1969309216
        0x0001cafc:    4120746c    lt A    DCD    1092645996
        0x0001cb00:    65726464    ddre    DCD    1701995620
        0x0001cb04:    203a7373    ss:     DCD    540701555
        0x0001cb08:    30257830    0x%0    DCD    807761968
        0x0001cb0c:    000a5838    8X..    DCD    677944
        0x0001cb10:    44202020       D    DCD    1142956064
        0x0001cb14:    45444f43    CODE    DCD    1162104643
        0x0001cb18:    75614620     Fau    DCD    1969309216
        0x0001cb1c:    4120746c    lt A    DCD    1092645996
        0x0001cb20:    65726464    ddre    DCD    1701995620
        0x0001cb24:    203a7373    ss:     DCD    540701555
        0x0001cb28:    30257830    0x%0    DCD    807761968
        0x0001cb2c:    000a5838    8X..    DCD    677944
        0x0001cb30:    53202020       S    DCD    1394614304
        0x0001cb34:    46205359    YS F    DCD    1176523609
        0x0001cb38:    746c7561    ault    DCD    1953264993
        0x0001cb3c:    64644120     Add    DCD    1684291872
        0x0001cb40:    73736572    ress    DCD    1936942450
        0x0001cb44:    7830203a    : 0x    DCD    2016419898
        0x0001cb48:    58383025    %08X    DCD    1480077349
        0x0001cb4c:    0000000a    ....    DCD    10
    $t
    i.am_util_stdio_printf
    am_util_stdio_printf
        0x0001cb50:    b40f        ..      PUSH     {r0-r3}
        0x0001cb52:    b538        8.      PUSH     {r3-r5,lr}
        0x0001cb54:    480b        .H      LDR      r0,[pc,#44] ; [0x1cb84] = 0x1000004c
        0x0001cb56:    6800        .h      LDR      r0,[r0,#0]
        0x0001cb58:    b918        ..      CBNZ     r0,0x1cb62 ; am_util_stdio_printf + 18
        0x0001cb5a:    2000        .       MOVS     r0,#0
        0x0001cb5c:    bc38        8.      POP      {r3-r5}
        0x0001cb5e:    f85dfb14    ]...    LDR      pc,[sp],#0x14
        0x0001cb62:    a805        ..      ADD      r0,sp,#0x14
        0x0001cb64:    9000        ..      STR      r0,[sp,#0]
        0x0001cb66:    4808        .H      LDR      r0,[pc,#32] ; [0x1cb88] = 0x100056dc
        0x0001cb68:    9a00        ..      LDR      r2,[sp,#0]
        0x0001cb6a:    9904        ..      LDR      r1,[sp,#0x10]
        0x0001cb6c:    f000f824    ..$.    BL       am_util_stdio_vsprintf ; 0x1cbb8
        0x0001cb70:    4604        .F      MOV      r4,r0
        0x0001cb72:    2000        .       MOVS     r0,#0
        0x0001cb74:    9000        ..      STR      r0,[sp,#0]
        0x0001cb76:    4804        .H      LDR      r0,[pc,#16] ; [0x1cb88] = 0x100056dc
        0x0001cb78:    4902        .I      LDR      r1,[pc,#8] ; [0x1cb84] = 0x1000004c
        0x0001cb7a:    6809        .h      LDR      r1,[r1,#0]
        0x0001cb7c:    4788        .G      BLX      r1
        0x0001cb7e:    4620         F      MOV      r0,r4
        0x0001cb80:    e7ec        ..      B        0x1cb5c ; am_util_stdio_printf + 12
    $d
        0x0001cb82:    0000        ..      DCW    0
        0x0001cb84:    1000004c    L...    DCD    268435532
        0x0001cb88:    100056dc    .V..    DCD    268457692
    $t
    i.am_util_stdio_printf_init
    am_util_stdio_printf_init
        0x0001cb8c:    4901        .I      LDR      r1,[pc,#4] ; [0x1cb94] = 0x1000004c
        0x0001cb8e:    6008        .`      STR      r0,[r1,#0]
        0x0001cb90:    4770        pG      BX       lr
    $d
        0x0001cb92:    0000        ..      DCW    0
        0x0001cb94:    1000004c    L...    DCD    268435532
    $t
    i.am_util_stdio_terminal_clear
    am_util_stdio_terminal_clear
        0x0001cb98:    b510        ..      PUSH     {r4,lr}
        0x0001cb9a:    a002        ..      ADR      r0,{pc}+0xa ; 0x1cba4
        0x0001cb9c:    f7ffffd8    ....    BL       am_util_stdio_printf ; 0x1cb50
        0x0001cba0:    bd10        ..      POP      {r4,pc}
    $d
        0x0001cba2:    0000        ..      DCW    0
        0x0001cba4:    0a0a0a0a    ....    DCD    168430090
        0x0001cba8:    0a0a0a0a    ....    DCD    168430090
        0x0001cbac:    0a0a0a0a    ....    DCD    168430090
        0x0001cbb0:    0a0a0a0a    ....    DCD    168430090
        0x0001cbb4:    00000a0a    ....    DCD    2570
    $t
    i.am_util_stdio_vsprintf
    am_util_stdio_vsprintf
        0x0001cbb8:    e92d4ff7    -..O    PUSH     {r0-r2,r4-r11,lr}
        0x0001cbbc:    ed2d8b02    -...    VPUSH    {d8}
        0x0001cbc0:    b08a        ..      SUB      sp,sp,#0x28
        0x0001cbc2:    4604        .F      MOV      r4,r0
        0x0001cbc4:    460d        .F      MOV      r5,r1
        0x0001cbc6:    f04f0900    O...    MOV      r9,#0
        0x0001cbca:    2000        .       MOVS     r0,#0
        0x0001cbcc:    9000        ..      STR      r0,[sp,#0]
        0x0001cbce:    e1b9        ..      B        0x1cf44 ; am_util_stdio_vsprintf + 908
        0x0001cbd0:    2006        .       MOVS     r0,#6
        0x0001cbd2:    9006        ..      STR      r0,[sp,#0x18]
        0x0001cbd4:    7828        (x      LDRB     r0,[r5,#0]
        0x0001cbd6:    2825        %(      CMP      r0,#0x25
        0x0001cbd8:    d012        ..      BEQ      0x1cc00 ; am_util_stdio_vsprintf + 72
        0x0001cbda:    b16c        l.      CBZ      r4,0x1cbf8 ; am_util_stdio_vsprintf + 64
        0x0001cbdc:    7828        (x      LDRB     r0,[r5,#0]
        0x0001cbde:    280a        .(      CMP      r0,#0xa
        0x0001cbe0:    d107        ..      BNE      0x1cbf2 ; am_util_stdio_vsprintf + 58
        0x0001cbe2:    48de        .H      LDR      r0,[pc,#888] ; [0x1cf5c] = 0x10000050
        0x0001cbe4:    7800        .x      LDRB     r0,[r0,#0]
        0x0001cbe6:    b120         .      CBZ      r0,0x1cbf2 ; am_util_stdio_vsprintf + 58
        0x0001cbe8:    200d        .       MOVS     r0,#0xd
        0x0001cbea:    f8040b01    ....    STRB     r0,[r4],#1
        0x0001cbee:    f1090901    ....    ADD      r9,r9,#1
        0x0001cbf2:    7828        (x      LDRB     r0,[r5,#0]
        0x0001cbf4:    f8040b01    ....    STRB     r0,[r4],#1
        0x0001cbf8:    1c6d        m.      ADDS     r5,r5,#1
        0x0001cbfa:    f1090901    ....    ADD      r9,r9,#1
        0x0001cbfe:    e1a1        ..      B        0x1cf44 ; am_util_stdio_vsprintf + 908
        0x0001cc00:    1c6d        m.      ADDS     r5,r5,#1
        0x0001cc02:    2000        .       MOVS     r0,#0
        0x0001cc04:    9002        ..      STR      r0,[sp,#8]
        0x0001cc06:    9003        ..      STR      r0,[sp,#0xc]
        0x0001cc08:    2020                MOVS     r0,#0x20
        0x0001cc0a:    9004        ..      STR      r0,[sp,#0x10]
        0x0001cc0c:    7828        (x      LDRB     r0,[r5,#0]
        0x0001cc0e:    2830        0(      CMP      r0,#0x30
        0x0001cc10:    d101        ..      BNE      0x1cc16 ; am_util_stdio_vsprintf + 94
        0x0001cc12:    9004        ..      STR      r0,[sp,#0x10]
        0x0001cc14:    1c6d        m.      ADDS     r5,r5,#1
        0x0001cc16:    a907        ..      ADD      r1,sp,#0x1c
        0x0001cc18:    4628        (F      MOV      r0,r5
        0x0001cc1a:    f000fa91    ....    BL       decstr_to_int ; 0x1d140
        0x0001cc1e:    4606        .F      MOV      r6,r0
        0x0001cc20:    9807        ..      LDR      r0,[sp,#0x1c]
        0x0001cc22:    4405        .D      ADD      r5,r5,r0
        0x0001cc24:    7828        (x      LDRB     r0,[r5,#0]
        0x0001cc26:    2873        s(      CMP      r0,#0x73
        0x0001cc28:    d002        ..      BEQ      0x1cc30 ; am_util_stdio_vsprintf + 120
        0x0001cc2a:    2e00        ..      CMP      r6,#0
        0x0001cc2c:    da00        ..      BGE      0x1cc30 ; am_util_stdio_vsprintf + 120
        0x0001cc2e:    4276        vB      RSBS     r6,r6,#0
        0x0001cc30:    7828        (x      LDRB     r0,[r5,#0]
        0x0001cc32:    282e        .(      CMP      r0,#0x2e
        0x0001cc34:    d107        ..      BNE      0x1cc46 ; am_util_stdio_vsprintf + 142
        0x0001cc36:    1c6d        m.      ADDS     r5,r5,#1
        0x0001cc38:    a907        ..      ADD      r1,sp,#0x1c
        0x0001cc3a:    4628        (F      MOV      r0,r5
        0x0001cc3c:    f000fa80    ....    BL       decstr_to_int ; 0x1d140
        0x0001cc40:    9006        ..      STR      r0,[sp,#0x18]
        0x0001cc42:    9807        ..      LDR      r0,[sp,#0x1c]
        0x0001cc44:    4405        .D      ADD      r5,r5,r0
        0x0001cc46:    7828        (x      LDRB     r0,[r5,#0]
        0x0001cc48:    286c        l(      CMP      r0,#0x6c
        0x0001cc4a:    d106        ..      BNE      0x1cc5a ; am_util_stdio_vsprintf + 162
        0x0001cc4c:    1c6d        m.      ADDS     r5,r5,#1
        0x0001cc4e:    7828        (x      LDRB     r0,[r5,#0]
        0x0001cc50:    286c        l(      CMP      r0,#0x6c
        0x0001cc52:    d102        ..      BNE      0x1cc5a ; am_util_stdio_vsprintf + 162
        0x0001cc54:    1c6d        m.      ADDS     r5,r5,#1
        0x0001cc56:    2001        .       MOVS     r0,#1
        0x0001cc58:    9002        ..      STR      r0,[sp,#8]
        0x0001cc5a:    7828        (x      LDRB     r0,[r5,#0]
        0x0001cc5c:    2866        f(      CMP      r0,#0x66
        0x0001cc5e:    d06f        o.      BEQ      0x1cd40 ; am_util_stdio_vsprintf + 392
        0x0001cc60:    dc08        ..      BGT      0x1cc74 ; am_util_stdio_vsprintf + 188
        0x0001cc62:    2846        F(      CMP      r0,#0x46
        0x0001cc64:    d06d        m.      BEQ      0x1cd42 ; am_util_stdio_vsprintf + 394
        0x0001cc66:    2858        X(      CMP      r0,#0x58
        0x0001cc68:    d05c        \.      BEQ      0x1cd24 ; am_util_stdio_vsprintf + 364
        0x0001cc6a:    2863        c(      CMP      r0,#0x63
        0x0001cc6c:    d00b        ..      BEQ      0x1cc86 ; am_util_stdio_vsprintf + 206
        0x0001cc6e:    2864        d(      CMP      r0,#0x64
        0x0001cc70:    d168        h.      BNE      0x1cd44 ; am_util_stdio_vsprintf + 396
        0x0001cc72:    e0c3        ..      B        0x1cdfc ; am_util_stdio_vsprintf + 580
        0x0001cc74:    2869        i(      CMP      r0,#0x69
        0x0001cc76:    d07d        }.      BEQ      0x1cd74 ; am_util_stdio_vsprintf + 444
        0x0001cc78:    2873        s(      CMP      r0,#0x73
        0x0001cc7a:    d011        ..      BEQ      0x1cca0 ; am_util_stdio_vsprintf + 232
        0x0001cc7c:    2875        u(      CMP      r0,#0x75
        0x0001cc7e:    d07a        z.      BEQ      0x1cd76 ; am_util_stdio_vsprintf + 446
        0x0001cc80:    2878        x(      CMP      r0,#0x78
        0x0001cc82:    d1f5        ..      BNE      0x1cc70 ; am_util_stdio_vsprintf + 184
        0x0001cc84:    e04b        K.      B        0x1cd1e ; am_util_stdio_vsprintf + 358
        0x0001cc86:    980e        ..      LDR      r0,[sp,#0x38]
        0x0001cc88:    f8101b04    ....    LDRB     r1,[r0],#4
        0x0001cc8c:    900e        ..      STR      r0,[sp,#0x38]
        0x0001cc8e:    b2c8        ..      UXTB     r0,r1
        0x0001cc90:    9005        ..      STR      r0,[sp,#0x14]
        0x0001cc92:    b114        ..      CBZ      r4,0x1cc9a ; am_util_stdio_vsprintf + 226
        0x0001cc94:    9805        ..      LDR      r0,[sp,#0x14]
        0x0001cc96:    f8040b01    ....    STRB     r0,[r4],#1
        0x0001cc9a:    f1090901    ....    ADD      r9,r9,#1
        0x0001cc9e:    e14e        N.      B        0x1cf3e ; am_util_stdio_vsprintf + 902
        0x0001cca0:    980e        ..      LDR      r0,[sp,#0x38]
        0x0001cca2:    f850bb04    P...    LDR      r11,[r0],#4
        0x0001cca6:    900e        ..      STR      r0,[sp,#0x38]
        0x0001cca8:    4658        XF      MOV      r0,r11
        0x0001ccaa:    f001fa77    ..w.    BL       simple_strlen ; 0x1e19c
        0x0001ccae:    9000        ..      STR      r0,[sp,#0]
        0x0001ccb0:    2e00        ..      CMP      r6,#0
        0x0001ccb2:    dd11        ..      BLE      0x1ccd8 ; am_util_stdio_vsprintf + 288
        0x0001ccb4:    9800        ..      LDR      r0,[sp,#0]
        0x0001ccb6:    42b0        .B      CMP      r0,r6
        0x0001ccb8:    d20e        ..      BCS      0x1ccd8 ; am_util_stdio_vsprintf + 288
        0x0001ccba:    9800        ..      LDR      r0,[sp,#0]
        0x0001ccbc:    1a36        6.      SUBS     r6,r6,r0
        0x0001ccbe:    4632        2F      MOV      r2,r6
        0x0001ccc0:    4620         F      MOV      r0,r4
        0x0001ccc2:    9904        ..      LDR      r1,[sp,#0x10]
        0x0001ccc4:    f001f9b6    ....    BL       padbuffer ; 0x1e034
        0x0001ccc8:    4606        .F      MOV      r6,r0
        0x0001ccca:    b10c        ..      CBZ      r4,0x1ccd0 ; am_util_stdio_vsprintf + 280
        0x0001cccc:    4630        0F      MOV      r0,r6
        0x0001ccce:    e000        ..      B        0x1ccd2 ; am_util_stdio_vsprintf + 282
        0x0001ccd0:    2000        .       MOVS     r0,#0
        0x0001ccd2:    4404        .D      ADD      r4,r4,r0
        0x0001ccd4:    44b1        .D      ADD      r9,r9,r6
        0x0001ccd6:    2600        .&      MOVS     r6,#0
        0x0001ccd8:    e008        ..      B        0x1ccec ; am_util_stdio_vsprintf + 308
        0x0001ccda:    b11c        ..      CBZ      r4,0x1cce4 ; am_util_stdio_vsprintf + 300
        0x0001ccdc:    f89b0000    ....    LDRB     r0,[r11,#0]
        0x0001cce0:    f8040b01    ....    STRB     r0,[r4],#1
        0x0001cce4:    f10b0b01    ....    ADD      r11,r11,#1
        0x0001cce8:    f1090901    ....    ADD      r9,r9,#1
        0x0001ccec:    f89b0000    ....    LDRB     r0,[r11,#0]
        0x0001ccf0:    2800        .(      CMP      r0,#0
        0x0001ccf2:    d1f2        ..      BNE      0x1ccda ; am_util_stdio_vsprintf + 290
        0x0001ccf4:    b196        ..      CBZ      r6,0x1cd1c ; am_util_stdio_vsprintf + 356
        0x0001ccf6:    4276        vB      RSBS     r6,r6,#0
        0x0001ccf8:    9800        ..      LDR      r0,[sp,#0]
        0x0001ccfa:    42b0        .B      CMP      r0,r6
        0x0001ccfc:    d20e        ..      BCS      0x1cd1c ; am_util_stdio_vsprintf + 356
        0x0001ccfe:    9800        ..      LDR      r0,[sp,#0]
        0x0001cd00:    1a36        6.      SUBS     r6,r6,r0
        0x0001cd02:    4632        2F      MOV      r2,r6
        0x0001cd04:    4620         F      MOV      r0,r4
        0x0001cd06:    9904        ..      LDR      r1,[sp,#0x10]
        0x0001cd08:    f001f994    ....    BL       padbuffer ; 0x1e034
        0x0001cd0c:    4606        .F      MOV      r6,r0
        0x0001cd0e:    b10c        ..      CBZ      r4,0x1cd14 ; am_util_stdio_vsprintf + 348
        0x0001cd10:    4630        0F      MOV      r0,r6
        0x0001cd12:    e000        ..      B        0x1cd16 ; am_util_stdio_vsprintf + 350
        0x0001cd14:    2000        .       MOVS     r0,#0
        0x0001cd16:    4404        .D      ADD      r4,r4,r0
        0x0001cd18:    44b1        .D      ADD      r9,r9,r6
        0x0001cd1a:    2600        .&      MOVS     r6,#0
        0x0001cd1c:    e10f        ..      B        0x1cf3e ; am_util_stdio_vsprintf + 902
        0x0001cd1e:    2001        .       MOVS     r0,#1
        0x0001cd20:    9003        ..      STR      r0,[sp,#0xc]
        0x0001cd22:    bf00        ..      NOP      
        0x0001cd24:    9802        ..      LDR      r0,[sp,#8]
        0x0001cd26:    b170        p.      CBZ      r0,0x1cd46 ; am_util_stdio_vsprintf + 398
        0x0001cd28:    980e        ..      LDR      r0,[sp,#0x38]
        0x0001cd2a:    1dc0        ..      ADDS     r0,r0,#7
        0x0001cd2c:    f0200007     ...    BIC      r0,r0,#7
        0x0001cd30:    4601        .F      MOV      r1,r0
        0x0001cd32:    900e        ..      STR      r0,[sp,#0x38]
        0x0001cd34:    6800        .h      LDR      r0,[r0,#0]
        0x0001cd36:    6849        Ih      LDR      r1,[r1,#4]
        0x0001cd38:    9a0e        ..      LDR      r2,[sp,#0x38]
        0x0001cd3a:    3208        .2      ADDS     r2,r2,#8
        0x0001cd3c:    920e        ..      STR      r2,[sp,#0x38]
        0x0001cd3e:    e008        ..      B        0x1cd52 ; am_util_stdio_vsprintf + 410
        0x0001cd40:    e0c3        ..      B        0x1ceca ; am_util_stdio_vsprintf + 786
        0x0001cd42:    e0c3        ..      B        0x1cecc ; am_util_stdio_vsprintf + 788
        0x0001cd44:    e0f4        ..      B        0x1cf30 ; am_util_stdio_vsprintf + 888
        0x0001cd46:    980e        ..      LDR      r0,[sp,#0x38]
        0x0001cd48:    6800        .h      LDR      r0,[r0,#0]
        0x0001cd4a:    990e        ..      LDR      r1,[sp,#0x38]
        0x0001cd4c:    1d09        ..      ADDS     r1,r1,#4
        0x0001cd4e:    910e        ..      STR      r1,[sp,#0x38]
        0x0001cd50:    2100        .!      MOVS     r1,#0
        0x0001cd52:    4607        .F      MOV      r7,r0
        0x0001cd54:    4688        .F      MOV      r8,r1
        0x0001cd56:    b19e        ..      CBZ      r6,0x1cd80 ; am_util_stdio_vsprintf + 456
        0x0001cd58:    4638        8F      MOV      r0,r7
        0x0001cd5a:    4641        AF      MOV      r1,r8
        0x0001cd5c:    f001f921    ..!.    BL       ndigits_in_hex ; 0x1dfa2
        0x0001cd60:    1a36        6.      SUBS     r6,r6,r0
        0x0001cd62:    4632        2F      MOV      r2,r6
        0x0001cd64:    4620         F      MOV      r0,r4
        0x0001cd66:    9904        ..      LDR      r1,[sp,#0x10]
        0x0001cd68:    f001f964    ..d.    BL       padbuffer ; 0x1e034
        0x0001cd6c:    4606        .F      MOV      r6,r0
        0x0001cd6e:    b11c        ..      CBZ      r4,0x1cd78 ; am_util_stdio_vsprintf + 448
        0x0001cd70:    4630        0F      MOV      r0,r6
        0x0001cd72:    e002        ..      B        0x1cd7a ; am_util_stdio_vsprintf + 450
        0x0001cd74:    e043        C.      B        0x1cdfe ; am_util_stdio_vsprintf + 582
        0x0001cd76:    e00e        ..      B        0x1cd96 ; am_util_stdio_vsprintf + 478
        0x0001cd78:    2000        .       MOVS     r0,#0
        0x0001cd7a:    4404        .D      ADD      r4,r4,r0
        0x0001cd7c:    44b1        .D      ADD      r9,r9,r6
        0x0001cd7e:    2600        .&      MOVS     r6,#0
        0x0001cd80:    4622        "F      MOV      r2,r4
        0x0001cd82:    4638        8F      MOV      r0,r7
        0x0001cd84:    4641        AF      MOV      r1,r8
        0x0001cd86:    9b03        ..      LDR      r3,[sp,#0xc]
        0x0001cd88:    f001fae2    ....    BL       uint64_to_hexstr ; 0x1e350
        0x0001cd8c:    4682        .F      MOV      r10,r0
        0x0001cd8e:    b104        ..      CBZ      r4,0x1cd92 ; am_util_stdio_vsprintf + 474
        0x0001cd90:    4454        TD      ADD      r4,r4,r10
        0x0001cd92:    44d1        .D      ADD      r9,r9,r10
        0x0001cd94:    e0d3        ..      B        0x1cf3e ; am_util_stdio_vsprintf + 902
        0x0001cd96:    9802        ..      LDR      r0,[sp,#8]
        0x0001cd98:    b158        X.      CBZ      r0,0x1cdb2 ; am_util_stdio_vsprintf + 506
        0x0001cd9a:    980e        ..      LDR      r0,[sp,#0x38]
        0x0001cd9c:    1dc0        ..      ADDS     r0,r0,#7
        0x0001cd9e:    f0200007     ...    BIC      r0,r0,#7
        0x0001cda2:    4601        .F      MOV      r1,r0
        0x0001cda4:    900e        ..      STR      r0,[sp,#0x38]
        0x0001cda6:    6800        .h      LDR      r0,[r0,#0]
        0x0001cda8:    6849        Ih      LDR      r1,[r1,#4]
        0x0001cdaa:    9a0e        ..      LDR      r2,[sp,#0x38]
        0x0001cdac:    3208        .2      ADDS     r2,r2,#8
        0x0001cdae:    920e        ..      STR      r2,[sp,#0x38]
        0x0001cdb0:    e005        ..      B        0x1cdbe ; am_util_stdio_vsprintf + 518
        0x0001cdb2:    980e        ..      LDR      r0,[sp,#0x38]
        0x0001cdb4:    6800        .h      LDR      r0,[r0,#0]
        0x0001cdb6:    990e        ..      LDR      r1,[sp,#0x38]
        0x0001cdb8:    1d09        ..      ADDS     r1,r1,#4
        0x0001cdba:    910e        ..      STR      r1,[sp,#0x38]
        0x0001cdbc:    2100        .!      MOVS     r1,#0
        0x0001cdbe:    4607        .F      MOV      r7,r0
        0x0001cdc0:    4688        .F      MOV      r8,r1
        0x0001cdc2:    b18e        ..      CBZ      r6,0x1cde8 ; am_util_stdio_vsprintf + 560
        0x0001cdc4:    4638        8F      MOV      r0,r7
        0x0001cdc6:    4641        AF      MOV      r1,r8
        0x0001cdc8:    f001f917    ....    BL       ndigits_in_u64 ; 0x1dffa
        0x0001cdcc:    1a36        6.      SUBS     r6,r6,r0
        0x0001cdce:    4632        2F      MOV      r2,r6
        0x0001cdd0:    4620         F      MOV      r0,r4
        0x0001cdd2:    9904        ..      LDR      r1,[sp,#0x10]
        0x0001cdd4:    f001f92e    ....    BL       padbuffer ; 0x1e034
        0x0001cdd8:    4606        .F      MOV      r6,r0
        0x0001cdda:    b10c        ..      CBZ      r4,0x1cde0 ; am_util_stdio_vsprintf + 552
        0x0001cddc:    4630        0F      MOV      r0,r6
        0x0001cdde:    e000        ..      B        0x1cde2 ; am_util_stdio_vsprintf + 554
        0x0001cde0:    2000        .       MOVS     r0,#0
        0x0001cde2:    4404        .D      ADD      r4,r4,r0
        0x0001cde4:    44b1        .D      ADD      r9,r9,r6
        0x0001cde6:    2600        .&      MOVS     r6,#0
        0x0001cde8:    4622        "F      MOV      r2,r4
        0x0001cdea:    4638        8F      MOV      r0,r7
        0x0001cdec:    4641        AF      MOV      r1,r8
        0x0001cdee:    f001faf4    ....    BL       uint64_to_str ; 0x1e3da
        0x0001cdf2:    4682        .F      MOV      r10,r0
        0x0001cdf4:    b104        ..      CBZ      r4,0x1cdf8 ; am_util_stdio_vsprintf + 576
        0x0001cdf6:    4454        TD      ADD      r4,r4,r10
        0x0001cdf8:    44d1        .D      ADD      r9,r9,r10
        0x0001cdfa:    e0a0        ..      B        0x1cf3e ; am_util_stdio_vsprintf + 902
        0x0001cdfc:    bf00        ..      NOP      
        0x0001cdfe:    9802        ..      LDR      r0,[sp,#8]
        0x0001ce00:    b158        X.      CBZ      r0,0x1ce1a ; am_util_stdio_vsprintf + 610
        0x0001ce02:    980e        ..      LDR      r0,[sp,#0x38]
        0x0001ce04:    1dc0        ..      ADDS     r0,r0,#7
        0x0001ce06:    f0200007     ...    BIC      r0,r0,#7
        0x0001ce0a:    4601        .F      MOV      r1,r0
        0x0001ce0c:    900e        ..      STR      r0,[sp,#0x38]
        0x0001ce0e:    6800        .h      LDR      r0,[r0,#0]
        0x0001ce10:    6849        Ih      LDR      r1,[r1,#4]
        0x0001ce12:    9a0e        ..      LDR      r2,[sp,#0x38]
        0x0001ce14:    3208        .2      ADDS     r2,r2,#8
        0x0001ce16:    920e        ..      STR      r2,[sp,#0x38]
        0x0001ce18:    e005        ..      B        0x1ce26 ; am_util_stdio_vsprintf + 622
        0x0001ce1a:    980e        ..      LDR      r0,[sp,#0x38]
        0x0001ce1c:    6800        .h      LDR      r0,[r0,#0]
        0x0001ce1e:    990e        ..      LDR      r1,[sp,#0x38]
        0x0001ce20:    1d09        ..      ADDS     r1,r1,#4
        0x0001ce22:    910e        ..      STR      r1,[sp,#0x38]
        0x0001ce24:    17c1        ..      ASRS     r1,r0,#31
        0x0001ce26:    e9cd0108    ....    STRD     r0,r1,[sp,#0x20]
        0x0001ce2a:    2300        .#      MOVS     r3,#0
        0x0001ce2c:    e9dd0108    ....    LDRD     r0,r1,[sp,#0x20]
        0x0001ce30:    1ac0        ..      SUBS     r0,r0,r3
        0x0001ce32:    4199        .A      SBCS     r1,r1,r3
        0x0001ce34:    da08        ..      BGE      0x1ce48 ; am_util_stdio_vsprintf + 656
        0x0001ce36:    2200        ."      MOVS     r2,#0
        0x0001ce38:    e9dd1008    ....    LDRD     r1,r0,[sp,#0x20]
        0x0001ce3c:    424f        OB      RSBS     r7,r1,#0
        0x0001ce3e:    eb620800    b...    SBC      r8,r2,r0
        0x0001ce42:    2001        .       MOVS     r0,#1
        0x0001ce44:    9001        ..      STR      r0,[sp,#4]
        0x0001ce46:    e003        ..      B        0x1ce50 ; am_util_stdio_vsprintf + 664
        0x0001ce48:    e9dd7808    ...x    LDRD     r7,r8,[sp,#0x20]
        0x0001ce4c:    2000        .       MOVS     r0,#0
        0x0001ce4e:    9001        ..      STR      r0,[sp,#4]
        0x0001ce50:    b34e        N.      CBZ      r6,0x1cea6 ; am_util_stdio_vsprintf + 750
        0x0001ce52:    4638        8F      MOV      r0,r7
        0x0001ce54:    4641        AF      MOV      r1,r8
        0x0001ce56:    f001f8be    ....    BL       ndigits_in_i64 ; 0x1dfd6
        0x0001ce5a:    1a36        6.      SUBS     r6,r6,r0
        0x0001ce5c:    9801        ..      LDR      r0,[sp,#4]
        0x0001ce5e:    b148        H.      CBZ      r0,0x1ce74 ; am_util_stdio_vsprintf + 700
        0x0001ce60:    1e76        v.      SUBS     r6,r6,#1
        0x0001ce62:    9804        ..      LDR      r0,[sp,#0x10]
        0x0001ce64:    2830        0(      CMP      r0,#0x30
        0x0001ce66:    d105        ..      BNE      0x1ce74 ; am_util_stdio_vsprintf + 700
        0x0001ce68:    b114        ..      CBZ      r4,0x1ce70 ; am_util_stdio_vsprintf + 696
        0x0001ce6a:    202d        -       MOVS     r0,#0x2d
        0x0001ce6c:    f8040b01    ....    STRB     r0,[r4],#1
        0x0001ce70:    f1090901    ....    ADD      r9,r9,#1
        0x0001ce74:    4632        2F      MOV      r2,r6
        0x0001ce76:    4620         F      MOV      r0,r4
        0x0001ce78:    9904        ..      LDR      r1,[sp,#0x10]
        0x0001ce7a:    f001f8db    ....    BL       padbuffer ; 0x1e034
        0x0001ce7e:    4606        .F      MOV      r6,r0
        0x0001ce80:    b10c        ..      CBZ      r4,0x1ce86 ; am_util_stdio_vsprintf + 718
        0x0001ce82:    4630        0F      MOV      r0,r6
        0x0001ce84:    e000        ..      B        0x1ce88 ; am_util_stdio_vsprintf + 720
        0x0001ce86:    2000        .       MOVS     r0,#0
        0x0001ce88:    4404        .D      ADD      r4,r4,r0
        0x0001ce8a:    44b1        .D      ADD      r9,r9,r6
        0x0001ce8c:    2600        .&      MOVS     r6,#0
        0x0001ce8e:    9801        ..      LDR      r0,[sp,#4]
        0x0001ce90:    b188        ..      CBZ      r0,0x1ceb6 ; am_util_stdio_vsprintf + 766
        0x0001ce92:    9804        ..      LDR      r0,[sp,#0x10]
        0x0001ce94:    2820         (      CMP      r0,#0x20
        0x0001ce96:    d10e        ..      BNE      0x1ceb6 ; am_util_stdio_vsprintf + 766
        0x0001ce98:    b114        ..      CBZ      r4,0x1cea0 ; am_util_stdio_vsprintf + 744
        0x0001ce9a:    202d        -       MOVS     r0,#0x2d
        0x0001ce9c:    f8040b01    ....    STRB     r0,[r4],#1
        0x0001cea0:    f1090901    ....    ADD      r9,r9,#1
        0x0001cea4:    e007        ..      B        0x1ceb6 ; am_util_stdio_vsprintf + 766
        0x0001cea6:    9801        ..      LDR      r0,[sp,#4]
        0x0001cea8:    b128        (.      CBZ      r0,0x1ceb6 ; am_util_stdio_vsprintf + 766
        0x0001ceaa:    b114        ..      CBZ      r4,0x1ceb2 ; am_util_stdio_vsprintf + 762
        0x0001ceac:    202d        -       MOVS     r0,#0x2d
        0x0001ceae:    f8040b01    ....    STRB     r0,[r4],#1
        0x0001ceb2:    f1090901    ....    ADD      r9,r9,#1
        0x0001ceb6:    4622        "F      MOV      r2,r4
        0x0001ceb8:    4638        8F      MOV      r0,r7
        0x0001ceba:    4641        AF      MOV      r1,r8
        0x0001cebc:    f001fa8d    ....    BL       uint64_to_str ; 0x1e3da
        0x0001cec0:    4682        .F      MOV      r10,r0
        0x0001cec2:    b104        ..      CBZ      r4,0x1cec6 ; am_util_stdio_vsprintf + 782
        0x0001cec4:    4454        TD      ADD      r4,r4,r10
        0x0001cec6:    44d1        .D      ADD      r9,r9,r10
        0x0001cec8:    e039        9.      B        0x1cf3e ; am_util_stdio_vsprintf + 902
        0x0001ceca:    bf00        ..      NOP      
        0x0001cecc:    b37c        |.      CBZ      r4,0x1cf2e ; am_util_stdio_vsprintf + 886
        0x0001cece:    980e        ..      LDR      r0,[sp,#0x38]
        0x0001ced0:    1dc0        ..      ADDS     r0,r0,#7
        0x0001ced2:    f0200007     ...    BIC      r0,r0,#7
        0x0001ced6:    900e        ..      STR      r0,[sp,#0x38]
        0x0001ced8:    ecb01b02    ....    VLDM     r0!,{d1}
        0x0001cedc:    eeb00a41    ..A.    VMOV.F32 s0,s2
        0x0001cee0:    eef00a61    ..a.    VMOV.F32 s1,s3
        0x0001cee4:    900e        ..      STR      r0,[sp,#0x38]
        0x0001cee6:    ec510b10    Q...    VMOV     r0,r1,d0
        0x0001ceea:    f001faaf    ....    BL       __aeabi_d2f ; 0x1e44c
        0x0001ceee:    ee080a10    ....    VMOV     s16,r0
        0x0001cef2:    2014        .       MOVS     r0,#0x14
        0x0001cef4:    6020         `      STR      r0,[r4,#0]
        0x0001cef6:    4620         F      MOV      r0,r4
        0x0001cef8:    eeb00a48    ..H.    VMOV.F32 s0,s16
        0x0001cefc:    9906        ..      LDR      r1,[sp,#0x18]
        0x0001cefe:    f000f9a7    ....    BL       ftoa ; 0x1d250
        0x0001cf02:    4682        .F      MOV      r10,r0
        0x0001cf04:    f1ba0f00    ....    CMP      r10,#0
        0x0001cf08:    da0e        ..      BGE      0x1cf28 ; am_util_stdio_vsprintf + 880
        0x0001cf0a:    f10a0101    ....    ADD      r1,r10,#1
        0x0001cf0e:    b909        ..      CBNZ     r1,0x1cf14 ; am_util_stdio_vsprintf + 860
        0x0001cf10:    4813        .H      LDR      r0,[pc,#76] ; [0x1cf60] = 0x302e30
        0x0001cf12:    e005        ..      B        0x1cf20 ; am_util_stdio_vsprintf + 872
        0x0001cf14:    f10a0102    ....    ADD      r1,r10,#2
        0x0001cf18:    b909        ..      CBNZ     r1,0x1cf1e ; am_util_stdio_vsprintf + 870
        0x0001cf1a:    4812        .H      LDR      r0,[pc,#72] ; [0x1cf64] = 0x232e23
        0x0001cf1c:    e000        ..      B        0x1cf20 ; am_util_stdio_vsprintf + 872
        0x0001cf1e:    4812        .H      LDR      r0,[pc,#72] ; [0x1cf68] = 0x3f2e3f
        0x0001cf20:    6020         `      STR      r0,[r4,#0]
        0x0001cf22:    f04f0a03    O...    MOV      r10,#3
        0x0001cf26:    bf00        ..      NOP      
        0x0001cf28:    44d1        .D      ADD      r9,r9,r10
        0x0001cf2a:    4454        TD      ADD      r4,r4,r10
        0x0001cf2c:    bf00        ..      NOP      
        0x0001cf2e:    e006        ..      B        0x1cf3e ; am_util_stdio_vsprintf + 902
        0x0001cf30:    b114        ..      CBZ      r4,0x1cf38 ; am_util_stdio_vsprintf + 896
        0x0001cf32:    7828        (x      LDRB     r0,[r5,#0]
        0x0001cf34:    f8040b01    ....    STRB     r0,[r4],#1
        0x0001cf38:    f1090901    ....    ADD      r9,r9,#1
        0x0001cf3c:    bf00        ..      NOP      
        0x0001cf3e:    bf00        ..      NOP      
        0x0001cf40:    1c6d        m.      ADDS     r5,r5,#1
        0x0001cf42:    bf00        ..      NOP      
        0x0001cf44:    7828        (x      LDRB     r0,[r5,#0]
        0x0001cf46:    2800        .(      CMP      r0,#0
        0x0001cf48:    f47fae42    ..B.    BNE      0x1cbd0 ; am_util_stdio_vsprintf + 24
        0x0001cf4c:    b104        ..      CBZ      r4,0x1cf50 ; am_util_stdio_vsprintf + 920
        0x0001cf4e:    7020         p      STRB     r0,[r4,#0]
        0x0001cf50:    4648        HF      MOV      r0,r9
        0x0001cf52:    b00a        ..      ADD      sp,sp,#0x28
        0x0001cf54:    ecbd8b02    ....    VPOP     {d8}
        0x0001cf58:    e8bd8ffe    ....    POP      {r1-r11,pc}
    $d
        0x0001cf5c:    10000050    P...    DCD    268435536
        0x0001cf60:    00302e30    0.0.    DCD    3157552
        0x0001cf64:    00232e23    #.#.    DCD    2305571
        0x0001cf68:    003f2e3f    ?.?.    DCD    4140607
    $t
    i.build_dma_cmdlist
    build_dma_cmdlist
        0x0001cf6c:    b470        p.      PUSH     {r4-r6}
        0x0001cf6e:    f8d0c004    ....    LDR      r12,[r0,#4]
        0x0001cf72:    b111        ..      CBZ      r1,0x1cf7a ; build_dma_cmdlist + 14
        0x0001cf74:    2901        .)      CMP      r1,#1
        0x0001cf76:    d056        V.      BEQ      0x1d026 ; build_dma_cmdlist + 186
        0x0001cf78:    e0b1        ..      B        0x1d0de ; build_dma_cmdlist + 370
        0x0001cf7a:    6819        .h      LDR      r1,[r3,#0]
        0x0001cf7c:    f5b13f80    ...?    CMP      r1,#0x10000
        0x0001cf80:    d255        U.      BCS      0x1d02e ; build_dma_cmdlist + 194
        0x0001cf82:    495c        \I      LDR      r1,[pc,#368] ; [0x1d0f4] = 0x40060008
        0x0001cf84:    f44f7400    O..t    MOV      r4,#0x200
        0x0001cf88:    eb01310c    ...1    ADD      r1,r1,r12,LSL #12
        0x0001cf8c:    6011        .`      STR      r1,[r2,#0]
        0x0001cf8e:    6899        .h      LDR      r1,[r3,#8]
        0x0001cf90:    6051        Q`      STR      r1,[r2,#4]
        0x0001cf92:    4959        YI      LDR      r1,[pc,#356] ; [0x1d0f8] = 0x4006000c
        0x0001cf94:    eb01310c    ...1    ADD      r1,r1,r12,LSL #12
        0x0001cf98:    6091        .`      STR      r1,[r2,#8]
        0x0001cf9a:    89d9        ..      LDRH     r1,[r3,#0xe]
        0x0001cf9c:    60d1        .`      STR      r1,[r2,#0xc]
        0x0001cf9e:    4957        WI      LDR      r1,[pc,#348] ; [0x1d0fc] = 0x40060000
        0x0001cfa0:    eb01310c    ...1    ADD      r1,r1,r12,LSL #12
        0x0001cfa4:    6111        .a      STR      r1,[r2,#0x10]
        0x0001cfa6:    7959        Yy      LDRB     r1,[r3,#5]
        0x0001cfa8:    f44f6c00    O..l    MOV      r12,#0x800
        0x0001cfac:    ea0c21c1    ...!    AND      r1,r12,r1,LSL #11
        0x0001cfb0:    f8b3c000    ....    LDRH     r12,[r3,#0]
        0x0001cfb4:    7b00        .{      LDRB     r0,[r0,#0xc]
        0x0001cfb6:    ea41410c    A..A    ORR      r1,r1,r12,LSL #16
        0x0001cfba:    f893c004    ....    LDRB     r12,[r3,#4]
        0x0001cfbe:    ea042c4c    ..L,    AND      r12,r4,r12,LSL #9
        0x0001cfc2:    ea41010c    A...    ORR      r1,r1,r12
        0x0001cfc6:    f893c006    ....    LDRB     r12,[r3,#6]
        0x0001cfca:    2480        .$      MOVS     r4,#0x80
        0x0001cfcc:    ea041ccc    ....    AND      r12,r4,r12,LSL #7
        0x0001cfd0:    ea41010c    A...    ORR      r1,r1,r12
        0x0001cfd4:    f893c00c    ....    LDRB     r12,[r3,#0xc]
        0x0001cfd8:    2440        @$      MOVS     r4,#0x40
        0x0001cfda:    ea041c8c    ....    AND      r12,r4,r12,LSL #6
        0x0001cfde:    ea41010c    A...    ORR      r1,r1,r12
        0x0001cfe2:    f893c007    ....    LDRB     r12,[r3,#7]
        0x0001cfe6:    2420         $      MOVS     r4,#0x20
        0x0001cfe8:    ea041c4c    ..L.    AND      r12,r4,r12,LSL #5
        0x0001cfec:    ea41010c    A...    ORR      r1,r1,r12
        0x0001cff0:    f893c010    ....    LDRB     r12,[r3,#0x10]
        0x0001cff4:    0164        d.      LSLS     r4,r4,#5
        0x0001cff6:    ea042c8c    ...,    AND      r12,r4,r12,LSL #10
        0x0001cffa:    ea41010c    A...    ORR      r1,r1,r12
        0x0001cffe:    f44f7c80    O..|    MOV      r12,#0x100
        0x0001d002:    ea0c2000    ...     AND      r0,r12,r0,LSL #8
        0x0001d006:    4308        .C      ORRS     r0,r0,r1
        0x0001d008:    7c99        .|      LDRB     r1,[r3,#0x12]
        0x0001d00a:    f04f0c08    O...    MOV      r12,#8
        0x0001d00e:    ea0c01c1    ....    AND      r1,r12,r1,LSL #3
        0x0001d012:    4308        .C      ORRS     r0,r0,r1
        0x0001d014:    7c59        Y|      LDRB     r1,[r3,#0x11]
        0x0001d016:    00a3        ..      LSLS     r3,r4,#2
        0x0001d018:    ea033101    ...1    AND      r1,r3,r1,LSL #12
        0x0001d01c:    4308        .C      ORRS     r0,r0,r1
        0x0001d01e:    f0400001    @...    ORR      r0,r0,#1
        0x0001d022:    6150        Pa      STR      r0,[r2,#0x14]
        0x0001d024:    e05b        [.      B        0x1d0de ; build_dma_cmdlist + 370
        0x0001d026:    6859        Yh      LDR      r1,[r3,#4]
        0x0001d028:    f1b17f80    ....    CMP      r1,#0x1000000
        0x0001d02c:    d302        ..      BCC      0x1d034 ; build_dma_cmdlist + 200
        0x0001d02e:    bc70        p.      POP      {r4-r6}
        0x0001d030:    2005        .       MOVS     r0,#5
        0x0001d032:    4770        pG      BX       lr
        0x0001d034:    f8d01838    ..8.    LDR      r1,[r0,#0x838]
        0x0001d038:    2900        .)      CMP      r1,#0
        0x0001d03a:    bf1f        ..      ITTTT    NE
        0x0001d03c:    6919        .i      LDRNE    r1,[r3,#0x10]
        0x0001d03e:    2900        .)      CMPNE    r1,#0
        0x0001d040:    2007        .       MOVNE    r0,#7
        0x0001d042:    bc70        p.      POPNE    {r4-r6}
        0x0001d044:    bf18        ..      IT       NE
        0x0001d046:    4770        pG      BXNE     lr
        0x0001d048:    492d        -I      LDR      r1,[pc,#180] ; [0x1d100] = 0x40060100
        0x0001d04a:    4d2e        .M      LDR      r5,[pc,#184] ; [0x1d104] = 0x40060108
        0x0001d04c:    eb01310c    ...1    ADD      r1,r1,r12,LSL #12
        0x0001d050:    eb05350c    ...5    ADD      r5,r5,r12,LSL #12
        0x0001d054:    f04f0400    O...    MOV      r4,#0
        0x0001d058:    6115        .a      STR      r5,[r2,#0x10]
        0x0001d05a:    e9c21410    ....    STRD     r1,r4,[r2,#0x40]
        0x0001d05e:    68dd        .h      LDR      r5,[r3,#0xc]
        0x0001d060:    6155        Ua      STR      r5,[r2,#0x14]
        0x0001d062:    4d29        )M      LDR      r5,[pc,#164] ; [0x1d108] = 0x4006010c
        0x0001d064:    f04f0604    O...    MOV      r6,#4
        0x0001d068:    eb05350c    ...5    ADD      r5,r5,r12,LSL #12
        0x0001d06c:    6195        .a      STR      r5,[r2,#0x18]
        0x0001d06e:    689d        .h      LDR      r5,[r3,#8]
        0x0001d070:    61d5        .a      STR      r5,[r2,#0x1c]
        0x0001d072:    4d26        &M      LDR      r5,[pc,#152] ; [0x1d10c] = 0x40060110
        0x0001d074:    eb05350c    ...5    ADD      r5,r5,r12,LSL #12
        0x0001d078:    6215        .b      STR      r5,[r2,#0x20]
        0x0001d07a:    685d        ]h      LDR      r5,[r3,#4]
        0x0001d07c:    e9c25109    ...Q    STRD     r5,r1,[r2,#0x24]
        0x0001d080:    7819        .x      LDRB     r1,[r3,#0]
        0x0001d082:    f04f0530    O.0.    MOV      r5,#0x30
        0x0001d086:    ea051101    ....    AND      r1,r5,r1,LSL #4
        0x0001d08a:    785d        ]x      LDRB     r5,[r3,#1]
        0x0001d08c:    ea060585    ....    AND      r5,r6,r5,LSL #2
        0x0001d090:    ea410105    A...    ORR      r1,r1,r5
        0x0001d094:    f0410103    A...    ORR      r1,r1,#3
        0x0001d098:    62d1        .b      STR      r1,[r2,#0x2c]
        0x0001d09a:    491d        .I      LDR      r1,[pc,#116] ; [0x1d110] = 0x400602b4
        0x0001d09c:    eb01310c    ...1    ADD      r1,r1,r12,LSL #12
        0x0001d0a0:    e9c2140c    ....    STRD     r1,r4,[r2,#0x30]
        0x0001d0a4:    e9c2140e    ....    STRD     r1,r4,[r2,#0x38]
        0x0001d0a8:    4c1a        .L      LDR      r4,[pc,#104] ; [0x1d114] = 0x400602b8
        0x0001d0aa:    eb043c0c    ...<    ADD      r12,r4,r12,LSL #12
        0x0001d0ae:    f8c2c008    ....    STR      r12,[r2,#8]
        0x0001d0b2:    f8c2c000    ....    STR      r12,[r2,#0]
        0x0001d0b6:    f8d04838    ..8H    LDR      r4,[r0,#0x838]
        0x0001d0ba:    f8d3c010    ....    LDR      r12,[r3,#0x10]
        0x0001d0be:    2c01        .,      CMP      r4,#1
        0x0001d0c0:    d010        ..      BEQ      0x1d0e4 ; build_dma_cmdlist + 376
        0x0001d0c2:    2c02        .,      CMP      r4,#2
        0x0001d0c4:    bf0c        ..      ITE      EQ
        0x0001d0c6:    f44f4c80    O..L    MOVEQ    r12,#0x4000
        0x0001d0ca:    f44c4c81    L..L    ORRNE    r12,r12,#0x4080
        0x0001d0ce:    f44f4080    O..@    MOV      r0,#0x4000
        0x0001d0d2:    f8c2c004    ....    STR      r12,[r2,#4]
        0x0001d0d6:    60d0        .`      STR      r0,[r2,#0xc]
        0x0001d0d8:    6958        Xi      LDR      r0,[r3,#0x14]
        0x0001d0da:    e9c21012    ....    STRD     r1,r0,[r2,#0x48]
        0x0001d0de:    bc70        p.      POP      {r4-r6}
        0x0001d0e0:    2000        .       MOVS     r0,#0
        0x0001d0e2:    4770        pG      BX       lr
        0x0001d0e4:    f24404a0    D...    MOV      r4,#0x40a0
        0x0001d0e8:    ea4c0c04    L...    ORR      r12,r12,r4
        0x0001d0ec:    2402        .$      MOVS     r4,#2
        0x0001d0ee:    f8c04838    ..8H    STR      r4,[r0,#0x838]
        0x0001d0f2:    e7ec        ..      B        0x1d0ce ; build_dma_cmdlist + 354
    $d
        0x0001d0f4:    40060008    ...@    DCD    1074135048
        0x0001d0f8:    4006000c    ...@    DCD    1074135052
        0x0001d0fc:    40060000    ...@    DCD    1074135040
        0x0001d100:    40060100    ...@    DCD    1074135296
        0x0001d104:    40060108    ...@    DCD    1074135304
        0x0001d108:    4006010c    ...@    DCD    1074135308
        0x0001d10c:    40060110    ...@    DCD    1074135312
        0x0001d110:    400602b4    ...@    DCD    1074135732
        0x0001d114:    400602b8    ...@    DCD    1074135736
    $t
    i.copy_words
    copy_words
        0x0001d118:    b430        0.      PUSH     {r4,r5}
        0x0001d11a:    2301        .#      MOVS     r3,#1
        0x0001d11c:    f05f0403    _...    MOVS.W   r4,#3
        0x0001d120:    f1a20c01    ....    SUB      r12,r2,#1
        0x0001d124:    f851502c    Q.,P    LDR      r5,[r1,r12,LSL #2]
        0x0001d128:    f840502c    @.,P    STR      r5,[r0,r12,LSL #2]
        0x0001d12c:    1e92        ..      SUBS     r2,r2,#2
        0x0001d12e:    f851c022    Q.".    LDR      r12,[r1,r2,LSL #2]
        0x0001d132:    f840c022    @.".    STR      r12,[r0,r2,LSL #2]
        0x0001d136:    1c9b        ..      ADDS     r3,r3,#2
        0x0001d138:    42a3        .B      CMP      r3,r4
        0x0001d13a:    dbf1        ..      BLT      0x1d120 ; copy_words + 8
        0x0001d13c:    bc30        0.      POP      {r4,r5}
        0x0001d13e:    4770        pG      BX       lr
    i.decstr_to_int
    decstr_to_int
        0x0001d140:    b530        0.      PUSH     {r4,r5,lr}
        0x0001d142:    4602        .F      MOV      r2,r0
        0x0001d144:    2500        .%      MOVS     r5,#0
        0x0001d146:    2300        .#      MOVS     r3,#0
        0x0001d148:    2400        .$      MOVS     r4,#0
        0x0001d14a:    7810        .x      LDRB     r0,[r2,#0]
        0x0001d14c:    282d        -(      CMP      r0,#0x2d
        0x0001d14e:    d102        ..      BNE      0x1d156 ; decstr_to_int + 22
        0x0001d150:    2501        .%      MOVS     r5,#1
        0x0001d152:    1c52        R.      ADDS     r2,r2,#1
        0x0001d154:    1c64        d.      ADDS     r4,r4,#1
        0x0001d156:    e007        ..      B        0x1d168 ; decstr_to_int + 40
        0x0001d158:    1c64        d.      ADDS     r4,r4,#1
        0x0001d15a:    eb030083    ....    ADD      r0,r3,r3,LSL #2
        0x0001d15e:    0043        C.      LSLS     r3,r0,#1
        0x0001d160:    7810        .x      LDRB     r0,[r2,#0]
        0x0001d162:    3830        08      SUBS     r0,r0,#0x30
        0x0001d164:    4403        .D      ADD      r3,r3,r0
        0x0001d166:    1c52        R.      ADDS     r2,r2,#1
        0x0001d168:    7810        .x      LDRB     r0,[r2,#0]
        0x0001d16a:    2830        0(      CMP      r0,#0x30
        0x0001d16c:    db02        ..      BLT      0x1d174 ; decstr_to_int + 52
        0x0001d16e:    7810        .x      LDRB     r0,[r2,#0]
        0x0001d170:    2839        9(      CMP      r0,#0x39
        0x0001d172:    ddf1        ..      BLE      0x1d158 ; decstr_to_int + 24
        0x0001d174:    b101        ..      CBZ      r1,0x1d178 ; decstr_to_int + 56
        0x0001d176:    600c        .`      STR      r4,[r1,#0]
        0x0001d178:    b10d        ..      CBZ      r5,0x1d17e ; decstr_to_int + 62
        0x0001d17a:    4258        XB      RSBS     r0,r3,#0
        0x0001d17c:    bd30        0.      POP      {r4,r5,pc}
        0x0001d17e:    4618        .F      MOV      r0,r3
        0x0001d180:    e7fc        ..      B        0x1d17c ; decstr_to_int + 60
    i.divu64_10
    divu64_10
        0x0001d182:    e92d4ff0    -..O    PUSH     {r4-r11,lr}
        0x0001d186:    4604        .F      MOV      r4,r0
        0x0001d188:    460d        .F      MOV      r5,r1
        0x0001d18a:    2000        .       MOVS     r0,#0
        0x0001d18c:    ea850100    ....    EOR      r1,r5,r0
        0x0001d190:    4040        @@      EORS     r0,r0,r0
        0x0001d192:    4301        .C      ORRS     r1,r1,r0
        0x0001d194:    d044        D.      BEQ      0x1d220 ; divu64_10 + 158
        0x0001d196:    ea5f0a55    _.U.    LSRS     r10,r5,#1
        0x0001d19a:    ea4f0134    O.4.    RRX      r1,r4
        0x0001d19e:    ea4f0b94    O...    LSR      r11,r4,#2
        0x0001d1a2:    ea4b7085    K..p    ORR      r0,r11,r5,LSL #30
        0x0001d1a6:    180a        ..      ADDS     r2,r1,r0
        0x0001d1a8:    eb4a0395    J...    ADC      r3,r10,r5,LSR #2
        0x0001d1ac:    ea4f1012    O...    LSR      r0,r2,#4
        0x0001d1b0:    ea407a03    @..z    ORR      r10,r0,r3,LSL #28
        0x0001d1b4:    eb1a0202    ....    ADDS     r2,r10,r2
        0x0001d1b8:    eb431313    C...    ADC      r3,r3,r3,LSR #4
        0x0001d1bc:    ea4f2012    O..     LSR      r0,r2,#8
        0x0001d1c0:    ea406a03    @..j    ORR      r10,r0,r3,LSL #24
        0x0001d1c4:    eb1a0202    ....    ADDS     r2,r10,r2
        0x0001d1c8:    eb432313    C..#    ADC      r3,r3,r3,LSR #8
        0x0001d1cc:    ea4f4012    O..@    LSR      r0,r2,#16
        0x0001d1d0:    ea404a03    @..J    ORR      r10,r0,r3,LSL #16
        0x0001d1d4:    eb1a0202    ....    ADDS     r2,r10,r2
        0x0001d1d8:    eb434313    C..C    ADC      r3,r3,r3,LSR #16
        0x0001d1dc:    189a        ..      ADDS     r2,r3,r2
        0x0001d1de:    f1430300    C...    ADC      r3,r3,#0
        0x0001d1e2:    08d0        ..      LSRS     r0,r2,#3
        0x0001d1e4:    ea407243    @.Cr    ORR      r2,r0,r3,LSL #29
        0x0001d1e8:    08db        ..      LSRS     r3,r3,#3
        0x0001d1ea:    210a        .!      MOVS     r1,#0xa
        0x0001d1ec:    f04f0a00    O...    MOV      r10,#0
        0x0001d1f0:    fba20b01    ....    UMULL    r0,r11,r2,r1
        0x0001d1f4:    fb03b101    ....    MLA      r1,r3,r1,r11
        0x0001d1f8:    fb02110a    ....    MLA      r1,r2,r10,r1
        0x0001d1fc:    1a26        &.      SUBS     r6,r4,r0
        0x0001d1fe:    eb650701    e...    SBC      r7,r5,r1
        0x0001d202:    2106        .!      MOVS     r1,#6
        0x0001d204:    eb160a01    ....    ADDS     r10,r6,r1
        0x0001d208:    f1470100    G...    ADC      r1,r7,#0
        0x0001d20c:    ea4f101a    O...    LSR      r0,r10,#4
        0x0001d210:    ea407a01    @..z    ORR      r10,r0,r1,LSL #28
        0x0001d214:    eb1a0002    ....    ADDS     r0,r10,r2
        0x0001d218:    eb431111    C...    ADC      r1,r3,r1,LSR #4
        0x0001d21c:    e8bd8ff0    ....    POP      {r4-r11,pc}
        0x0001d220:    46a0        .F      MOV      r8,r4
        0x0001d222:    ea4f0058    O.X.    LSR      r0,r8,#1
        0x0001d226:    eb000c98    ....    ADD      r12,r0,r8,LSR #2
        0x0001d22a:    eb0c1c1c    ....    ADD      r12,r12,r12,LSR #4
        0x0001d22e:    eb0c2c1c    ...,    ADD      r12,r12,r12,LSR #8
        0x0001d232:    eb0c4c1c    ...L    ADD      r12,r12,r12,LSR #16
        0x0001d236:    ea4f0cdc    O...    LSR      r12,r12,#3
        0x0001d23a:    eb0c008c    ....    ADD      r0,r12,r12,LSL #2
        0x0001d23e:    eba80940    ..@.    SUB      r9,r8,r0,LSL #1
        0x0001d242:    f1090006    ....    ADD      r0,r9,#6
        0x0001d246:    eb0c1010    ....    ADD      r0,r12,r0,LSR #4
        0x0001d24a:    2100        .!      MOVS     r1,#0
        0x0001d24c:    e7e6        ..      B        0x1d21c ; divu64_10 + 154
        0x0001d24e:    0000        ..      MOVS     r0,r0
    i.ftoa
    ftoa
        0x0001d250:    e92d4ff3    -..O    PUSH     {r0,r1,r4-r11,lr}
        0x0001d254:    ed2d0b02    -...    VPUSH    {d0}
        0x0001d258:    ed2d8b02    -...    VPUSH    {d8}
        0x0001d25c:    b081        ..      SUB      sp,sp,#4
        0x0001d25e:    eeb08a40    ..@.    VMOV.F32 s16,s0
        0x0001d262:    4604        .F      MOV      r4,r0
        0x0001d264:    f8d4b000    ....    LDR      r11,[r4,#0]
        0x0001d268:    f1bb0f04    ....    CMP      r11,#4
        0x0001d26c:    da07        ..      BGE      0x1d27e ; ftoa + 46
        0x0001d26e:    f06f0002    o...    MVN      r0,#2
        0x0001d272:    b001        ..      ADD      sp,sp,#4
        0x0001d274:    ecbd8b02    ....    VPOP     {d8}
        0x0001d278:    b004        ..      ADD      sp,sp,#0x10
        0x0001d27a:    e8bd8ff0    ....    POP      {r4-r11,pc}
        0x0001d27e:    eeb58ac0    ....    VCMPE.F32 s16,#0.0
        0x0001d282:    eef1fa10    ....    VMRS     APSR_nzcv,FPSCR
        0x0001d286:    d103        ..      BNE      0x1d290 ; ftoa + 64
        0x0001d288:    484e        NH      LDR      r0,[pc,#312] ; [0x1d3c4] = 0x302e30
        0x0001d28a:    6020         `      STR      r0,[r4,#0]
        0x0001d28c:    2003        .       MOVS     r0,#3
        0x0001d28e:    e7f0        ..      B        0x1d272 ; ftoa + 34
        0x0001d290:    46a2        .F      MOV      r10,r4
        0x0001d292:    ed8d8a00    ....    VSTR     s16,[sp,#0]
        0x0001d296:    9800        ..      LDR      r0,[sp,#0]
        0x0001d298:    f3c050c7    ...P    UBFX     r0,r0,#23,#8
        0x0001d29c:    f1a0057f    ....    SUB      r5,r0,#0x7f
        0x0001d2a0:    9800        ..      LDR      r0,[sp,#0]
        0x0001d2a2:    f020407f     ..@    BIC      r0,r0,#0xff000000
        0x0001d2a6:    f4400900    @...    ORR      r9,r0,#0x800000
        0x0001d2aa:    f04f0800    O...    MOV      r8,#0
        0x0001d2ae:    2700        .'      MOVS     r7,#0
        0x0001d2b0:    2d1f        .-      CMP      r5,#0x1f
        0x0001d2b2:    db01        ..      BLT      0x1d2b8 ; ftoa + 104
        0x0001d2b4:    1eb8        ..      SUBS     r0,r7,#2
        0x0001d2b6:    e7dc        ..      B        0x1d272 ; ftoa + 34
        0x0001d2b8:    f1150f17    ....    CMN      r5,#0x17
        0x0001d2bc:    da02        ..      BGE      0x1d2c4 ; ftoa + 116
        0x0001d2be:    f04f30ff    O..0    MOV      r0,#0xffffffff
        0x0001d2c2:    e7d6        ..      B        0x1d272 ; ftoa + 34
        0x0001d2c4:    2d17        .-      CMP      r5,#0x17
        0x0001d2c6:    db04        ..      BLT      0x1d2d2 ; ftoa + 130
        0x0001d2c8:    f1a50017    ....    SUB      r0,r5,#0x17
        0x0001d2cc:    fa09f700    ....    LSL      r7,r9,r0
        0x0001d2d0:    e011        ..      B        0x1d2f6 ; ftoa + 166
        0x0001d2d2:    2d00        .-      CMP      r5,#0
        0x0001d2d4:    db09        ..      BLT      0x1d2ea ; ftoa + 154
        0x0001d2d6:    f1c50017    ....    RSB      r0,r5,#0x17
        0x0001d2da:    fa49f700    I...    ASR      r7,r9,r0
        0x0001d2de:    1c68        h.      ADDS     r0,r5,#1
        0x0001d2e0:    fa09f000    ....    LSL      r0,r9,r0
        0x0001d2e4:    f020487f     ..H    BIC      r8,r0,#0xff000000
        0x0001d2e8:    e005        ..      B        0x1d2f6 ; ftoa + 166
        0x0001d2ea:    f029407f    )..@    BIC      r0,r9,#0xff000000
        0x0001d2ee:    1c69        i.      ADDS     r1,r5,#1
        0x0001d2f0:    4249        IB      RSBS     r1,r1,#0
        0x0001d2f2:    fa40f801    @...    ASR      r8,r0,r1
        0x0001d2f6:    9800        ..      LDR      r0,[sp,#0]
        0x0001d2f8:    2800        .(      CMP      r0,#0
        0x0001d2fa:    da02        ..      BGE      0x1d302 ; ftoa + 178
        0x0001d2fc:    202d        -       MOVS     r0,#0x2d
        0x0001d2fe:    f8040b01    ....    STRB     r0,[r4],#1
        0x0001d302:    b91f        ..      CBNZ     r7,0x1d30c ; ftoa + 188
        0x0001d304:    2030        0       MOVS     r0,#0x30
        0x0001d306:    f8040b01    ....    STRB     r0,[r4],#1
        0x0001d30a:    e014        ..      B        0x1d336 ; ftoa + 230
        0x0001d30c:    2f00        ./      CMP      r7,#0
        0x0001d30e:    dd05        ..      BLE      0x1d31c ; ftoa + 204
        0x0001d310:    4622        "F      MOV      r2,r4
        0x0001d312:    4638        8F      MOV      r0,r7
        0x0001d314:    17f9        ..      ASRS     r1,r7,#31
        0x0001d316:    f001f860    ..`.    BL       uint64_to_str ; 0x1e3da
        0x0001d31a:    e007        ..      B        0x1d32c ; ftoa + 220
        0x0001d31c:    202d        -       MOVS     r0,#0x2d
        0x0001d31e:    f8040b01    ....    STRB     r0,[r4],#1
        0x0001d322:    4622        "F      MOV      r2,r4
        0x0001d324:    4278        xB      RSBS     r0,r7,#0
        0x0001d326:    17c1        ..      ASRS     r1,r0,#31
        0x0001d328:    f001f857    ..W.    BL       uint64_to_str ; 0x1e3da
        0x0001d32c:    e000        ..      B        0x1d330 ; ftoa + 224
        0x0001d32e:    1c64        d.      ADDS     r4,r4,#1
        0x0001d330:    7820         x      LDRB     r0,[r4,#0]
        0x0001d332:    2800        .(      CMP      r0,#0
        0x0001d334:    d1fb        ..      BNE      0x1d32e ; ftoa + 222
        0x0001d336:    202e        .       MOVS     r0,#0x2e
        0x0001d338:    f8040b01    ....    STRB     r0,[r4],#1
        0x0001d33c:    f1b80f00    ....    CMP      r8,#0
        0x0001d340:    d103        ..      BNE      0x1d34a ; ftoa + 250
        0x0001d342:    2030        0       MOVS     r0,#0x30
        0x0001d344:    f8040b01    ....    STRB     r0,[r4],#1
        0x0001d348:    e036        6.      B        0x1d3b8 ; ftoa + 360
        0x0001d34a:    eba4020a    ....    SUB      r2,r4,r10
        0x0001d34e:    ebab0202    ....    SUB      r2,r11,r2
        0x0001d352:    1e51        Q.      SUBS     r1,r2,#1
        0x0001d354:    9a06        ..      LDR      r2,[sp,#0x18]
        0x0001d356:    4291        .B      CMP      r1,r2
        0x0001d358:    dd01        ..      BLE      0x1d35e ; ftoa + 270
        0x0001d35a:    9a06        ..      LDR      r2,[sp,#0x18]
        0x0001d35c:    e000        ..      B        0x1d360 ; ftoa + 272
        0x0001d35e:    460a        .F      MOV      r2,r1
        0x0001d360:    4611        .F      MOV      r1,r2
        0x0001d362:    2000        .       MOVS     r0,#0
        0x0001d364:    e00b        ..      B        0x1d37e ; ftoa + 302
        0x0001d366:    eb080288    ....    ADD      r2,r8,r8,LSL #2
        0x0001d36a:    ea4f0842    O.B.    LSL      r8,r2,#1
        0x0001d36e:    2230        0"      MOVS     r2,#0x30
        0x0001d370:    eb026228    ..(b    ADD      r2,r2,r8,ASR #24
        0x0001d374:    f8042b01    ...+    STRB     r2,[r4],#1
        0x0001d378:    f028487f    (..H    BIC      r8,r8,#0xff000000
        0x0001d37c:    1c40        @.      ADDS     r0,r0,#1
        0x0001d37e:    4288        .B      CMP      r0,r1
        0x0001d380:    dbf1        ..      BLT      0x1d366 ; ftoa + 278
        0x0001d382:    eb080288    ....    ADD      r2,r8,r8,LSL #2
        0x0001d386:    0052        R.      LSLS     r2,r2,#1
        0x0001d388:    2305        .#      MOVS     r3,#5
        0x0001d38a:    ebb36f22    .."o    CMP      r3,r2,ASR #24
        0x0001d38e:    dc12        ..      BGT      0x1d3b6 ; ftoa + 358
        0x0001d390:    1e66        f.      SUBS     r6,r4,#1
        0x0001d392:    e00d        ..      B        0x1d3b0 ; ftoa + 352
        0x0001d394:    7832        2x      LDRB     r2,[r6,#0]
        0x0001d396:    2a2e        .*      CMP      r2,#0x2e
        0x0001d398:    d009        ..      BEQ      0x1d3ae ; ftoa + 350
        0x0001d39a:    7832        2x      LDRB     r2,[r6,#0]
        0x0001d39c:    2a39        9*      CMP      r2,#0x39
        0x0001d39e:    d102        ..      BNE      0x1d3a6 ; ftoa + 342
        0x0001d3a0:    2230        0"      MOVS     r2,#0x30
        0x0001d3a2:    7032        2p      STRB     r2,[r6,#0]
        0x0001d3a4:    e003        ..      B        0x1d3ae ; ftoa + 350
        0x0001d3a6:    7832        2x      LDRB     r2,[r6,#0]
        0x0001d3a8:    1c52        R.      ADDS     r2,r2,#1
        0x0001d3aa:    7032        2p      STRB     r2,[r6,#0]
        0x0001d3ac:    e002        ..      B        0x1d3b4 ; ftoa + 356
        0x0001d3ae:    1e76        v.      SUBS     r6,r6,#1
        0x0001d3b0:    4556        VE      CMP      r6,r10
        0x0001d3b2:    d2ef        ..      BCS      0x1d394 ; ftoa + 324
        0x0001d3b4:    bf00        ..      NOP      
        0x0001d3b6:    bf00        ..      NOP      
        0x0001d3b8:    2000        .       MOVS     r0,#0
        0x0001d3ba:    7020         p      STRB     r0,[r4,#0]
        0x0001d3bc:    eba4000a    ....    SUB      r0,r4,r10
        0x0001d3c0:    e757        W.      B        0x1d272 ; ftoa + 34
    $d
        0x0001d3c2:    0000        ..      DCW    0
        0x0001d3c4:    00302e30    0.0.    DCD    3157552
    $t
    i.internal_timer_config
    internal_timer_config
        0x0001d3c8:    4a36        6J      LDR      r2,[pc,#216] ; [0x1d4a4] = 0x40020000
        0x0001d3ca:    68d3        .h      LDR      r3,[r2,#0xc]
        0x0001d3cc:    b2db        ..      UXTB     r3,r3
        0x0001d3ce:    2b21        !+      CMP      r3,#0x21
        0x0001d3d0:    d01c        ..      BEQ      0x1d40c ; internal_timer_config + 68
        0x0001d3d2:    68d2        .h      LDR      r2,[r2,#0xc]
        0x0001d3d4:    b2d2        ..      UXTB     r2,r2
        0x0001d3d6:    2a22        "*      CMP      r2,#0x22
        0x0001d3d8:    bf3c        <.      ITT      CC
        0x0001d3da:    2001        .       MOVCC    r0,#1
        0x0001d3dc:    4770        pG      BXCC     lr
        0x0001d3de:    2801        .(      CMP      r0,#1
        0x0001d3e0:    bf18        ..      IT       NE
        0x0001d3e2:    2803        .(      CMPNE    r0,#3
        0x0001d3e4:    d054        T.      BEQ      0x1d490 ; internal_timer_config + 200
        0x0001d3e6:    280a        .(      CMP      r0,#0xa
        0x0001d3e8:    bf18        ..      IT       NE
        0x0001d3ea:    280b        .(      CMPNE    r0,#0xb
        0x0001d3ec:    d050        P.      BEQ      0x1d490 ; internal_timer_config + 200
        0x0001d3ee:    280c        .(      CMP      r0,#0xc
        0x0001d3f0:    bf1c        ..      ITT      NE
        0x0001d3f2:    280e        .(      CMPNE    r0,#0xe
        0x0001d3f4:    280f        .(      CMPNE    r0,#0xf
        0x0001d3f6:    d04b        K.      BEQ      0x1d490 ; internal_timer_config + 200
        0x0001d3f8:    2805        .(      CMP      r0,#5
        0x0001d3fa:    bf18        ..      IT       NE
        0x0001d3fc:    2807        .(      CMPNE    r0,#7
        0x0001d3fe:    d04a        J.      BEQ      0x1d496 ; internal_timer_config + 206
        0x0001d400:    2808        .(      CMP      r0,#8
        0x0001d402:    bf1c        ..      ITT      NE
        0x0001d404:    2809        .(      CMPNE    r0,#9
        0x0001d406:    280d        .(      CMPNE    r0,#0xd
        0x0001d408:    d045        E.      BEQ      0x1d496 ; internal_timer_config + 206
        0x0001d40a:    e049        I.      B        0x1d4a0 ; internal_timer_config + 216
        0x0001d40c:    784b        Kx      LDRB     r3,[r1,#1]
        0x0001d40e:    780a        .x      LDRB     r2,[r1,#0]
        0x0001d410:    f04f0cf0    O...    MOV      r12,#0xf0
        0x0001d414:    ea0c1303    ....    AND      r3,r12,r3,LSL #4
        0x0001d418:    ea432202    C.."    ORR      r2,r3,r2,LSL #8
        0x0001d41c:    78cb        .x      LDRB     r3,[r1,#3]
        0x0001d41e:    f04f0c08    O...    MOV      r12,#8
        0x0001d422:    ea0c03c3    ....    AND      r3,r12,r3,LSL #3
        0x0001d426:    ea430202    C...    ORR      r2,r3,r2
        0x0001d42a:    788b        .x      LDRB     r3,[r1,#2]
        0x0001d42c:    f04f0c04    O...    MOV      r12,#4
        0x0001d430:    ea0c0383    ....    AND      r3,r12,r3,LSL #2
        0x0001d434:    ea430202    C...    ORR      r2,r3,r2
        0x0001d438:    790b        .y      LDRB     r3,[r1,#4]
        0x0001d43a:    f44f3c40    O.@<    MOV      r12,#0x30000
        0x0001d43e:    ea0c4303    ...C    AND      r3,r12,r3,LSL #16
        0x0001d442:    ea430202    C...    ORR      r2,r3,r2
        0x0001d446:    7a0b        .z      LDRB     r3,[r1,#8]
        0x0001d448:    ea4f1040    O.@.    LSL      r0,r0,#5
        0x0001d44c:    f1004080    ...@    ADD      r0,r0,#0x40000000
        0x0001d450:    ea426303    B..c    ORR      r3,r2,r3,LSL #24
        0x0001d454:    f5004000    ...@    ADD      r0,r0,#0x8000
        0x0001d458:    794a        Jy      LDRB     r2,[r1,#5]
        0x0001d45a:    f8d0c200    ....    LDR      r12,[r0,#0x200]
        0x0001d45e:    ea4f2202    O.."    LSL      r2,r2,#8
        0x0001d462:    f02c0c01    ,...    BIC      r12,r12,#1
        0x0001d466:    f8c0c200    ....    STR      r12,[r0,#0x200]
        0x0001d46a:    f8c03200    ...2    STR      r3,[r0,#0x200]
        0x0001d46e:    f8c02210    ..."    STR      r2,[r0,#0x210]
        0x0001d472:    68ca        .h      LDR      r2,[r1,#0xc]
        0x0001d474:    f8c02208    ..."    STR      r2,[r0,#0x208]
        0x0001d478:    6909        .i      LDR      r1,[r1,#0x10]
        0x0001d47a:    f8c0120c    ....    STR      r1,[r0,#0x20c]
        0x0001d47e:    f8d01200    ....    LDR      r1,[r0,#0x200]
        0x0001d482:    f0410102    A...    ORR      r1,r1,#2
        0x0001d486:    f8c01200    ....    STR      r1,[r0,#0x200]
        0x0001d48a:    f04f0000    O...    MOV      r0,#0
        0x0001d48e:    4770        pG      BX       lr
        0x0001d490:    f04f0006    O...    MOV      r0,#6
        0x0001d494:    4770        pG      BX       lr
        0x0001d496:    790a        .y      LDRB     r2,[r1,#4]
        0x0001d498:    2a00        .*      CMP      r2,#0
        0x0001d49a:    bf1c        ..      ITT      NE
        0x0001d49c:    2007        .       MOVNE    r0,#7
        0x0001d49e:    4770        pG      BXNE     lr
        0x0001d4a0:    f000be88    ....    B.W      timer_config_b1 ; 0x1e1b4
    $d
        0x0001d4a4:    40020000    ...@    DCD    1073872896
    $t
    i.main
    main
        0x0001d4a8:    e92d43f8    -..C    PUSH     {r3-r9,lr}
        0x0001d4ac:    48a1        .H      LDR      r0,[pc,#644] ; [0x1d734] = 0x18335
        0x0001d4ae:    f0200701     ...    BIC      r7,r0,#1
        0x0001d4b2:    f8df8284    ....    LDR      r8,[pc,#644] ; [0x1d738] = 0x1c000001
        0x0001d4b6:    f7fbf8c7    ....    BL       am_bsp_low_power_init ; 0x18648
        0x0001d4ba:    f7fbf889    ....    BL       am_bsp_itm_printf_enable ; 0x185d0
        0x0001d4be:    f7fffb6b    ..k.    BL       am_util_stdio_terminal_clear ; 0x1cb98
        0x0001d4c2:    489e        .H      LDR      r0,[pc,#632] ; [0x1d73c] = 0x10000000
        0x0001d4c4:    6800        .h      LDR      r0,[r0,#0]
        0x0001d4c6:    b110        ..      CBZ      r0,0x1d4ce ; main + 38
        0x0001d4c8:    a09d        ..      ADR      r0,{pc}+0x278 ; 0x1d740
        0x0001d4ca:    f7fffb41    ..A.    BL       am_util_stdio_printf ; 0x1cb50
        0x0001d4ce:    48a3        .H      LDR      r0,[pc,#652] ; [0x1d75c] = 0x1000000c
        0x0001d4d0:    4ba3        .K      LDR      r3,[pc,#652] ; [0x1d760] = 0x10000008
        0x0001d4d2:    4aa4        .J      LDR      r2,[pc,#656] ; [0x1d764] = 0x10000004
        0x0001d4d4:    49a4        .I      LDR      r1,[pc,#656] ; [0x1d768] = 0x1e5cc
        0x0001d4d6:    6945        Ei      LDR      r5,[r0,#0x14]
        0x0001d4d8:    2002        .       MOVS     r0,#2
        0x0001d4da:    47a8        .G      BLX      r5
        0x0001d4dc:    4604        .F      MOV      r4,r0
        0x0001d4de:    b114        ..      CBZ      r4,0x1d4e6 ; main + 62
        0x0001d4e0:    a0a2        ..      ADR      r0,{pc}+0x28c ; 0x1d76c
        0x0001d4e2:    f7fffb35    ..5.    BL       am_util_stdio_printf ; 0x1cb50
        0x0001d4e6:    4ab0        .J      LDR      r2,[pc,#704] ; [0x1d7a8] = 0x1e5e0
        0x0001d4e8:    f9920002    ....    LDRSB    r0,[r2,#2]
        0x0001d4ec:    2104        .!      MOVS     r1,#4
        0x0001d4ee:    2800        .(      CMP      r0,#0
        0x0001d4f0:    db04        ..      BLT      0x1d4fc ; main + 84
        0x0001d4f2:    074a        J.      LSLS     r2,r1,#29
        0x0001d4f4:    0e13        ..      LSRS     r3,r2,#24
        0x0001d4f6:    4aad        .J      LDR      r2,[pc,#692] ; [0x1d7ac] = 0xe000e400
        0x0001d4f8:    5413        .T      STRB     r3,[r2,r0]
        0x0001d4fa:    e006        ..      B        0x1d50a ; main + 98
        0x0001d4fc:    074a        J.      LSLS     r2,r1,#29
        0x0001d4fe:    0e15        ..      LSRS     r5,r2,#24
        0x0001d500:    4aab        .J      LDR      r2,[pc,#684] ; [0x1d7b0] = 0xe000ed18
        0x0001d502:    f000030f    ....    AND      r3,r0,#0xf
        0x0001d506:    1f1b        ..      SUBS     r3,r3,#4
        0x0001d508:    54d5        .T      STRB     r5,[r2,r3]
        0x0001d50a:    bf00        ..      NOP      
        0x0001d50c:    49a6        .I      LDR      r1,[pc,#664] ; [0x1d7a8] = 0x1e5e0
        0x0001d50e:    f9910002    ....    LDRSB    r0,[r1,#2]
        0x0001d512:    2800        .(      CMP      r0,#0
        0x0001d514:    db0d        ..      BLT      0x1d532 ; main + 138
        0x0001d516:    bf00        ..      NOP      
        0x0001d518:    bf00        ..      NOP      
        0x0001d51a:    f000021f    ....    AND      r2,r0,#0x1f
        0x0001d51e:    2101        .!      MOVS     r1,#1
        0x0001d520:    4091        .@      LSLS     r1,r1,r2
        0x0001d522:    0942        B.      LSRS     r2,r0,#5
        0x0001d524:    0092        ..      LSLS     r2,r2,#2
        0x0001d526:    f10222e0    ..."    ADD      r2,r2,#0xe000e000
        0x0001d52a:    f8c21100    ....    STR      r1,[r2,#0x100]
        0x0001d52e:    bf00        ..      NOP      
        0x0001d530:    bf00        ..      NOP      
        0x0001d532:    bf00        ..      NOP      
        0x0001d534:    f7faff32    ..2.    BL       am_hal_interrupt_master_enable ; 0x1839c
        0x0001d538:    2000        .       MOVS     r0,#0
        0x0001d53a:    e002        ..      B        0x1d542 ; main + 154
        0x0001d53c:    4a9d        .J      LDR      r2,[pc,#628] ; [0x1d7b4] = 0x100036dc
        0x0001d53e:    5410        .T      STRB     r0,[r2,r0]
        0x0001d540:    1c40        @.      ADDS     r0,r0,#1
        0x0001d542:    f5b05f80    ..._    CMP      r0,#0x1000
        0x0001d546:    d3f9        ..      BCC      0x1d53c ; main + 148
        0x0001d548:    2100        .!      MOVS     r1,#0
        0x0001d54a:    a09b        ..      ADR      r0,{pc}+0x26e ; 0x1d7b8
        0x0001d54c:    f7fffb00    ....    BL       am_util_stdio_printf ; 0x1cb50
        0x0001d550:    4882        .H      LDR      r0,[pc,#520] ; [0x1d75c] = 0x1000000c
        0x0001d552:    2100        .!      MOVS     r1,#0
        0x0001d554:    6ac2        .j      LDR      r2,[r0,#0x2c]
        0x0001d556:    4883        .H      LDR      r0,[pc,#524] ; [0x1d764] = 0x10000004
        0x0001d558:    6800        .h      LDR      r0,[r0,#0]
        0x0001d55a:    4790        .G      BLX      r2
        0x0001d55c:    4604        .F      MOV      r4,r0
        0x0001d55e:    b114        ..      CBZ      r4,0x1d566 ; main + 190
        0x0001d560:    a09a        ..      ADR      r0,{pc}+0x26c ; 0x1d7cc
        0x0001d562:    f7fffaf5    ....    BL       am_util_stdio_printf ; 0x1cb50
        0x0001d566:    487d        }H      LDR      r0,[pc,#500] ; [0x1d75c] = 0x1000000c
        0x0001d568:    6b01        .k      LDR      r1,[r0,#0x30]
        0x0001d56a:    487e        ~H      LDR      r0,[pc,#504] ; [0x1d764] = 0x10000004
        0x0001d56c:    6800        .h      LDR      r0,[r0,#0]
        0x0001d56e:    4788        .G      BLX      r1
        0x0001d570:    4604        .F      MOV      r4,r0
        0x0001d572:    b114        ..      CBZ      r4,0x1d57a ; main + 210
        0x0001d574:    a09f        ..      ADR      r0,{pc}+0x280 ; 0x1d7f4
        0x0001d576:    f7fffaeb    ....    BL       am_util_stdio_printf ; 0x1cb50
        0x0001d57a:    f04f56e0    O..V    MOV      r6,#0x1c000000
        0x0001d57e:    2500        .%      MOVS     r5,#0
        0x0001d580:    e00a        ..      B        0x1d598 ; main + 240
        0x0001d582:    6830        0h      LDR      r0,[r6,#0]
        0x0001d584:    1c40        @.      ADDS     r0,r0,#1
        0x0001d586:    b130        0.      CBZ      r0,0x1d596 ; main + 238
        0x0001d588:    a090        ..      ADR      r0,{pc}+0x244 ; 0x1d7cc
        0x0001d58a:    f7fffae1    ....    BL       am_util_stdio_printf ; 0x1cb50
        0x0001d58e:    f04f30ff    O..0    MOV      r0,#0xffffffff
        0x0001d592:    e8bd83f8    ....    POP      {r3-r9,pc}
        0x0001d596:    1c6d        m.      ADDS     r5,r5,#1
        0x0001d598:    f5b56f80    ...o    CMP      r5,#0x400
        0x0001d59c:    d3f1        ..      BCC      0x1d582 ; main + 218
        0x0001d59e:    486f        oH      LDR      r0,[pc,#444] ; [0x1d75c] = 0x1000000c
        0x0001d5a0:    6b41        Ak      LDR      r1,[r0,#0x34]
        0x0001d5a2:    4870        pH      LDR      r0,[pc,#448] ; [0x1d764] = 0x10000004
        0x0001d5a4:    6800        .h      LDR      r0,[r0,#0]
        0x0001d5a6:    4788        .G      BLX      r1
        0x0001d5a8:    4604        .F      MOV      r4,r0
        0x0001d5aa:    b114        ..      CBZ      r4,0x1d5b2 ; main + 266
        0x0001d5ac:    a09b        ..      ADR      r0,{pc}+0x270 ; 0x1d81c
        0x0001d5ae:    f7fffacf    ....    BL       am_util_stdio_printf ; 0x1cb50
        0x0001d5b2:    2200        ."      MOVS     r2,#0
        0x0001d5b4:    f44f5180    O..Q    MOV      r1,#0x1000
        0x0001d5b8:    a0a3        ..      ADR      r0,{pc}+0x290 ; 0x1d848
        0x0001d5ba:    f7fffac9    ....    BL       am_util_stdio_printf ; 0x1cb50
        0x0001d5be:    2001        .       MOVS     r0,#1
        0x0001d5c0:    9000        ..      STR      r0,[sp,#0]
        0x0001d5c2:    4866        fH      LDR      r0,[pc,#408] ; [0x1d75c] = 0x1000000c
        0x0001d5c4:    f44f5380    O..S    MOV      r3,#0x1000
        0x0001d5c8:    2200        ."      MOVS     r2,#0
        0x0001d5ca:    497a        zI      LDR      r1,[pc,#488] ; [0x1d7b4] = 0x100036dc
        0x0001d5cc:    6a05        .j      LDR      r5,[r0,#0x20]
        0x0001d5ce:    4865        eH      LDR      r0,[pc,#404] ; [0x1d764] = 0x10000004
        0x0001d5d0:    6800        .h      LDR      r0,[r0,#0]
        0x0001d5d2:    47a8        .G      BLX      r5
        0x0001d5d4:    4604        .F      MOV      r4,r0
        0x0001d5d6:    b114        ..      CBZ      r4,0x1d5de ; main + 310
        0x0001d5d8:    a0a3        ..      ADR      r0,{pc}+0x290 ; 0x1d868
        0x0001d5da:    f7fffab9    ....    BL       am_util_stdio_printf ; 0x1cb50
        0x0001d5de:    2200        ."      MOVS     r2,#0
        0x0001d5e0:    f44f5180    O..Q    MOV      r1,#0x1000
        0x0001d5e4:    a0ab        ..      ADR      r0,{pc}+0x2b0 ; 0x1d894
        0x0001d5e6:    f7fffab3    ....    BL       am_util_stdio_printf ; 0x1cb50
        0x0001d5ea:    2001        .       MOVS     r0,#1
        0x0001d5ec:    9000        ..      STR      r0,[sp,#0]
        0x0001d5ee:    485b        [H      LDR      r0,[pc,#364] ; [0x1d75c] = 0x1000000c
        0x0001d5f0:    f44f5380    O..S    MOV      r3,#0x1000
        0x0001d5f4:    2200        ."      MOVS     r2,#0
        0x0001d5f6:    49af        .I      LDR      r1,[pc,#700] ; [0x1d8b4] = 0x100046dc
        0x0001d5f8:    6a45        Ej      LDR      r5,[r0,#0x24]
        0x0001d5fa:    485a        ZH      LDR      r0,[pc,#360] ; [0x1d764] = 0x10000004
        0x0001d5fc:    6800        .h      LDR      r0,[r0,#0]
        0x0001d5fe:    47a8        .G      BLX      r5
        0x0001d600:    4604        .F      MOV      r4,r0
        0x0001d602:    b114        ..      CBZ      r4,0x1d60a ; main + 354
        0x0001d604:    a0ac        ..      ADR      r0,{pc}+0x2b4 ; 0x1d8b8
        0x0001d606:    f7fffaa3    ....    BL       am_util_stdio_printf ; 0x1cb50
        0x0001d60a:    a0b5        ..      ADR      r0,{pc}+0x2d6 ; 0x1d8e0
        0x0001d60c:    f7fffaa0    ....    BL       am_util_stdio_printf ; 0x1cb50
        0x0001d610:    2500        .%      MOVS     r5,#0
        0x0001d612:    e00a        ..      B        0x1d62a ; main + 386
        0x0001d614:    48a7        .H      LDR      r0,[pc,#668] ; [0x1d8b4] = 0x100046dc
        0x0001d616:    5d40        @]      LDRB     r0,[r0,r5]
        0x0001d618:    4966        fI      LDR      r1,[pc,#408] ; [0x1d7b4] = 0x100036dc
        0x0001d61a:    5d49        I]      LDRB     r1,[r1,r5]
        0x0001d61c:    4288        .B      CMP      r0,r1
        0x0001d61e:    d003        ..      BEQ      0x1d628 ; main + 384
        0x0001d620:    a0b8        ..      ADR      r0,{pc}+0x2e4 ; 0x1d904
        0x0001d622:    f7fffa95    ....    BL       am_util_stdio_printf ; 0x1cb50
        0x0001d626:    e003        ..      B        0x1d630 ; main + 392
        0x0001d628:    1c6d        m.      ADDS     r5,r5,#1
        0x0001d62a:    f5b55f80    ..._    CMP      r5,#0x1000
        0x0001d62e:    d3f1        ..      BCC      0x1d614 ; main + 364
        0x0001d630:    bf00        ..      NOP      
        0x0001d632:    2100        .!      MOVS     r1,#0
        0x0001d634:    a060        `.      ADR      r0,{pc}+0x184 ; 0x1d7b8
        0x0001d636:    f7fffa8b    ....    BL       am_util_stdio_printf ; 0x1cb50
        0x0001d63a:    4848        HH      LDR      r0,[pc,#288] ; [0x1d75c] = 0x1000000c
        0x0001d63c:    2100        .!      MOVS     r1,#0
        0x0001d63e:    6ac2        .j      LDR      r2,[r0,#0x2c]
        0x0001d640:    4848        HH      LDR      r0,[pc,#288] ; [0x1d764] = 0x10000004
        0x0001d642:    6800        .h      LDR      r0,[r0,#0]
        0x0001d644:    4790        .G      BLX      r2
        0x0001d646:    4604        .F      MOV      r4,r0
        0x0001d648:    b114        ..      CBZ      r4,0x1d650 ; main + 424
        0x0001d64a:    a060        `.      ADR      r0,{pc}+0x182 ; 0x1d7cc
        0x0001d64c:    f7fffa80    ....    BL       am_util_stdio_printf ; 0x1cb50
        0x0001d650:    a0b6        ..      ADR      r0,{pc}+0x2dc ; 0x1d92c
        0x0001d652:    f7fffa7d    ..}.    BL       am_util_stdio_printf ; 0x1cb50
        0x0001d656:    4841        AH      LDR      r0,[pc,#260] ; [0x1d75c] = 0x1000000c
        0x0001d658:    6b81        .k      LDR      r1,[r0,#0x38]
        0x0001d65a:    4842        BH      LDR      r0,[pc,#264] ; [0x1d764] = 0x10000004
        0x0001d65c:    6800        .h      LDR      r0,[r0,#0]
        0x0001d65e:    4788        .G      BLX      r1
        0x0001d660:    4604        .F      MOV      r4,r0
        0x0001d662:    b114        ..      CBZ      r4,0x1d66a ; main + 450
        0x0001d664:    a0bb        ..      ADR      r0,{pc}+0x2f0 ; 0x1d954
        0x0001d666:    f7fffa73    ..s.    BL       am_util_stdio_printf ; 0x1cb50
        0x0001d66a:    2200        ."      MOVS     r2,#0
        0x0001d66c:    2148        H!      MOVS     r1,#0x48
        0x0001d66e:    a0c2        ..      ADR      r0,{pc}+0x30a ; 0x1d978
        0x0001d670:    f7fffa6e    ..n.    BL       am_util_stdio_printf ; 0x1cb50
        0x0001d674:    2001        .       MOVS     r0,#1
        0x0001d676:    9000        ..      STR      r0,[sp,#0]
        0x0001d678:    4838        8H      LDR      r0,[pc,#224] ; [0x1d75c] = 0x1000000c
        0x0001d67a:    2348        H#      MOVS     r3,#0x48
        0x0001d67c:    2200        ."      MOVS     r2,#0
        0x0001d67e:    4639        9F      MOV      r1,r7
        0x0001d680:    6a05        .j      LDR      r5,[r0,#0x20]
        0x0001d682:    4838        8H      LDR      r0,[pc,#224] ; [0x1d764] = 0x10000004
        0x0001d684:    6800        .h      LDR      r0,[r0,#0]
        0x0001d686:    47a8        .G      BLX      r5
        0x0001d688:    4604        .F      MOV      r4,r0
        0x0001d68a:    b114        ..      CBZ      r4,0x1d692 ; main + 490
        0x0001d68c:    a0c8        ..      ADR      r0,{pc}+0x324 ; 0x1d9b0
        0x0001d68e:    f7fffa5f    .._.    BL       am_util_stdio_printf ; 0x1cb50
        0x0001d692:    a0d5        ..      ADR      r0,{pc}+0x356 ; 0x1d9e8
        0x0001d694:    f7fffa5c    ..\.    BL       am_util_stdio_printf ; 0x1cb50
        0x0001d698:    4830        0H      LDR      r0,[pc,#192] ; [0x1d75c] = 0x1000000c
        0x0001d69a:    6b01        .k      LDR      r1,[r0,#0x30]
        0x0001d69c:    4831        1H      LDR      r0,[pc,#196] ; [0x1d764] = 0x10000004
        0x0001d69e:    6800        .h      LDR      r0,[r0,#0]
        0x0001d6a0:    4788        .G      BLX      r1
        0x0001d6a2:    4604        .F      MOV      r4,r0
        0x0001d6a4:    b114        ..      CBZ      r4,0x1d6ac ; main + 516
        0x0001d6a6:    a0dd        ..      ADR      r0,{pc}+0x376 ; 0x1da1c
        0x0001d6a8:    f7fffa52    ..R.    BL       am_util_stdio_printf ; 0x1cb50
        0x0001d6ac:    482d        -H      LDR      r0,[pc,#180] ; [0x1d764] = 0x10000004
        0x0001d6ae:    6800        .h      LDR      r0,[r0,#0]
        0x0001d6b0:    f7fbfd34    ..4.    BL       am_devices_mspi_atxp032_enable_scrambling ; 0x1911c
        0x0001d6b4:    4604        .F      MOV      r4,r0
        0x0001d6b6:    b114        ..      CBZ      r4,0x1d6be ; main + 534
        0x0001d6b8:    a0a6        ..      ADR      r0,{pc}+0x29c ; 0x1d954
        0x0001d6ba:    f7fffa49    ..I.    BL       am_util_stdio_printf ; 0x1cb50
        0x0001d6be:    a0e1        ..      ADR      r0,{pc}+0x386 ; 0x1da44
        0x0001d6c0:    f7fffa46    ..F.    BL       am_util_stdio_printf ; 0x1cb50
        0x0001d6c4:    47c0        .G      BLX      r8
        0x0001d6c6:    a0e9        ..      ADR      r0,{pc}+0x3a6 ; 0x1da6c
        0x0001d6c8:    f7fffa42    ..B.    BL       am_util_stdio_printf ; 0x1cb50
        0x0001d6cc:    a0ed        ..      ADR      r0,{pc}+0x3b8 ; 0x1da84
        0x0001d6ce:    f7fffa3f    ..?.    BL       am_util_stdio_printf ; 0x1cb50
        0x0001d6d2:    4822        "H      LDR      r0,[pc,#136] ; [0x1d75c] = 0x1000000c
        0x0001d6d4:    6b41        Ak      LDR      r1,[r0,#0x34]
        0x0001d6d6:    4823        #H      LDR      r0,[pc,#140] ; [0x1d764] = 0x10000004
        0x0001d6d8:    6800        .h      LDR      r0,[r0,#0]
        0x0001d6da:    4788        .G      BLX      r1
        0x0001d6dc:    4604        .F      MOV      r4,r0
        0x0001d6de:    b114        ..      CBZ      r4,0x1d6e6 ; main + 574
        0x0001d6e0:    a04e        N.      ADR      r0,{pc}+0x13c ; 0x1d81c
        0x0001d6e2:    f7fffa35    ..5.    BL       am_util_stdio_printf ; 0x1cb50
        0x0001d6e6:    f7fafe5d    ..].    BL       am_hal_interrupt_master_disable ; 0x183a4
        0x0001d6ea:    492f        /I      LDR      r1,[pc,#188] ; [0x1d7a8] = 0x1e5e0
        0x0001d6ec:    f9910002    ....    LDRSB    r0,[r1,#2]
        0x0001d6f0:    2800        .(      CMP      r0,#0
        0x0001d6f2:    db0b        ..      BLT      0x1d70c ; main + 612
        0x0001d6f4:    f000021f    ....    AND      r2,r0,#0x1f
        0x0001d6f8:    2101        .!      MOVS     r1,#1
        0x0001d6fa:    4091        .@      LSLS     r1,r1,r2
        0x0001d6fc:    4aef        .J      LDR      r2,[pc,#956] ; [0x1dabc] = 0xe000e180
        0x0001d6fe:    0943        C.      LSRS     r3,r0,#5
        0x0001d700:    f8421023    B.#.    STR      r1,[r2,r3,LSL #2]
        0x0001d704:    f3bf8f4f    ..O.    DSB      
        0x0001d708:    f3bf8f6f    ..o.    ISB      
        0x0001d70c:    bf00        ..      NOP      
        0x0001d70e:    4813        .H      LDR      r0,[pc,#76] ; [0x1d75c] = 0x1000000c
        0x0001d710:    6981        .i      LDR      r1,[r0,#0x18]
        0x0001d712:    4814        .H      LDR      r0,[pc,#80] ; [0x1d764] = 0x10000004
        0x0001d714:    6800        .h      LDR      r0,[r0,#0]
        0x0001d716:    4788        .G      BLX      r1
        0x0001d718:    4604        .F      MOV      r4,r0
        0x0001d71a:    b114        ..      CBZ      r4,0x1d722 ; main + 634
        0x0001d71c:    a0e8        ..      ADR      r0,{pc}+0x3a4 ; 0x1dac0
        0x0001d71e:    f7fffa17    ....    BL       am_util_stdio_printf ; 0x1cb50
        0x0001d722:    a0f3        ..      ADR      r0,{pc}+0x3ce ; 0x1daf0
        0x0001d724:    f7fffa14    ....    BL       am_util_stdio_printf ; 0x1cb50
        0x0001d728:    e002        ..      B        0x1d730 ; main + 648
        0x0001d72a:    2001        .       MOVS     r0,#1
        0x0001d72c:    f7fefdaa    ....    BL       am_hal_sysctrl_sleep ; 0x1c284
        0x0001d730:    e7fb        ..      B        0x1d72a ; main + 642
    $d
        0x0001d732:    0000        ..      DCW    0
        0x0001d734:    00018335    5...    DCD    99125
        0x0001d738:    1c000001    ....    DCD    469762049
        0x0001d73c:    10000000    ....    DCD    268435456
        0x0001d740:    6c6f7041    Apol    DCD    1819242561
        0x0001d744:    20346f6c    lo4     DCD    540307308
        0x0001d748:    64617551    Quad    DCD    1684108625
        0x0001d74c:    50534d20     MSP    DCD    1347636512
        0x0001d750:    78452049    I Ex    DCD    2017796169
        0x0001d754:    6c706d61    ampl    DCD    1819307361
        0x0001d758:    000a0a65    e...    DCD    658021
        0x0001d75c:    1000000c    ....    DCD    268435468
        0x0001d760:    10000008    ....    DCD    268435464
        0x0001d764:    10000004    ....    DCD    268435460
        0x0001d768:    0001e5cc    ....    DCD    124364
        0x0001d76c:    6c696146    Fail    DCD    1818845510
        0x0001d770:    74206465    ed t    DCD    1948279909
        0x0001d774:    6f63206f    o co    DCD    1868767343
        0x0001d778:    6769666e    nfig    DCD    1734960750
        0x0001d77c:    20657275    ure     DCD    543519349
        0x0001d780:    20656874    the     DCD    543516788
        0x0001d784:    4950534d    MSPI    DCD    1230000973
        0x0001d788:    646e6120     and    DCD    1684955424
        0x0001d78c:    616c4620     Fla    DCD    1634485792
        0x0001d790:    44206873    sh D    DCD    1142974579
        0x0001d794:    63697665    evic    DCD    1667855973
        0x0001d798:    6f632065    e co    DCD    1868767333
        0x0001d79c:    63657272    rrec    DCD    1667592818
        0x0001d7a0:    21796c74    tly!    DCD    561605748
        0x0001d7a4:    0000000a    ....    DCD    10
        0x0001d7a8:    0001e5e0    ....    DCD    124384
        0x0001d7ac:    e000e400    ....    DCD    3758154752
        0x0001d7b0:    e000ed18    ....    DCD    3758157080
        0x0001d7b4:    100036dc    .6..    DCD    268449500
        0x0001d7b8:    73617245    Eras    DCD    1935766085
        0x0001d7bc:    20676e69    ing     DCD    543649385
        0x0001d7c0:    74636553    Sect    DCD    1952671059
        0x0001d7c4:    2520726f    or %    DCD    622883439
        0x0001d7c8:    00000a64    d...    DCD    2660
        0x0001d7cc:    6c696146    Fail    DCD    1818845510
        0x0001d7d0:    74206465    ed t    DCD    1948279909
        0x0001d7d4:    7265206f    o er    DCD    1919230063
        0x0001d7d8:    20657361    ase     DCD    543519585
        0x0001d7dc:    73616c46    Flas    DCD    1935764550
        0x0001d7e0:    65442068    h De    DCD    1698963560
        0x0001d7e4:    65636976    vice    DCD    1701013878
        0x0001d7e8:    63657320     sec    DCD    1667592992
        0x0001d7ec:    21726f74    tor!    DCD    561147764
        0x0001d7f0:    0000000a    ....    DCD    10
        0x0001d7f4:    6c696146    Fail    DCD    1818845510
        0x0001d7f8:    74206465    ed t    DCD    1948279909
        0x0001d7fc:    6e65206f    o en    DCD    1852121199
        0x0001d800:    656c6261    able    DCD    1701601889
        0x0001d804:    50495820     XIP    DCD    1346983968
        0x0001d808:    646f6d20     mod    DCD    1685024032
        0x0001d80c:    6e692065    e in    DCD    1852383333
        0x0001d810:    65687420     the    DCD    1701344288
        0x0001d814:    50534d20     MSP    DCD    1347636512
        0x0001d818:    000a2149    I!..    DCD    663881
        0x0001d81c:    6c696146    Fail    DCD    1818845510
        0x0001d820:    74206465    ed t    DCD    1948279909
        0x0001d824:    6964206f    o di    DCD    1768169583
        0x0001d828:    6c626173    sabl    DCD    1818386803
        0x0001d82c:    49582065    e XI    DCD    1230512229
        0x0001d830:    6f6d2050    P mo    DCD    1869422672
        0x0001d834:    69206564    de i    DCD    1763730788
        0x0001d838:    6874206e    n th    DCD    1752440942
        0x0001d83c:    534d2065    e MS    DCD    1397563493
        0x0001d840:    0a214950    PI!.    DCD    169953616
        0x0001d844:    00000000    ....    DCD    0
        0x0001d848:    74697257    Writ    DCD    1953067607
        0x0001d84c:    20676e69    ing     DCD    543649385
        0x0001d850:    42206425    %d B    DCD    1109419045
        0x0001d854:    73657479    ytes    DCD    1936028793
        0x0001d858:    206f7420     to     DCD    544175136
        0x0001d85c:    74636553    Sect    DCD    1952671059
        0x0001d860:    2520726f    or %    DCD    622883439
        0x0001d864:    00000a64    d...    DCD    2660
        0x0001d868:    6c696146    Fail    DCD    1818845510
        0x0001d86c:    74206465    ed t    DCD    1948279909
        0x0001d870:    7277206f    o wr    DCD    1920409711
        0x0001d874:    20657469    ite     DCD    543519849
        0x0001d878:    66667562    buff    DCD    1717990754
        0x0001d87c:    74207265    er t    DCD    1948283493
        0x0001d880:    6c46206f    o Fl    DCD    1816535151
        0x0001d884:    20687361    ash     DCD    543716193
        0x0001d888:    69766544    Devi    DCD    1769366852
        0x0001d88c:    0a216563    ce!.    DCD    169960803
        0x0001d890:    00000000    ....    DCD    0
        0x0001d894:    64616552    Read    DCD    1684104530
        0x0001d898:    20642520     %d     DCD    543434016
        0x0001d89c:    65747942    Byte    DCD    1702132034
        0x0001d8a0:    72662073    s fr    DCD    1919295603
        0x0001d8a4:    53206d6f    om S    DCD    1394634095
        0x0001d8a8:    6f746365    ecto    DCD    1869898597
        0x0001d8ac:    64252072    r %d    DCD    1680154738
        0x0001d8b0:    0000000a    ....    DCD    10
        0x0001d8b4:    100046dc    .F..    DCD    268453596
        0x0001d8b8:    6c696146    Fail    DCD    1818845510
        0x0001d8bc:    74206465    ed t    DCD    1948279909
        0x0001d8c0:    6572206f    o re    DCD    1701978223
        0x0001d8c4:    62206461    ad b    DCD    1646290017
        0x0001d8c8:    65666675    uffe    DCD    1701209717
        0x0001d8cc:    6f742072    r to    DCD    1869881458
        0x0001d8d0:    616c4620     Fla    DCD    1634485792
        0x0001d8d4:    44206873    sh D    DCD    1142974579
        0x0001d8d8:    63697665    evic    DCD    1667855973
        0x0001d8dc:    000a2165    e!..    DCD    663909
        0x0001d8e0:    706d6f43    Comp    DCD    1886220099
        0x0001d8e4:    6e697261    arin    DCD    1852404321
        0x0001d8e8:    68742067    g th    DCD    1752440935
        0x0001d8ec:    58542065    e TX    DCD    1481908325
        0x0001d8f0:    646e6120     and    DCD    1684955424
        0x0001d8f4:    20585220     RX     DCD    542659104
        0x0001d8f8:    66667542    Buff    DCD    1717990722
        0x0001d8fc:    0a737265    ers.    DCD    175338085
        0x0001d900:    00000000    ....    DCD    0
        0x0001d904:    61205854    TX a    DCD    1629509716
        0x0001d908:    5220646e    nd R    DCD    1377854574
        0x0001d90c:    75622058    X bu    DCD    1969365080
        0x0001d910:    72656666    ffer    DCD    1919247974
        0x0001d914:    61662073    s fa    DCD    1634082931
        0x0001d918:    64656c69    iled    DCD    1684368489
        0x0001d91c:    206f7420     to     DCD    544175136
        0x0001d920:    706d6f63    comp    DCD    1886220131
        0x0001d924:    21657261    are!    DCD    560296545
        0x0001d928:    0000000a    ....    DCD    10
        0x0001d92c:    74747550    Putt    DCD    1953789264
        0x0001d930:    20676e69    ing     DCD    543649385
        0x0001d934:    20656874    the     DCD    543516788
        0x0001d938:    4950534d    MSPI    DCD    1230000973
        0x0001d93c:    746e6920     int    DCD    1953392928
        0x0001d940:    6353206f    o Sc    DCD    1666392175
        0x0001d944:    626d6172    ramb    DCD    1651335538
        0x0001d948:    676e696c    ling    DCD    1735289196
        0x0001d94c:    646f6d20     mod    DCD    1685024032
        0x0001d950:    00000a65    e...    DCD    2661
        0x0001d954:    6c696146    Fail    DCD    1818845510
        0x0001d958:    74206465    ed t    DCD    1948279909
        0x0001d95c:    6e65206f    o en    DCD    1852121199
        0x0001d960:    656c6261    able    DCD    1701601889
        0x0001d964:    50534d20     MSP    DCD    1347636512
        0x0001d968:    63732049    I sc    DCD    1668489289
        0x0001d96c:    626d6172    ramb    DCD    1651335538
        0x0001d970:    676e696c    ling    DCD    1735289196
        0x0001d974:    00000a21    !...    DCD    2593
        0x0001d978:    74697257    Writ    DCD    1953067607
        0x0001d97c:    20676e69    ing     DCD    543649385
        0x0001d980:    63657845    Exec    DCD    1667594309
        0x0001d984:    62617475    utab    DCD    1650553973
        0x0001d988:    6620656c    le f    DCD    1713399148
        0x0001d98c:    74636e75    unct    DCD    1952673397
        0x0001d990:    206e6f69    ion     DCD    544108393
        0x0001d994:    2520666f    of %    DCD    622880367
        0x0001d998:    79422064    d By    DCD    2034376804
        0x0001d99c:    20736574    tes     DCD    544433524
        0x0001d9a0:    53206f74    to S    DCD    1394634612
        0x0001d9a4:    6f746365    ecto    DCD    1869898597
        0x0001d9a8:    64252072    r %d    DCD    1680154738
        0x0001d9ac:    0000000a    ....    DCD    10
        0x0001d9b0:    6c696146    Fail    DCD    1818845510
        0x0001d9b4:    74206465    ed t    DCD    1948279909
        0x0001d9b8:    7277206f    o wr    DCD    1920409711
        0x0001d9bc:    20657469    ite     DCD    543519849
        0x0001d9c0:    63657865    exec    DCD    1667594341
        0x0001d9c4:    62617475    utab    DCD    1650553973
        0x0001d9c8:    6620656c    le f    DCD    1713399148
        0x0001d9cc:    74636e75    unct    DCD    1952673397
        0x0001d9d0:    206e6f69    ion     DCD    544108393
        0x0001d9d4:    46206f74    to F    DCD    1176530804
        0x0001d9d8:    6873616c    lash    DCD    1752392044
        0x0001d9dc:    76654420     Dev    DCD    1986348064
        0x0001d9e0:    21656369    ice!    DCD    560292713
        0x0001d9e4:    0000000a    ....    DCD    10
        0x0001d9e8:    74747550    Putt    DCD    1953789264
        0x0001d9ec:    20676e69    ing     DCD    543649385
        0x0001d9f0:    20656874    the     DCD    543516788
        0x0001d9f4:    4950534d    MSPI    DCD    1230000973
        0x0001d9f8:    646e6120     and    DCD    1684955424
        0x0001d9fc:    74784520     Ext    DCD    1954039072
        0x0001da00:    616e7265    erna    DCD    1634628197
        0x0001da04:    6c46206c    l Fl    DCD    1816535148
        0x0001da08:    20687361    ash     DCD    543716193
        0x0001da0c:    6f746e69    into    DCD    1869901417
        0x0001da10:    50495820     XIP    DCD    1346983968
        0x0001da14:    646f6d20     mod    DCD    1685024032
        0x0001da18:    00000a65    e...    DCD    2661
        0x0001da1c:    6c696146    Fail    DCD    1818845510
        0x0001da20:    74206465    ed t    DCD    1948279909
        0x0001da24:    7570206f    o pu    DCD    1970282607
        0x0001da28:    68742074    t th    DCD    1752440948
        0x0001da2c:    534d2065    e MS    DCD    1397563493
        0x0001da30:    69204950    PI i    DCD    1763723600
        0x0001da34:    206f746e    nto     DCD    544175214
        0x0001da38:    20504958    XIP     DCD    542132568
        0x0001da3c:    65646f6d    mode    DCD    1701080941
        0x0001da40:    00000a21    !...    DCD    2593
        0x0001da44:    706d754a    Jump    DCD    1886221642
        0x0001da48:    20676e69    ing     DCD    543649385
        0x0001da4c:    66206f74    to f    DCD    1713401716
        0x0001da50:    74636e75    unct    DCD    1952673397
        0x0001da54:    206e6f69    ion     DCD    544108393
        0x0001da58:    45206e69    in E    DCD    1159753321
        0x0001da5c:    72657478    xter    DCD    1919251576
        0x0001da60:    206c616e    nal     DCD    543973742
        0x0001da64:    73616c46    Flas    DCD    1935764550
        0x0001da68:    00000a68    h...    DCD    2664
        0x0001da6c:    75746552    Retu    DCD    1970562386
        0x0001da70:    64656e72    rned    DCD    1684369010
        0x0001da74:    6f726620     fro    DCD    1869768224
        0x0001da78:    4958206d    m XI    DCD    1230512237
        0x0001da7c:    61632050    P ca    DCD    1633886288
        0x0001da80:    000a6c6c    ll..    DCD    683116
        0x0001da84:    61736944    Disa    DCD    1634953540
        0x0001da88:    6e696c62    blin    DCD    1852402786
        0x0001da8c:    68742067    g th    DCD    1752440935
        0x0001da90:    534d2065    e MS    DCD    1397563493
        0x0001da94:    61204950    PI a    DCD    1629505872
        0x0001da98:    4520646e    nd E    DCD    1159750766
        0x0001da9c:    72657478    xter    DCD    1919251576
        0x0001daa0:    206c616e    nal     DCD    543973742
        0x0001daa4:    73616c46    Flas    DCD    1935764550
        0x0001daa8:    72662068    h fr    DCD    1919295592
        0x0001daac:    58206d6f    om X    DCD    1478520175
        0x0001dab0:    6d205049    IP m    DCD    1830834249
        0x0001dab4:    0a65646f    ode.    DCD    174417007
        0x0001dab8:    00000000    ....    DCD    0
        0x0001dabc:    e000e180    ....    DCD    3758154112
        0x0001dac0:    6c696146    Fail    DCD    1818845510
        0x0001dac4:    74206465    ed t    DCD    1948279909
        0x0001dac8:    6873206f    o sh    DCD    1752375407
        0x0001dacc:    6f647475    utdo    DCD    1868854389
        0x0001dad0:    74206e77    wn t    DCD    1948282487
        0x0001dad4:    4d206568    he M    DCD    1293968744
        0x0001dad8:    20495053    SPI     DCD    541675603
        0x0001dadc:    20646e61    and     DCD    543452769
        0x0001dae0:    73616c46    Flas    DCD    1935764550
        0x0001dae4:    65442068    h De    DCD    1698963560
        0x0001dae8:    65636976    vice    DCD    1701013878
        0x0001daec:    00000a21    !...    DCD    2593
        0x0001daf0:    6c6f7041    Apol    DCD    1819242561
        0x0001daf4:    20346f6c    lo4     DCD    540307308
        0x0001daf8:    4950534d    MSPI    DCD    1230000973
        0x0001dafc:    61784520     Exa    DCD    1635271968
        0x0001db00:    656c706d    mple    DCD    1701605485
        0x0001db04:    6d6f4320     Com    DCD    1836008224
        0x0001db08:    74656c70    plet    DCD    1952803952
        0x0001db0c:    00000a65    e...    DCD    2661
    $t
    i.mspi_device_configure
    mspi_device_configure
        0x0001db10:    7a82        .z      LDRB     r2,[r0,#0xa]
        0x0001db12:    6841        Ah      LDR      r1,[r0,#4]
        0x0001db14:    2a14        .*      CMP      r2,#0x14
        0x0001db16:    f0808104    ....    BCS.W    0x1dd22 ; mspi_device_configure + 530
        0x0001db1a:    e8dff002    ....    TBB      [pc,r2]
    $d
        0x0001db1e:    2a0a        .*      DCW    10762
        0x0001db20:    a2846648    Hf..    DCD    2726585928
        0x0001db24:    dcc0dcc0    ....    DCD    3703626944
        0x0001db28:    fbfcfdfe    ....    DCD    4227661310
        0x0001db2c:    f7f8f9fa    ....    DCD    4160289274
        0x0001db30:    f5f6        ..      DCW    62966
    $t
        0x0001db32:    0309        ..      LSLS     r1,r1,#12
        0x0001db34:    f1014180    ...A    ADD      r1,r1,#0x40000000
        0x0001db38:    f50121c0    ...!    ADD      r1,r1,#0x60000
        0x0001db3c:    f8d12084    ...     LDR      r2,[r1,#0x84]
        0x0001db40:    f022020f    "...    BIC      r2,r2,#0xf
        0x0001db44:    1c52        R.      ADDS     r2,r2,#1
        0x0001db46:    f8c12084    ...     STR      r2,[r1,#0x84]
        0x0001db4a:    f8d12084    ...     LDR      r2,[r1,#0x84]
        0x0001db4e:    f0420280    B...    ORR      r2,r2,#0x80
        0x0001db52:    f8c12084    ...     STR      r2,[r1,#0x84]
        0x0001db56:    f8d12090    ...     LDR      r2,[r1,#0x90]
        0x0001db5a:    f42262e0    "..b    BIC      r2,r2,#0x700
        0x0001db5e:    f8c12090    ...     STR      r2,[r1,#0x90]
        0x0001db62:    7a40        @z      LDRB     r0,[r0,#9]
        0x0001db64:    2800        .(      CMP      r0,#0
        0x0001db66:    f0408202    @...    BNE.W    0x1df6e ; mspi_device_configure + 1118
        0x0001db6a:    f000ba03    ....    B.W      0x1df74 ; mspi_device_configure + 1124
        0x0001db6e:    6448        Hd      STR      r0,[r1,#0x44]
        0x0001db70:    e0d7        ..      B        0x1dd22 ; mspi_device_configure + 530
        0x0001db72:    0309        ..      LSLS     r1,r1,#12
        0x0001db74:    f1014180    ...A    ADD      r1,r1,#0x40000000
        0x0001db78:    f50121c0    ...!    ADD      r1,r1,#0x60000
        0x0001db7c:    f8d12084    ...     LDR      r2,[r1,#0x84]
        0x0001db80:    f022020f    "...    BIC      r2,r2,#0xf
        0x0001db84:    1c92        ..      ADDS     r2,r2,#2
        0x0001db86:    f8c12084    ...     STR      r2,[r1,#0x84]
        0x0001db8a:    f8d12084    ...     LDR      r2,[r1,#0x84]
        0x0001db8e:    f0420280    B...    ORR      r2,r2,#0x80
        0x0001db92:    f8c12084    ...     STR      r2,[r1,#0x84]
        0x0001db96:    f8d12090    ...     LDR      r2,[r1,#0x90]
        0x0001db9a:    f42262e0    "..b    BIC      r2,r2,#0x700
        0x0001db9e:    f8c12090    ...     STR      r2,[r1,#0x90]
        0x0001dba2:    7a40        @z      LDRB     r0,[r0,#9]
        0x0001dba4:    2800        .(      CMP      r0,#0
        0x0001dba6:    f04081e2    @...    BNE.W    0x1df6e ; mspi_device_configure + 1118
        0x0001dbaa:    f000b9e3    ....    B.W      0x1df74 ; mspi_device_configure + 1124
        0x0001dbae:    0309        ..      LSLS     r1,r1,#12
        0x0001dbb0:    f1014180    ...A    ADD      r1,r1,#0x40000000
        0x0001dbb4:    f50121c0    ...!    ADD      r1,r1,#0x60000
        0x0001dbb8:    f8d12084    ...     LDR      r2,[r1,#0x84]
        0x0001dbbc:    f022020f    "...    BIC      r2,r2,#0xf
        0x0001dbc0:    1d52        R.      ADDS     r2,r2,#5
        0x0001dbc2:    f8c12084    ...     STR      r2,[r1,#0x84]
        0x0001dbc6:    f8d12084    ...     LDR      r2,[r1,#0x84]
        0x0001dbca:    f0220280    "...    BIC      r2,r2,#0x80
        0x0001dbce:    f8c12084    ...     STR      r2,[r1,#0x84]
        0x0001dbd2:    f8d12090    ...     LDR      r2,[r1,#0x90]
        0x0001dbd6:    f42262e0    "..b    BIC      r2,r2,#0x700
        0x0001dbda:    f8c12090    ...     STR      r2,[r1,#0x90]
        0x0001dbde:    7a40        @z      LDRB     r0,[r0,#9]
        0x0001dbe0:    2800        .(      CMP      r0,#0
        0x0001dbe2:    f04081c4    @...    BNE.W    0x1df6e ; mspi_device_configure + 1118
        0x0001dbe6:    f000b9c5    ....    B.W      0x1df74 ; mspi_device_configure + 1124
        0x0001dbea:    0309        ..      LSLS     r1,r1,#12
        0x0001dbec:    f1014180    ...A    ADD      r1,r1,#0x40000000
        0x0001dbf0:    f50121c0    ...!    ADD      r1,r1,#0x60000
        0x0001dbf4:    f8d12084    ...     LDR      r2,[r1,#0x84]
        0x0001dbf8:    f022020f    "...    BIC      r2,r2,#0xf
        0x0001dbfc:    1d92        ..      ADDS     r2,r2,#6
        0x0001dbfe:    f8c12084    ...     STR      r2,[r1,#0x84]
        0x0001dc02:    f8d12084    ...     LDR      r2,[r1,#0x84]
        0x0001dc06:    f0220280    "...    BIC      r2,r2,#0x80
        0x0001dc0a:    f8c12084    ...     STR      r2,[r1,#0x84]
        0x0001dc0e:    f8d12090    ...     LDR      r2,[r1,#0x90]
        0x0001dc12:    f42262e0    "..b    BIC      r2,r2,#0x700
        0x0001dc16:    f8c12090    ...     STR      r2,[r1,#0x90]
        0x0001dc1a:    7a40        @z      LDRB     r0,[r0,#9]
        0x0001dc1c:    2800        .(      CMP      r0,#0
        0x0001dc1e:    f04081a6    @...    BNE.W    0x1df6e ; mspi_device_configure + 1118
        0x0001dc22:    f000b9a7    ....    B.W      0x1df74 ; mspi_device_configure + 1124
        0x0001dc26:    0309        ..      LSLS     r1,r1,#12
        0x0001dc28:    f1014180    ...A    ADD      r1,r1,#0x40000000
        0x0001dc2c:    f50121c0    ...!    ADD      r1,r1,#0x60000
        0x0001dc30:    f8d12084    ...     LDR      r2,[r1,#0x84]
        0x0001dc34:    f022020f    "...    BIC      r2,r2,#0xf
        0x0001dc38:    3209        .2      ADDS     r2,r2,#9
        0x0001dc3a:    f8c12084    ...     STR      r2,[r1,#0x84]
        0x0001dc3e:    f8d12084    ...     LDR      r2,[r1,#0x84]
        0x0001dc42:    f0220280    "...    BIC      r2,r2,#0x80
        0x0001dc46:    f8c12084    ...     STR      r2,[r1,#0x84]
        0x0001dc4a:    f8d12090    ...     LDR      r2,[r1,#0x90]
        0x0001dc4e:    f42262e0    "..b    BIC      r2,r2,#0x700
        0x0001dc52:    f8c12090    ...     STR      r2,[r1,#0x90]
        0x0001dc56:    7a40        @z      LDRB     r0,[r0,#9]
        0x0001dc58:    2800        .(      CMP      r0,#0
        0x0001dc5a:    f040814d    @.M.    BNE.W    0x1def8 ; mspi_device_configure + 1000
        0x0001dc5e:    f000b94e    ..N.    B.W      0x1defe ; mspi_device_configure + 1006
        0x0001dc62:    0309        ..      LSLS     r1,r1,#12
        0x0001dc64:    f1014180    ...A    ADD      r1,r1,#0x40000000
        0x0001dc68:    f50121c0    ...!    ADD      r1,r1,#0x60000
        0x0001dc6c:    f8d12084    ...     LDR      r2,[r1,#0x84]
        0x0001dc70:    f022020f    "...    BIC      r2,r2,#0xf
        0x0001dc74:    320a        .2      ADDS     r2,r2,#0xa
        0x0001dc76:    f8c12084    ...     STR      r2,[r1,#0x84]
        0x0001dc7a:    f8d12084    ...     LDR      r2,[r1,#0x84]
        0x0001dc7e:    f0220280    "...    BIC      r2,r2,#0x80
        0x0001dc82:    f8c12084    ...     STR      r2,[r1,#0x84]
        0x0001dc86:    f8d12090    ...     LDR      r2,[r1,#0x90]
        0x0001dc8a:    f42262e0    "..b    BIC      r2,r2,#0x700
        0x0001dc8e:    f8c12090    ...     STR      r2,[r1,#0x90]
        0x0001dc92:    7a40        @z      LDRB     r0,[r0,#9]
        0x0001dc94:    2800        .(      CMP      r0,#0
        0x0001dc96:    f040812f    @./.    BNE.W    0x1def8 ; mspi_device_configure + 1000
        0x0001dc9a:    f000b930    ..0.    B.W      0x1defe ; mspi_device_configure + 1006
        0x0001dc9e:    0308        ..      LSLS     r0,r1,#12
        0x0001dca0:    f1004080    ...@    ADD      r0,r0,#0x40000000
        0x0001dca4:    f50020c0    ...     ADD      r0,r0,#0x60000
        0x0001dca8:    f8d01084    ....    LDR      r1,[r0,#0x84]
        0x0001dcac:    f021010f    !...    BIC      r1,r1,#0xf
        0x0001dcb0:    310d        .1      ADDS     r1,r1,#0xd
        0x0001dcb2:    f8c01084    ....    STR      r1,[r0,#0x84]
        0x0001dcb6:    f8d01084    ....    LDR      r1,[r0,#0x84]
        0x0001dcba:    f0210180    !...    BIC      r1,r1,#0x80
        0x0001dcbe:    f8c01084    ....    STR      r1,[r0,#0x84]
        0x0001dcc2:    f8d01090    ....    LDR      r1,[r0,#0x90]
        0x0001dcc6:    f42161e0    !..a    BIC      r1,r1,#0x700
        0x0001dcca:    f8c01090    ....    STR      r1,[r0,#0x90]
        0x0001dcce:    f24031ff    @..1    MOV      r1,#0x3ff
        0x0001dcd2:    6441        Ad      STR      r1,[r0,#0x44]
        0x0001dcd4:    e025        %.      B        0x1dd22 ; mspi_device_configure + 530
        0x0001dcd6:    0308        ..      LSLS     r0,r1,#12
        0x0001dcd8:    f1004080    ...@    ADD      r0,r0,#0x40000000
        0x0001dcdc:    f50020c0    ...     ADD      r0,r0,#0x60000
        0x0001dce0:    f8d01084    ....    LDR      r1,[r0,#0x84]
        0x0001dce4:    f021010f    !...    BIC      r1,r1,#0xf
        0x0001dce8:    310e        .1      ADDS     r1,r1,#0xe
        0x0001dcea:    f8c01084    ....    STR      r1,[r0,#0x84]
        0x0001dcee:    f8d01084    ....    LDR      r1,[r0,#0x84]
        0x0001dcf2:    f0210180    !...    BIC      r1,r1,#0x80
        0x0001dcf6:    f8c01084    ....    STR      r1,[r0,#0x84]
        0x0001dcfa:    f8d01090    ....    LDR      r1,[r0,#0x90]
        0x0001dcfe:    f42161e0    !..a    BIC      r1,r1,#0x700
        0x0001dd02:    f8c01090    ....    STR      r1,[r0,#0x90]
        0x0001dd06:    e009        ..      B        0x1dd1c ; mspi_device_configure + 524
        0x0001dd08:    e117        ..      B        0x1df3a ; mspi_device_configure + 1066
        0x0001dd0a:    e0fb        ..      B        0x1df04 ; mspi_device_configure + 1012
        0x0001dd0c:    e0da        ..      B        0x1dec4 ; mspi_device_configure + 948
        0x0001dd0e:    e0bd        ..      B        0x1de8c ; mspi_device_configure + 892
        0x0001dd10:    e09f        ..      B        0x1de52 ; mspi_device_configure + 834
        0x0001dd12:    e080        ..      B        0x1de16 ; mspi_device_configure + 774
        0x0001dd14:    e061        a.      B        0x1ddda ; mspi_device_configure + 714
        0x0001dd16:    e042        B.      B        0x1dd9e ; mspi_device_configure + 654
        0x0001dd18:    e023        #.      B        0x1dd62 ; mspi_device_configure + 594
        0x0001dd1a:    e004        ..      B        0x1dd26 ; mspi_device_configure + 534
        0x0001dd1c:    f24031ff    @..1    MOV      r1,#0x3ff
        0x0001dd20:    6441        Ad      STR      r1,[r0,#0x44]
        0x0001dd22:    2000        .       MOVS     r0,#0
        0x0001dd24:    4770        pG      BX       lr
        0x0001dd26:    0309        ..      LSLS     r1,r1,#12
        0x0001dd28:    f1014180    ...A    ADD      r1,r1,#0x40000000
        0x0001dd2c:    f50121c0    ...!    ADD      r1,r1,#0x60000
        0x0001dd30:    f8d12084    ...     LDR      r2,[r1,#0x84]
        0x0001dd34:    f022020f    "...    BIC      r2,r2,#0xf
        0x0001dd38:    1c52        R.      ADDS     r2,r2,#1
        0x0001dd3a:    f8c12084    ...     STR      r2,[r1,#0x84]
        0x0001dd3e:    f8d12084    ...     LDR      r2,[r1,#0x84]
        0x0001dd42:    f0220280    "...    BIC      r2,r2,#0x80
        0x0001dd46:    f8c12084    ...     STR      r2,[r1,#0x84]
        0x0001dd4a:    f8d12090    ...     LDR      r2,[r1,#0x90]
        0x0001dd4e:    f42262e0    "..b    BIC      r2,r2,#0x700
        0x0001dd52:    f5027280    ...r    ADD      r2,r2,#0x100
        0x0001dd56:    f8c12090    ...     STR      r2,[r1,#0x90]
        0x0001dd5a:    7a40        @z      LDRB     r0,[r0,#9]
        0x0001dd5c:    2800        .(      CMP      r0,#0
        0x0001dd5e:    d177        w.      BNE      0x1de50 ; mspi_device_configure + 832
        0x0001dd60:    e108        ..      B        0x1df74 ; mspi_device_configure + 1124
        0x0001dd62:    0309        ..      LSLS     r1,r1,#12
        0x0001dd64:    f1014180    ...A    ADD      r1,r1,#0x40000000
        0x0001dd68:    f50121c0    ...!    ADD      r1,r1,#0x60000
        0x0001dd6c:    f8d12084    ...     LDR      r2,[r1,#0x84]
        0x0001dd70:    f022020f    "...    BIC      r2,r2,#0xf
        0x0001dd74:    1c92        ..      ADDS     r2,r2,#2
        0x0001dd76:    f8c12084    ...     STR      r2,[r1,#0x84]
        0x0001dd7a:    f8d12084    ...     LDR      r2,[r1,#0x84]
        0x0001dd7e:    f0220280    "...    BIC      r2,r2,#0x80
        0x0001dd82:    f8c12084    ...     STR      r2,[r1,#0x84]
        0x0001dd86:    f8d12090    ...     LDR      r2,[r1,#0x90]
        0x0001dd8a:    f42262e0    "..b    BIC      r2,r2,#0x700
        0x0001dd8e:    f5027280    ...r    ADD      r2,r2,#0x100
        0x0001dd92:    f8c12090    ...     STR      r2,[r1,#0x90]
        0x0001dd96:    7a40        @z      LDRB     r0,[r0,#9]
        0x0001dd98:    2800        .(      CMP      r0,#0
        0x0001dd9a:    d159        Y.      BNE      0x1de50 ; mspi_device_configure + 832
        0x0001dd9c:    e0ea        ..      B        0x1df74 ; mspi_device_configure + 1124
        0x0001dd9e:    0309        ..      LSLS     r1,r1,#12
        0x0001dda0:    f1014180    ...A    ADD      r1,r1,#0x40000000
        0x0001dda4:    f50121c0    ...!    ADD      r1,r1,#0x60000
        0x0001dda8:    f8d12084    ...     LDR      r2,[r1,#0x84]
        0x0001ddac:    f022020f    "...    BIC      r2,r2,#0xf
        0x0001ddb0:    1c52        R.      ADDS     r2,r2,#1
        0x0001ddb2:    f8c12084    ...     STR      r2,[r1,#0x84]
        0x0001ddb6:    f8d12084    ...     LDR      r2,[r1,#0x84]
        0x0001ddba:    f0220280    "...    BIC      r2,r2,#0x80
        0x0001ddbe:    f8c12084    ...     STR      r2,[r1,#0x84]
        0x0001ddc2:    f8d12090    ...     LDR      r2,[r1,#0x90]
        0x0001ddc6:    f42262e0    "..b    BIC      r2,r2,#0x700
        0x0001ddca:    f5027240    ..@r    ADD      r2,r2,#0x300
        0x0001ddce:    f8c12090    ...     STR      r2,[r1,#0x90]
        0x0001ddd2:    7a40        @z      LDRB     r0,[r0,#9]
        0x0001ddd4:    2800        .(      CMP      r0,#0
        0x0001ddd6:    d13b        ;.      BNE      0x1de50 ; mspi_device_configure + 832
        0x0001ddd8:    e0cc        ..      B        0x1df74 ; mspi_device_configure + 1124
        0x0001ddda:    0309        ..      LSLS     r1,r1,#12
        0x0001dddc:    f1014180    ...A    ADD      r1,r1,#0x40000000
        0x0001dde0:    f50121c0    ...!    ADD      r1,r1,#0x60000
        0x0001dde4:    f8d12084    ...     LDR      r2,[r1,#0x84]
        0x0001dde8:    f022020f    "...    BIC      r2,r2,#0xf
        0x0001ddec:    1c92        ..      ADDS     r2,r2,#2
        0x0001ddee:    f8c12084    ...     STR      r2,[r1,#0x84]
        0x0001ddf2:    f8d12084    ...     LDR      r2,[r1,#0x84]
        0x0001ddf6:    f0220280    "...    BIC      r2,r2,#0x80
        0x0001ddfa:    f8c12084    ...     STR      r2,[r1,#0x84]
        0x0001ddfe:    f8d12090    ...     LDR      r2,[r1,#0x90]
        0x0001de02:    f42262e0    "..b    BIC      r2,r2,#0x700
        0x0001de06:    f5027240    ..@r    ADD      r2,r2,#0x300
        0x0001de0a:    f8c12090    ...     STR      r2,[r1,#0x90]
        0x0001de0e:    7a40        @z      LDRB     r0,[r0,#9]
        0x0001de10:    2800        .(      CMP      r0,#0
        0x0001de12:    d11d        ..      BNE      0x1de50 ; mspi_device_configure + 832
        0x0001de14:    e0ae        ..      B        0x1df74 ; mspi_device_configure + 1124
        0x0001de16:    0309        ..      LSLS     r1,r1,#12
        0x0001de18:    f1014180    ...A    ADD      r1,r1,#0x40000000
        0x0001de1c:    f50121c0    ...!    ADD      r1,r1,#0x60000
        0x0001de20:    f8d12084    ...     LDR      r2,[r1,#0x84]
        0x0001de24:    f022020f    "...    BIC      r2,r2,#0xf
        0x0001de28:    1c52        R.      ADDS     r2,r2,#1
        0x0001de2a:    f8c12084    ...     STR      r2,[r1,#0x84]
        0x0001de2e:    f8d12084    ...     LDR      r2,[r1,#0x84]
        0x0001de32:    f0220280    "...    BIC      r2,r2,#0x80
        0x0001de36:    f8c12084    ...     STR      r2,[r1,#0x84]
        0x0001de3a:    f8d12090    ...     LDR      r2,[r1,#0x90]
        0x0001de3e:    f42262e0    "..b    BIC      r2,r2,#0x700
        0x0001de42:    f50262a0    ...b    ADD      r2,r2,#0x500
        0x0001de46:    f8c12090    ...     STR      r2,[r1,#0x90]
        0x0001de4a:    7a40        @z      LDRB     r0,[r0,#9]
        0x0001de4c:    bbc8        ..      CBNZ     r0,0x1dec2 ; mspi_device_configure + 946
        0x0001de4e:    e056        V.      B        0x1defe ; mspi_device_configure + 1006
        0x0001de50:    e08d        ..      B        0x1df6e ; mspi_device_configure + 1118
        0x0001de52:    0309        ..      LSLS     r1,r1,#12
        0x0001de54:    f1014180    ...A    ADD      r1,r1,#0x40000000
        0x0001de58:    f50121c0    ...!    ADD      r1,r1,#0x60000
        0x0001de5c:    f8d12084    ...     LDR      r2,[r1,#0x84]
        0x0001de60:    f022020f    "...    BIC      r2,r2,#0xf
        0x0001de64:    1c92        ..      ADDS     r2,r2,#2
        0x0001de66:    f8c12084    ...     STR      r2,[r1,#0x84]
        0x0001de6a:    f8d12084    ...     LDR      r2,[r1,#0x84]
        0x0001de6e:    f0220280    "...    BIC      r2,r2,#0x80
        0x0001de72:    f8c12084    ...     STR      r2,[r1,#0x84]
        0x0001de76:    f8d12090    ...     LDR      r2,[r1,#0x90]
        0x0001de7a:    f42262e0    "..b    BIC      r2,r2,#0x700
        0x0001de7e:    f50262a0    ...b    ADD      r2,r2,#0x500
        0x0001de82:    f8c12090    ...     STR      r2,[r1,#0x90]
        0x0001de86:    7a40        @z      LDRB     r0,[r0,#9]
        0x0001de88:    b9d8        ..      CBNZ     r0,0x1dec2 ; mspi_device_configure + 946
        0x0001de8a:    e038        8.      B        0x1defe ; mspi_device_configure + 1006
        0x0001de8c:    0309        ..      LSLS     r1,r1,#12
        0x0001de8e:    f1014180    ...A    ADD      r1,r1,#0x40000000
        0x0001de92:    f50121c0    ...!    ADD      r1,r1,#0x60000
        0x0001de96:    f8d12084    ...     LDR      r2,[r1,#0x84]
        0x0001de9a:    f022020f    "...    BIC      r2,r2,#0xf
        0x0001de9e:    1c52        R.      ADDS     r2,r2,#1
        0x0001dea0:    f8c12084    ...     STR      r2,[r1,#0x84]
        0x0001dea4:    f8d12084    ...     LDR      r2,[r1,#0x84]
        0x0001dea8:    f0220280    "...    BIC      r2,r2,#0x80
        0x0001deac:    f8c12084    ...     STR      r2,[r1,#0x84]
        0x0001deb0:    f8d12090    ...     LDR      r2,[r1,#0x90]
        0x0001deb4:    f44262e0    B..b    ORR      r2,r2,#0x700
        0x0001deb8:    f8c12090    ...     STR      r2,[r1,#0x90]
        0x0001debc:    7a40        @z      LDRB     r0,[r0,#9]
        0x0001debe:    b900        ..      CBNZ     r0,0x1dec2 ; mspi_device_configure + 946
        0x0001dec0:    e01d        ..      B        0x1defe ; mspi_device_configure + 1006
        0x0001dec2:    e019        ..      B        0x1def8 ; mspi_device_configure + 1000
        0x0001dec4:    0309        ..      LSLS     r1,r1,#12
        0x0001dec6:    f1014180    ...A    ADD      r1,r1,#0x40000000
        0x0001deca:    f50121c0    ...!    ADD      r1,r1,#0x60000
        0x0001dece:    f8d12084    ...     LDR      r2,[r1,#0x84]
        0x0001ded2:    f022020f    "...    BIC      r2,r2,#0xf
        0x0001ded6:    1c92        ..      ADDS     r2,r2,#2
        0x0001ded8:    f8c12084    ...     STR      r2,[r1,#0x84]
        0x0001dedc:    f8d12084    ...     LDR      r2,[r1,#0x84]
        0x0001dee0:    f0220280    "...    BIC      r2,r2,#0x80
        0x0001dee4:    f8c12084    ...     STR      r2,[r1,#0x84]
        0x0001dee8:    f8d12090    ...     LDR      r2,[r1,#0x90]
        0x0001deec:    f44262e0    B..b    ORR      r2,r2,#0x700
        0x0001def0:    f8c12090    ...     STR      r2,[r1,#0x90]
        0x0001def4:    7a40        @z      LDRB     r0,[r0,#9]
        0x0001def6:    b110        ..      CBZ      r0,0x1defe ; mspi_device_configure + 1006
        0x0001def8:    f241001f    A...    MOV      r0,#0x101f
        0x0001defc:    e637        7.      B        0x1db6e ; mspi_device_configure + 94
        0x0001defe:    f240100f    @...    MOV      r0,#0x10f
        0x0001df02:    e634        4.      B        0x1db6e ; mspi_device_configure + 94
        0x0001df04:    0309        ..      LSLS     r1,r1,#12
        0x0001df06:    f1014180    ...A    ADD      r1,r1,#0x40000000
        0x0001df0a:    f50121c0    ...!    ADD      r1,r1,#0x60000
        0x0001df0e:    f8d12084    ...     LDR      r2,[r1,#0x84]
        0x0001df12:    f022020f    "...    BIC      r2,r2,#0xf
        0x0001df16:    1c52        R.      ADDS     r2,r2,#1
        0x0001df18:    f8c12084    ...     STR      r2,[r1,#0x84]
        0x0001df1c:    f8d12084    ...     LDR      r2,[r1,#0x84]
        0x0001df20:    f0220280    "...    BIC      r2,r2,#0x80
        0x0001df24:    f8c12084    ...     STR      r2,[r1,#0x84]
        0x0001df28:    f8d12090    ...     LDR      r2,[r1,#0x90]
        0x0001df2c:    f42262e0    "..b    BIC      r2,r2,#0x700
        0x0001df30:    f8c12090    ...     STR      r2,[r1,#0x90]
        0x0001df34:    7a40        @z      LDRB     r0,[r0,#9]
        0x0001df36:    b9d0        ..      CBNZ     r0,0x1df6e ; mspi_device_configure + 1118
        0x0001df38:    e01c        ..      B        0x1df74 ; mspi_device_configure + 1124
        0x0001df3a:    0309        ..      LSLS     r1,r1,#12
        0x0001df3c:    f1014180    ...A    ADD      r1,r1,#0x40000000
        0x0001df40:    f50121c0    ...!    ADD      r1,r1,#0x60000
        0x0001df44:    f8d12084    ...     LDR      r2,[r1,#0x84]
        0x0001df48:    f022020f    "...    BIC      r2,r2,#0xf
        0x0001df4c:    1c92        ..      ADDS     r2,r2,#2
        0x0001df4e:    f8c12084    ...     STR      r2,[r1,#0x84]
        0x0001df52:    f8d12084    ...     LDR      r2,[r1,#0x84]
        0x0001df56:    f0220280    "...    BIC      r2,r2,#0x80
        0x0001df5a:    f8c12084    ...     STR      r2,[r1,#0x84]
        0x0001df5e:    f8d12090    ...     LDR      r2,[r1,#0x90]
        0x0001df62:    f42262e0    "..b    BIC      r2,r2,#0x700
        0x0001df66:    f8c12090    ...     STR      r2,[r1,#0x90]
        0x0001df6a:    7a40        @z      LDRB     r0,[r0,#9]
        0x0001df6c:    b110        ..      CBZ      r0,0x1df74 ; mspi_device_configure + 1124
        0x0001df6e:    f2410013    A...    MOV      r0,#0x1013
        0x0001df72:    e5fc        ..      B        0x1db6e ; mspi_device_configure + 94
        0x0001df74:    f2401003    @...    MOV      r0,#0x103
        0x0001df78:    e5f9        ..      B        0x1db6e ; mspi_device_configure + 94
    i.mspi_dummy_callback
    mspi_dummy_callback
        0x0001df7a:    4770        pG      BX       lr
    i.mspi_seq_loopback
    mspi_seq_loopback
        0x0001df7c:    f8d01830    ..0.    LDR      r1,[r0,#0x830]
        0x0001df80:    1c49        I.      ADDS     r1,r1,#1
        0x0001df82:    6201        .b      STR      r1,[r0,#0x20]
        0x0001df84:    2100        .!      MOVS     r1,#0
        0x0001df86:    61c1        .a      STR      r1,[r0,#0x1c]
        0x0001df88:    2101        .!      MOVS     r1,#1
        0x0001df8a:    f8801834    ..4.    STRB     r1,[r0,#0x834]
        0x0001df8e:    6840        @h      LDR      r0,[r0,#4]
        0x0001df90:    2140        @!      MOVS     r1,#0x40
        0x0001df92:    0300        ..      LSLS     r0,r0,#12
        0x0001df94:    f1004080    ...@    ADD      r0,r0,#0x40000000
        0x0001df98:    f50020c0    ...     ADD      r0,r0,#0x60000
        0x0001df9c:    f8c012b4    ....    STR      r1,[r0,#0x2b4]
        0x0001dfa0:    4770        pG      BX       lr
    i.ndigits_in_hex
    ndigits_in_hex
        0x0001dfa2:    b530        0.      PUSH     {r4,r5,lr}
        0x0001dfa4:    4602        .F      MOV      r2,r0
        0x0001dfa6:    460b        .F      MOV      r3,r1
        0x0001dfa8:    2400        .$      MOVS     r4,#0
        0x0001dfaa:    ea820104    ....    EOR      r1,r2,r4
        0x0001dfae:    405c        \@      EORS     r4,r4,r3
        0x0001dfb0:    4321        !C      ORRS     r1,r1,r4
        0x0001dfb2:    d101        ..      BNE      0x1dfb8 ; ndigits_in_hex + 22
        0x0001dfb4:    2101        .!      MOVS     r1,#1
        0x0001dfb6:    e000        ..      B        0x1dfba ; ndigits_in_hex + 24
        0x0001dfb8:    2100        .!      MOVS     r1,#0
        0x0001dfba:    4608        .F      MOV      r0,r1
        0x0001dfbc:    e004        ..      B        0x1dfc8 ; ndigits_in_hex + 38
        0x0001dfbe:    0911        ..      LSRS     r1,r2,#4
        0x0001dfc0:    ea417203    A..r    ORR      r2,r1,r3,LSL #28
        0x0001dfc4:    091b        ..      LSRS     r3,r3,#4
        0x0001dfc6:    1c40        @.      ADDS     r0,r0,#1
        0x0001dfc8:    2400        .$      MOVS     r4,#0
        0x0001dfca:    ea820104    ....    EOR      r1,r2,r4
        0x0001dfce:    405c        \@      EORS     r4,r4,r3
        0x0001dfd0:    4321        !C      ORRS     r1,r1,r4
        0x0001dfd2:    d1f4        ..      BNE      0x1dfbe ; ndigits_in_hex + 28
        0x0001dfd4:    bd30        0.      POP      {r4,r5,pc}
    i.ndigits_in_i64
    ndigits_in_i64
        0x0001dfd6:    b570        p.      PUSH     {r4-r6,lr}
        0x0001dfd8:    4604        .F      MOV      r4,r0
        0x0001dfda:    460d        .F      MOV      r5,r1
        0x0001dfdc:    2100        .!      MOVS     r1,#0
        0x0001dfde:    4608        .F      MOV      r0,r1
        0x0001dfe0:    1a61        a.      SUBS     r1,r4,r1
        0x0001dfe2:    eb750000    u...    SBCS     r0,r5,r0
        0x0001dfe6:    da03        ..      BGE      0x1dff0 ; ndigits_in_i64 + 26
        0x0001dfe8:    2200        ."      MOVS     r2,#0
        0x0001dfea:    4264        dB      RSBS     r4,r4,#0
        0x0001dfec:    eb620505    b...    SBC      r5,r2,r5
        0x0001dff0:    4620         F      MOV      r0,r4
        0x0001dff2:    4629        )F      MOV      r1,r5
        0x0001dff4:    f000f801    ....    BL       ndigits_in_u64 ; 0x1dffa
        0x0001dff8:    bd70        p.      POP      {r4-r6,pc}
    i.ndigits_in_u64
    ndigits_in_u64
        0x0001dffa:    b570        p.      PUSH     {r4-r6,lr}
        0x0001dffc:    4604        .F      MOV      r4,r0
        0x0001dffe:    460d        .F      MOV      r5,r1
        0x0001e000:    2100        .!      MOVS     r1,#0
        0x0001e002:    ea840001    ....    EOR      r0,r4,r1
        0x0001e006:    4069        i@      EORS     r1,r1,r5
        0x0001e008:    4308        .C      ORRS     r0,r0,r1
        0x0001e00a:    d101        ..      BNE      0x1e010 ; ndigits_in_u64 + 22
        0x0001e00c:    2001        .       MOVS     r0,#1
        0x0001e00e:    e000        ..      B        0x1e012 ; ndigits_in_u64 + 24
        0x0001e010:    2000        .       MOVS     r0,#0
        0x0001e012:    4606        .F      MOV      r6,r0
        0x0001e014:    e006        ..      B        0x1e024 ; ndigits_in_u64 + 42
        0x0001e016:    4620         F      MOV      r0,r4
        0x0001e018:    4629        )F      MOV      r1,r5
        0x0001e01a:    f7fff8b2    ....    BL       divu64_10 ; 0x1d182
        0x0001e01e:    4604        .F      MOV      r4,r0
        0x0001e020:    460d        .F      MOV      r5,r1
        0x0001e022:    1c76        v.      ADDS     r6,r6,#1
        0x0001e024:    2100        .!      MOVS     r1,#0
        0x0001e026:    ea840001    ....    EOR      r0,r4,r1
        0x0001e02a:    4069        i@      EORS     r1,r1,r5
        0x0001e02c:    4308        .C      ORRS     r0,r0,r1
        0x0001e02e:    d1f2        ..      BNE      0x1e016 ; ndigits_in_u64 + 28
        0x0001e030:    4630        0F      MOV      r0,r6
        0x0001e032:    bd70        p.      POP      {r4-r6,pc}
    i.padbuffer
    padbuffer
        0x0001e034:    b530        0.      PUSH     {r4,r5,lr}
        0x0001e036:    4603        .F      MOV      r3,r0
        0x0001e038:    2000        .       MOVS     r0,#0
        0x0001e03a:    2a00        .*      CMP      r2,#0
        0x0001e03c:    dc00        ..      BGT      0x1e040 ; padbuffer + 12
        0x0001e03e:    bd30        0.      POP      {r4,r5,pc}
        0x0001e040:    e003        ..      B        0x1e04a ; padbuffer + 22
        0x0001e042:    b10b        ..      CBZ      r3,0x1e048 ; padbuffer + 20
        0x0001e044:    f8031b01    ....    STRB     r1,[r3],#1
        0x0001e048:    1c40        @.      ADDS     r0,r0,#1
        0x0001e04a:    1e14        ..      SUBS     r4,r2,#0
        0x0001e04c:    f1a20201    ....    SUB      r2,r2,#1
        0x0001e050:    d1f7        ..      BNE      0x1e042 ; padbuffer + 14
        0x0001e052:    bf00        ..      NOP      
        0x0001e054:    e7f3        ..      B        0x1e03e ; padbuffer + 10
    i.pfnMSPI_ATXP032_Callback
    pfnMSPI_ATXP032_Callback
        0x0001e056:    6001        .`      STR      r1,[r0,#0]
        0x0001e058:    4770        pG      BX       lr
        0x0001e05a:    0000        ..      MOVS     r0,r0
    i.sched_hiprio
    sched_hiprio
        0x0001e05c:    b5f8        ..      PUSH     {r3-r7,lr}
        0x0001e05e:    460e        .F      MOV      r6,r1
        0x0001e060:    4604        .F      MOV      r4,r0
        0x0001e062:    2500        .%      MOVS     r5,#0
        0x0001e064:    f7faf99e    ....    BL       am_hal_interrupt_master_disable ; 0x183a4
        0x0001e068:    9000        ..      STR      r0,[sp,#0]
        0x0001e06a:    f8d47840    ..@x    LDR      r7,[r4,#0x840]
        0x0001e06e:    19b8        ..      ADDS     r0,r7,r6
        0x0001e070:    f8c40840    ..@.    STR      r0,[r4,#0x840]
        0x0001e074:    9800        ..      LDR      r0,[sp,#0]
        0x0001e076:    f7faf999    ....    BL       am_hal_interrupt_master_set ; 0x183ac
        0x0001e07a:    2f00        ./      CMP      r7,#0
        0x0001e07c:    d17e        ~.      BNE      0x1e17c ; sched_hiprio + 288
        0x0001e07e:    6861        ah      LDR      r1,[r4,#4]
        0x0001e080:    4e44        DN      LDR      r6,[pc,#272] ; [0x1e194] = 0x186a0
        0x0001e082:    ea4f3101    O..1    LSL      r1,r1,#12
        0x0001e086:    f1014180    ...A    ADD      r1,r1,#0x40000000
        0x0001e08a:    f50121c0    ...!    ADD      r1,r1,#0x60000
        0x0001e08e:    f44f0000    O...    MOV      r0,#0x800000
        0x0001e092:    4635        5F      MOV      r5,r6
        0x0001e094:    f8c102b4    ....    STR      r0,[r1,#0x2b4]
        0x0001e098:    6860        `h      LDR      r0,[r4,#4]
        0x0001e09a:    ea4f3000    O..0    LSL      r0,r0,#12
        0x0001e09e:    f1004080    ...@    ADD      r0,r0,#0x40000000
        0x0001e0a2:    f50020c0    ...     ADD      r0,r0,#0x60000
        0x0001e0a6:    f8d002a0    ....    LDR      r0,[r0,#0x2a0]
        0x0001e0aa:    f0100f01    ....    TST      r0,#1
        0x0001e0ae:    d020         .      BEQ      0x1e0f2 ; sched_hiprio + 150
        0x0001e0b0:    6860        `h      LDR      r0,[r4,#4]
        0x0001e0b2:    ea4f3000    O..0    LSL      r0,r0,#12
        0x0001e0b6:    f1004080    ...@    ADD      r0,r0,#0x40000000
        0x0001e0ba:    f50020c0    ...     ADD      r0,r0,#0x60000
        0x0001e0be:    f8d012ac    ....    LDR      r1,[r0,#0x2ac]
        0x0001e0c2:    f0110f08    ....    TST      r1,#8
        0x0001e0c6:    bf1c        ..      ITT      NE
        0x0001e0c8:    f8d002b8    ....    LDRNE    r0,[r0,#0x2b8]
        0x0001e0cc:    f0100f80    ....    TSTNE    r0,#0x80
        0x0001e0d0:    d10f        ..      BNE      0x1e0f2 ; sched_hiprio + 150
        0x0001e0d2:    1e6d        m.      SUBS     r5,r5,#1
        0x0001e0d4:    d35b        [.      BCC      0x1e18e ; sched_hiprio + 306
        0x0001e0d6:    2001        .       MOVS     r0,#1
        0x0001e0d8:    f7fcf82e    ....    BL       am_hal_delay_us ; 0x1a138
        0x0001e0dc:    6860        `h      LDR      r0,[r4,#4]
        0x0001e0de:    0300        ..      LSLS     r0,r0,#12
        0x0001e0e0:    f1004080    ...@    ADD      r0,r0,#0x40000000
        0x0001e0e4:    f50020c0    ...     ADD      r0,r0,#0x60000
        0x0001e0e8:    f8d002a0    ....    LDR      r0,[r0,#0x2a0]
        0x0001e0ec:    f0100f01    ....    TST      r0,#1
        0x0001e0f0:    d1de        ..      BNE      0x1e0b0 ; sched_hiprio + 84
        0x0001e0f2:    2701        .'      MOVS     r7,#1
        0x0001e0f4:    9700        ..      STR      r7,[sp,#0]
        0x0001e0f6:    4928        (I      LDR      r1,[pc,#160] ; [0x1e198] = 0x40060104
        0x0001e0f8:    6860        `h      LDR      r0,[r4,#4]
        0x0001e0fa:    2300        .#      MOVS     r3,#0
        0x0001e0fc:    eb013100    ...1    ADD      r1,r1,r0,LSL #12
        0x0001e100:    463a        :F      MOV      r2,r7
        0x0001e102:    4630        0F      MOV      r0,r6
        0x0001e104:    f7fcf85a    ..Z.    BL       am_hal_delay_us_status_check ; 0x1a1bc
        0x0001e108:    0005        ..      MOVS     r5,r0
        0x0001e10a:    bf18        ..      IT       NE
        0x0001e10c:    bdf8        ..      POPNE    {r3-r7,pc}
        0x0001e10e:    2200        ."      MOVS     r2,#0
        0x0001e110:    6262        bb      STR      r2,[r4,#0x24]
        0x0001e112:    6861        ah      LDR      r1,[r4,#4]
        0x0001e114:    2040        @       MOVS     r0,#0x40
        0x0001e116:    0309        ..      LSLS     r1,r1,#12
        0x0001e118:    f1014180    ...A    ADD      r1,r1,#0x40000000
        0x0001e11c:    f50121c0    ...!    ADD      r1,r1,#0x60000
        0x0001e120:    f8c10208    ....    STR      r0,[r1,#0x208]
        0x0001e124:    6860        `h      LDR      r0,[r4,#4]
        0x0001e126:    0300        ..      LSLS     r0,r0,#12
        0x0001e128:    f1004080    ...@    ADD      r0,r0,#0x40000000
        0x0001e12c:    f50020c0    ...     ADD      r0,r0,#0x60000
        0x0001e130:    f8d01200    ....    LDR      r1,[r0,#0x200]
        0x0001e134:    f0410140    A.@.    ORR      r1,r1,#0x40
        0x0001e138:    f8c01200    ....    STR      r1,[r0,#0x200]
        0x0001e13c:    f884783c    ..<x    STRB     r7,[r4,#0x83c]
        0x0001e140:    f8d40850    ..P.    LDR      r0,[r4,#0x850]
        0x0001e144:    f8d43848    ..H8    LDR      r3,[r4,#0x848]
        0x0001e148:    1c40        @.      ADDS     r0,r0,#1
        0x0001e14a:    fbb0fcf3    ....    UDIV     r12,r0,r3
        0x0001e14e:    6861        ah      LDR      r1,[r4,#4]
        0x0001e150:    fb03001c    ....    MLS      r0,r3,r12,r0
        0x0001e154:    0309        ..      LSLS     r1,r1,#12
        0x0001e156:    f1014180    ...A    ADD      r1,r1,#0x40000000
        0x0001e15a:    f8d43854    ..T8    LDR      r3,[r4,#0x854]
        0x0001e15e:    f50121c0    ...!    ADD      r1,r1,#0x60000
        0x0001e162:    eb000040    ..@.    ADD      r0,r0,r0,LSL #1
        0x0001e166:    eb0300c0    ....    ADD      r0,r3,r0,LSL #3
        0x0001e16a:    f8c12100    ...!    STR      r2,[r1,#0x100]
        0x0001e16e:    6802        .h      LDR      r2,[r0,#0]
        0x0001e170:    f8c12108    ...!    STR      r2,[r1,#0x108]
        0x0001e174:    6842        Bh      LDR      r2,[r0,#4]
        0x0001e176:    f8c1210c    ...!    STR      r2,[r1,#0x10c]
        0x0001e17a:    e000        ..      B        0x1e17e ; sched_hiprio + 290
        0x0001e17c:    e005        ..      B        0x1e18a ; sched_hiprio + 302
        0x0001e17e:    6882        .h      LDR      r2,[r0,#8]
        0x0001e180:    f8c12110    ...!    STR      r2,[r1,#0x110]
        0x0001e184:    68c0        .h      LDR      r0,[r0,#0xc]
        0x0001e186:    f8c10100    ....    STR      r0,[r1,#0x100]
        0x0001e18a:    4628        (F      MOV      r0,r5
        0x0001e18c:    bdf8        ..      POP      {r3-r7,pc}
        0x0001e18e:    2004        .       MOVS     r0,#4
        0x0001e190:    bdf8        ..      POP      {r3-r7,pc}
    $d
        0x0001e192:    0000        ..      DCW    0
        0x0001e194:    000186a0    ....    DCD    100000
        0x0001e198:    40060104    ...@    DCD    1074135300
    $t
    i.simple_strlen
    simple_strlen
        0x0001e19c:    4601        .F      MOV      r1,r0
        0x0001e19e:    2000        .       MOVS     r0,#0
        0x0001e1a0:    b901        ..      CBNZ     r1,0x1e1a4 ; simple_strlen + 8
        0x0001e1a2:    4770        pG      BX       lr
        0x0001e1a4:    e000        ..      B        0x1e1a8 ; simple_strlen + 12
        0x0001e1a6:    1c40        @.      ADDS     r0,r0,#1
        0x0001e1a8:    f8113b01    ...;    LDRB     r3,[r1],#1
        0x0001e1ac:    2b00        .+      CMP      r3,#0
        0x0001e1ae:    d1fa        ..      BNE      0x1e1a6 ; simple_strlen + 10
        0x0001e1b0:    bf00        ..      NOP      
        0x0001e1b2:    e7f6        ..      B        0x1e1a2 ; simple_strlen + 6
    i.timer_config_b1
    timer_config_b1
        0x0001e1b4:    e92d01f0    -...    PUSH     {r4-r8}
        0x0001e1b8:    4d63        cM      LDR      r5,[pc,#396] ; [0x1e348] = 0x10007414
        0x0001e1ba:    e9d12c02    ...,    LDRD     r2,r12,[r1,#8]
        0x0001e1be:    2400        .$      MOVS     r4,#0
        0x0001e1c0:    690b        .i      LDR      r3,[r1,#0x10]
        0x0001e1c2:    f8054020    .. @    STRB     r4,[r5,r0,LSL #2]
        0x0001e1c6:    eb050580    ....    ADD      r5,r5,r0,LSL #2
        0x0001e1ca:    706c        lp      STRB     r4,[r5,#1]
        0x0001e1cc:    70ac        .p      STRB     r4,[r5,#2]
        0x0001e1ce:    70ec        .p      STRB     r4,[r5,#3]
        0x0001e1d0:    784c        Lx      LDRB     r4,[r1,#1]
        0x0001e1d2:    2c0f        .,      CMP      r4,#0xf
        0x0001e1d4:    d23d        =.      BCS      0x1e252 ; timer_config_b1 + 158
        0x0001e1d6:    e8dff004    ....    TBB      [pc,r4]
    $d
        0x0001e1da:    085d        ].      DCW    2141
        0x0001e1dc:    3c153c18    .<.<    DCD    1008024600
        0x0001e1e0:    3c3c3c5d    ]<<<    DCD    1010580573
        0x0001e1e4:    33243c3c    <<$3    DCD    858012732
        0x0001e1e8:    005d        ].      DCW    93
    $t
        0x0001e1ea:    4c57        WL      LDR      r4,[pc,#348] ; [0x1e348] = 0x10007414
        0x0001e1ec:    2501        .%      MOVS     r5,#1
        0x0001e1ee:    eb040480    ....    ADD      r4,r4,r0,LSL #2
        0x0001e1f2:    f1bc3fff    ...?    CMP      r12,#0xffffffff
        0x0001e1f6:    70e5        .p      STRB     r5,[r4,#3]
        0x0001e1f8:    70a5        .p      STRB     r5,[r4,#2]
        0x0001e1fa:    d14b        K.      BNE      0x1e294 ; timer_config_b1 + 224
        0x0001e1fc:    1c5c        \.      ADDS     r4,r3,#1
        0x0001e1fe:    bf18        ..      IT       NE
        0x0001e200:    46a4        .F      MOVNE    r12,r4
        0x0001e202:    e026        &.      B        0x1e252 ; timer_config_b1 + 158
        0x0001e204:    2a00        .*      CMP      r2,#0
        0x0001e206:    d14e        N.      BNE      0x1e2a6 ; timer_config_b1 + 242
        0x0001e208:    e023        #.      B        0x1e252 ; timer_config_b1 + 158
        0x0001e20a:    4e4f        ON      LDR      r6,[pc,#316] ; [0x1e348] = 0x10007414
        0x0001e20c:    2401        .$      MOVS     r4,#1
        0x0001e20e:    eb060580    ....    ADD      r5,r6,r0,LSL #2
        0x0001e212:    2a00        .*      CMP      r2,#0
        0x0001e214:    706c        lp      STRB     r4,[r5,#1]
        0x0001e216:    f8064020    .. @    STRB     r4,[r6,r0,LSL #2]
        0x0001e21a:    70ec        .p      STRB     r4,[r5,#3]
        0x0001e21c:    70ac        .p      STRB     r4,[r5,#2]
        0x0001e21e:    d142        B.      BNE      0x1e2a6 ; timer_config_b1 + 242
        0x0001e220:    e017        ..      B        0x1e252 ; timer_config_b1 + 158
        0x0001e222:    688b        .h      LDR      r3,[r1,#8]
        0x0001e224:    2b20         +      CMP      r3,#0x20
        0x0001e226:    d835        5.      BHI      0x1e294 ; timer_config_b1 + 224
        0x0001e228:    1e13        ..      SUBS     r3,r2,#0
        0x0001e22a:    bf18        ..      IT       NE
        0x0001e22c:    1c5a        Z.      ADDNE    r2,r3,#1
        0x0001e22e:    2401        .$      MOVS     r4,#1
        0x0001e230:    4d45        EM      LDR      r5,[pc,#276] ; [0x1e348] = 0x10007414
        0x0001e232:    f8054020    .. @    STRB     r4,[r5,r0,LSL #2]
        0x0001e236:    eb050580    ....    ADD      r5,r5,r0,LSL #2
        0x0001e23a:    70ec        .p      STRB     r4,[r5,#3]
        0x0001e23c:    70ac        .p      STRB     r4,[r5,#2]
        0x0001e23e:    e008        ..      B        0x1e252 ; timer_config_b1 + 158
        0x0001e240:    4d41        AM      LDR      r5,[pc,#260] ; [0x1e348] = 0x10007414
        0x0001e242:    2401        .$      MOVS     r4,#1
        0x0001e244:    f8054020    .. @    STRB     r4,[r5,r0,LSL #2]
        0x0001e248:    eb050580    ....    ADD      r5,r5,r0,LSL #2
        0x0001e24c:    706c        lp      STRB     r4,[r5,#1]
        0x0001e24e:    70ac        .p      STRB     r4,[r5,#2]
        0x0001e250:    70ec        .p      STRB     r4,[r5,#3]
        0x0001e252:    780e        .x      LDRB     r6,[r1,#0]
        0x0001e254:    f1a60420    .. .    SUB      r4,r6,#0x20
        0x0001e258:    2c1f        .,      CMP      r4,#0x1f
        0x0001e25a:    d80a        ..      BHI      0x1e272 ; timer_config_b1 + 190
        0x0001e25c:    1065        e.      ASRS     r5,r4,#1
        0x0001e25e:    f0160401    ....    ANDS     r4,r6,#1
        0x0001e262:    d01b        ..      BEQ      0x1e29c ; timer_config_b1 + 232
        0x0001e264:    b12c        ,.      CBZ      r4,0x1e272 ; timer_config_b1 + 190
        0x0001e266:    4c38        8L      LDR      r4,[pc,#224] ; [0x1e348] = 0x10007414
        0x0001e268:    eb040485    ....    ADD      r4,r4,r5,LSL #2
        0x0001e26c:    78a4        .x      LDRB     r4,[r4,#2]
        0x0001e26e:    2c00        .,      CMP      r4,#0
        0x0001e270:    d065        e.      BEQ      0x1e33e ; timer_config_b1 + 394
        0x0001e272:    790c        .y      LDRB     r4,[r1,#4]
        0x0001e274:    b1e4        ..      CBZ      r4,0x1e2b0 ; timer_config_b1 + 252
        0x0001e276:    794d        My      LDRB     r5,[r1,#5]
        0x0001e278:    2d1f        .-      CMP      r5,#0x1f
        0x0001e27a:    d819        ..      BHI      0x1e2b0 ; timer_config_b1 + 252
        0x0001e27c:    086c        l.      LSRS     r4,r5,#1
        0x0001e27e:    f0150501    ....    ANDS     r5,r5,#1
        0x0001e282:    d011        ..      BEQ      0x1e2a8 ; timer_config_b1 + 244
        0x0001e284:    b1a5        ..      CBZ      r5,0x1e2b0 ; timer_config_b1 + 252
        0x0001e286:    4d30        0M      LDR      r5,[pc,#192] ; [0x1e348] = 0x10007414
        0x0001e288:    eb050484    ....    ADD      r4,r5,r4,LSL #2
        0x0001e28c:    78a4        .x      LDRB     r4,[r4,#2]
        0x0001e28e:    2c00        .,      CMP      r4,#0
        0x0001e290:    d055        U.      BEQ      0x1e33e ; timer_config_b1 + 394
        0x0001e292:    e00d        ..      B        0x1e2b0 ; timer_config_b1 + 252
        0x0001e294:    e8bd01f0    ....    POP      {r4-r8}
        0x0001e298:    2007        .       MOVS     r0,#7
        0x0001e29a:    4770        pG      BX       lr
        0x0001e29c:    4c2a        *L      LDR      r4,[pc,#168] ; [0x1e348] = 0x10007414
        0x0001e29e:    f8144025    ..%@    LDRB     r4,[r4,r5,LSL #2]
        0x0001e2a2:    2c00        .,      CMP      r4,#0
        0x0001e2a4:    d1e5        ..      BNE      0x1e272 ; timer_config_b1 + 190
        0x0001e2a6:    e04a        J.      B        0x1e33e ; timer_config_b1 + 394
        0x0001e2a8:    4d27        'M      LDR      r5,[pc,#156] ; [0x1e348] = 0x10007414
        0x0001e2aa:    f8154024    ..$@    LDRB     r4,[r5,r4,LSL #2]
        0x0001e2ae:    b3e4        ..      CBZ      r4,0x1e32a ; timer_config_b1 + 374
        0x0001e2b0:    4c26        &L      LDR      r4,[pc,#152] ; [0x1e34c] = 0x40008000
        0x0001e2b2:    f8d46104    ...a    LDR      r6,[r4,#0x104]
        0x0001e2b6:    2501        .%      MOVS     r5,#1
        0x0001e2b8:    4085        .@      LSLS     r5,r5,r0
        0x0001e2ba:    43ae        .C      BICS     r6,r6,r5
        0x0001e2bc:    f8c46104    ...a    STR      r6,[r4,#0x104]
        0x0001e2c0:    784f        Ox      LDRB     r7,[r1,#1]
        0x0001e2c2:    780e        .x      LDRB     r6,[r1,#0]
        0x0001e2c4:    f04f08f0    O...    MOV      r8,#0xf0
        0x0001e2c8:    ea081707    ....    AND      r7,r8,r7,LSL #4
        0x0001e2cc:    ea472606    G..&    ORR      r6,r7,r6,LSL #8
        0x0001e2d0:    78cf        .x      LDRB     r7,[r1,#3]
        0x0001e2d2:    f04f0808    O...    MOV      r8,#8
        0x0001e2d6:    ea0807c7    ....    AND      r7,r8,r7,LSL #3
        0x0001e2da:    433e        >C      ORRS     r6,r6,r7
        0x0001e2dc:    788f        .x      LDRB     r7,[r1,#2]
        0x0001e2de:    f04f0804    O...    MOV      r8,#4
        0x0001e2e2:    ea080787    ....    AND      r7,r8,r7,LSL #2
        0x0001e2e6:    433e        >C      ORRS     r6,r6,r7
        0x0001e2e8:    790f        .y      LDRB     r7,[r1,#4]
        0x0001e2ea:    f44f3840    O.@8    MOV      r8,#0x30000
        0x0001e2ee:    7949        Iy      LDRB     r1,[r1,#5]
        0x0001e2f0:    ea084707    ...G    AND      r7,r8,r7,LSL #16
        0x0001e2f4:    433e        >C      ORRS     r6,r6,r7
        0x0001e2f6:    0209        ..      LSLS     r1,r1,#8
        0x0001e2f8:    0140        @.      LSLS     r0,r0,#5
        0x0001e2fa:    4420         D      ADD      r0,r0,r4
        0x0001e2fc:    ea466202    F..b    ORR      r2,r6,r2,LSL #24
        0x0001e300:    f8d06200    ...b    LDR      r6,[r0,#0x200]
        0x0001e304:    f0260601    &...    BIC      r6,r6,#1
        0x0001e308:    f8c06200    ...b    STR      r6,[r0,#0x200]
        0x0001e30c:    f8c02200    ..."    STR      r2,[r0,#0x200]
        0x0001e310:    f8c01210    ....    STR      r1,[r0,#0x210]
        0x0001e314:    f8c0c208    ....    STR      r12,[r0,#0x208]
        0x0001e318:    f8c0320c    ...2    STR      r3,[r0,#0x20c]
        0x0001e31c:    f8d01200    ....    LDR      r1,[r0,#0x200]
        0x0001e320:    f0410102    A...    ORR      r1,r1,#2
        0x0001e324:    f8c01200    ....    STR      r1,[r0,#0x200]
        0x0001e328:    e000        ..      B        0x1e32c ; timer_config_b1 + 376
        0x0001e32a:    e008        ..      B        0x1e33e ; timer_config_b1 + 394
        0x0001e32c:    f8d40104    ....    LDR      r0,[r4,#0x104]
        0x0001e330:    4328        (C      ORRS     r0,r0,r5
        0x0001e332:    f8c40104    ....    STR      r0,[r4,#0x104]
        0x0001e336:    e8bd01f0    ....    POP      {r4-r8}
        0x0001e33a:    2000        .       MOVS     r0,#0
        0x0001e33c:    4770        pG      BX       lr
        0x0001e33e:    e8bd01f0    ....    POP      {r4-r8}
        0x0001e342:    2006        .       MOVS     r0,#6
        0x0001e344:    4770        pG      BX       lr
    $d
        0x0001e346:    0000        ..      DCW    0
        0x0001e348:    10007414    .t..    DCD    268465172
        0x0001e34c:    40008000    ...@    DCD    1073774592
    $t
    i.uint64_to_hexstr
    uint64_to_hexstr
        0x0001e350:    e92d41f0    -..A    PUSH     {r4-r8,lr}
        0x0001e354:    b085        ..      SUB      sp,sp,#0x14
        0x0001e356:    4604        .F      MOV      r4,r0
        0x0001e358:    460d        .F      MOV      r5,r1
        0x0001e35a:    461e        .F      MOV      r6,r3
        0x0001e35c:    2100        .!      MOVS     r1,#0
        0x0001e35e:    468c        .F      MOV      r12,r1
        0x0001e360:    ea84070c    ....    EOR      r7,r4,r12
        0x0001e364:    ea850c0c    ....    EOR      r12,r5,r12
        0x0001e368:    ea57070c    W...    ORRS     r7,r7,r12
        0x0001e36c:    d105        ..      BNE      0x1e37a ; uint64_to_hexstr + 42
        0x0001e36e:    f04f0830    O.0.    MOV      r8,#0x30
        0x0001e372:    460f        .F      MOV      r7,r1
        0x0001e374:    1c49        I.      ADDS     r1,r1,#1
        0x0001e376:    f80d8007    ....    STRB     r8,[sp,r7]
        0x0001e37a:    e016        ..      B        0x1e3aa ; uint64_to_hexstr + 90
        0x0001e37c:    270f        .'      MOVS     r7,#0xf
        0x0001e37e:    4027        '@      ANDS     r7,r7,r4
        0x0001e380:    b2fb        ..      UXTB     r3,r7
        0x0001e382:    2b09        .+      CMP      r3,#9
        0x0001e384:    dd05        ..      BLE      0x1e392 ; uint64_to_hexstr + 66
        0x0001e386:    b10e        ..      CBZ      r6,0x1e38c ; uint64_to_hexstr + 60
        0x0001e388:    2727        ''      MOVS     r7,#0x27
        0x0001e38a:    e000        ..      B        0x1e38e ; uint64_to_hexstr + 62
        0x0001e38c:    2707        .'      MOVS     r7,#7
        0x0001e38e:    441f        .D      ADD      r7,r7,r3
        0x0001e390:    b2fb        ..      UXTB     r3,r7
        0x0001e392:    f1030730    ..0.    ADD      r7,r3,#0x30
        0x0001e396:    f00708ff    ....    AND      r8,r7,#0xff
        0x0001e39a:    460f        .F      MOV      r7,r1
        0x0001e39c:    1c49        I.      ADDS     r1,r1,#1
        0x0001e39e:    f80d8007    ....    STRB     r8,[sp,r7]
        0x0001e3a2:    0927        '.      LSRS     r7,r4,#4
        0x0001e3a4:    ea477405    G..t    ORR      r4,r7,r5,LSL #28
        0x0001e3a8:    092d        -.      LSRS     r5,r5,#4
        0x0001e3aa:    f04f0c00    O...    MOV      r12,#0
        0x0001e3ae:    ea84070c    ....    EOR      r7,r4,r12
        0x0001e3b2:    ea850c0c    ....    EOR      r12,r5,r12
        0x0001e3b6:    ea57070c    W...    ORRS     r7,r7,r12
        0x0001e3ba:    d1df        ..      BNE      0x1e37c ; uint64_to_hexstr + 44
        0x0001e3bc:    4608        .F      MOV      r0,r1
        0x0001e3be:    b14a        J.      CBZ      r2,0x1e3d4 ; uint64_to_hexstr + 132
        0x0001e3c0:    e003        ..      B        0x1e3ca ; uint64_to_hexstr + 122
        0x0001e3c2:    f81d7001    ...p    LDRB     r7,[sp,r1]
        0x0001e3c6:    f8027b01    ...{    STRB     r7,[r2],#1
        0x0001e3ca:    1e0f        ..      SUBS     r7,r1,#0
        0x0001e3cc:    f1a10101    ....    SUB      r1,r1,#1
        0x0001e3d0:    d1f7        ..      BNE      0x1e3c2 ; uint64_to_hexstr + 114
        0x0001e3d2:    7017        .p      STRB     r7,[r2,#0]
        0x0001e3d4:    b005        ..      ADD      sp,sp,#0x14
        0x0001e3d6:    e8bd81f0    ....    POP      {r4-r8,pc}
    i.uint64_to_str
    uint64_to_str
        0x0001e3da:    e92d4ff0    -..O    PUSH     {r4-r11,lr}
        0x0001e3de:    b087        ..      SUB      sp,sp,#0x1c
        0x0001e3e0:    4607        .F      MOV      r7,r0
        0x0001e3e2:    4688        .F      MOV      r8,r1
        0x0001e3e4:    4616        .F      MOV      r6,r2
        0x0001e3e6:    f04f0900    O...    MOV      r9,#0
        0x0001e3ea:    46cb        .F      MOV      r11,r9
        0x0001e3ec:    bf00        ..      NOP      
        0x0001e3ee:    4638        8F      MOV      r0,r7
        0x0001e3f0:    4641        AF      MOV      r1,r8
        0x0001e3f2:    f7fefec6    ....    BL       divu64_10 ; 0x1d182
        0x0001e3f6:    4604        .F      MOV      r4,r0
        0x0001e3f8:    460d        .F      MOV      r5,r1
        0x0001e3fa:    210a        .!      MOVS     r1,#0xa
        0x0001e3fc:    fba40101    ....    UMULL    r0,r1,r4,r1
        0x0001e400:    ebb70a00    ....    SUBS     r10,r7,r0
        0x0001e404:    f10a0030    ..0.    ADD      r0,r10,#0x30
        0x0001e408:    b2c2        ..      UXTB     r2,r0
        0x0001e40a:    4648        HF      MOV      r0,r9
        0x0001e40c:    f1090901    ....    ADD      r9,r9,#1
        0x0001e410:    f80d2000    ...     STRB     r2,[sp,r0]
        0x0001e414:    4627        'F      MOV      r7,r4
        0x0001e416:    46a8        .F      MOV      r8,r5
        0x0001e418:    f04f0200    O...    MOV      r2,#0
        0x0001e41c:    ea870002    ....    EOR      r0,r7,r2
        0x0001e420:    ea880102    ....    EOR      r1,r8,r2
        0x0001e424:    4308        .C      ORRS     r0,r0,r1
        0x0001e426:    d1e2        ..      BNE      0x1e3ee ; uint64_to_str + 20
        0x0001e428:    46cb        .F      MOV      r11,r9
        0x0001e42a:    b156        V.      CBZ      r6,0x1e442 ; uint64_to_str + 104
        0x0001e42c:    e003        ..      B        0x1e436 ; uint64_to_str + 92
        0x0001e42e:    f81d0009    ....    LDRB     r0,[sp,r9]
        0x0001e432:    f8060b01    ....    STRB     r0,[r6],#1
        0x0001e436:    f1b90000    ....    SUBS     r0,r9,#0
        0x0001e43a:    f1a90901    ....    SUB      r9,r9,#1
        0x0001e43e:    d1f6        ..      BNE      0x1e42e ; uint64_to_str + 84
        0x0001e440:    7030        0p      STRB     r0,[r6,#0]
        0x0001e442:    4658        XF      MOV      r0,r11
        0x0001e444:    b007        ..      ADD      sp,sp,#0x1c
        0x0001e446:    e8bd8ff0    ....    POP      {r4-r11,pc}
        0x0001e44a:    0000        ..      MOVS     r0,r0
    x$fpl$d2f
    $v0
    __aeabi_d2f
    _d2f
        0x0001e44c:    f0214200    !..B    BIC      r2,r1,#0x80000000
        0x0001e450:    f1a25260    ..`R    SUB      r2,r2,#0x38000000
        0x0001e454:    f5b21f80    ....    CMP      r2,#0x100000
        0x0001e458:    f0014300    ...C    AND      r3,r1,#0x80000000
        0x0001e45c:    bf28        (.      IT       CS
        0x0001e45e:    f1d26c7f    ...l    RSBSCS   r12,r2,#0xff00000
        0x0001e462:    d90b        ..      BLS      0x1e47c ; __aeabi_d2f + 48
        0x0001e464:    ea5f1c00    _...    LSLS     r12,r0,#4
        0x0001e468:    ea4302c2    C...    ORR      r2,r3,r2,LSL #3
        0x0001e46c:    eb427050    B.Pp    ADC      r0,r2,r0,LSR #29
        0x0001e470:    bf18        ..      IT       NE
        0x0001e472:    4770        pG      BXNE     lr
        0x0001e474:    bf28        (.      IT       CS
        0x0001e476:    f0200001     ...    BICCS    r0,r0,#1
        0x0001e47a:    4770        pG      BX       lr
        0x0001e47c:    f5b21f80    ....    CMP      r2,#0x100000
        0x0001e480:    bfbc        ..      ITT      LT
        0x0001e482:    4618        .F      MOVLT    r0,r3
        0x0001e484:    4770        pG      BXLT     lr
        0x0001e486:    ea4f0c41    O.A.    LSL      r12,r1,#1
        0x0001e48a:    f51c1f00    ....    CMN      r12,#0x200000
        0x0001e48e:    d202        ..      BCS      0x1e496 ; __aeabi_d2f + 74
        0x0001e490:    4608        .F      MOV      r0,r1
        0x0001e492:    f000b85f    .._.    B.W      __fpl_fretinf ; 0x1e554
        0x0001e496:    b570        p.      PUSH     {r4-r6,lr}
        0x0001e498:    f000f809    ....    BL       __fpl_dnaninf ; 0x1e4ae
    $d
        0x0001e49c:    89000000    ....    DCD    2298478592
    $t
        0x0001e4a0:    f7ffbff6    ....    B.W      0x1e490 ; __aeabi_d2f + 68
        0x0001e4a4:    f04f4000    O..@    MOV      r0,#0x80000000
        0x0001e4a8:    f5a00080    ....    SUB      r0,r0,#0x400000
        0x0001e4ac:    4770        pG      BX       lr
    x$fpl$dnaninf
    $v0
    __fpl_dnaninf
        0x0001e4ae:    f10e0e02    ....    ADD      lr,lr,#2
        0x0001e4b2:    f02e0e03    ....    BIC      lr,lr,#3
        0x0001e4b6:    f85e6b04    ^..k    LDR      r6,[lr],#4
        0x0001e4ba:    4236        6B      TST      r6,r6
        0x0001e4bc:    d405        ..      BMI      0x1e4ca ; __fpl_dnaninf + 28
        0x0001e4be:    2a01        .*      CMP      r2,#1
        0x0001e4c0:    eb430503    C...    ADC      r5,r3,r3
        0x0001e4c4:    f5151f00    ....    CMN      r5,#0x200000
        0x0001e4c8:    d812        ..      BHI      0x1e4f0 ; __fpl_dnaninf + 66
        0x0001e4ca:    2801        .(      CMP      r0,#1
        0x0001e4cc:    eb410c01    A...    ADC      r12,r1,r1
        0x0001e4d0:    f51c1f00    ....    CMN      r12,#0x200000
        0x0001e4d4:    d80c        ..      BHI      0x1e4f0 ; __fpl_dnaninf + 66
        0x0001e4d6:    d10e        ..      BNE      0x1e4f6 ; __fpl_dnaninf + 72
        0x0001e4d8:    ea4f7cd1    O..|    LSR      r12,r1,#31
        0x0001e4dc:    f5151f00    ....    CMN      r5,#0x200000
        0x0001e4e0:    eb0c0c4c    ..L.    ADD      r12,r12,r12,LSL #1
        0x0001e4e4:    f10c0c02    ....    ADD      r12,r12,#2
        0x0001e4e8:    bf08        ..      IT       EQ
        0x0001e4ea:    eb4c7cd3    L..|    ADCEQ    r12,r12,r3,LSR #31
        0x0001e4ee:    e004        ..      B        0x1e4fa ; __fpl_dnaninf + 76
        0x0001e4f0:    f04f0c08    O...    MOV      r12,#8
        0x0001e4f4:    e001        ..      B        0x1e4fa ; __fpl_dnaninf + 76
        0x0001e4f6:    ea4f7cd3    O..|    LSR      r12,r3,#31
        0x0001e4fa:    eb0c054c    ..L.    ADD      r5,r12,r12,LSL #1
        0x0001e4fe:    fa26f605    &...    LSR      r6,r6,r5
        0x0001e502:    f0060607    ....    AND      r6,r6,#7
        0x0001e506:    f1b60c04    ....    SUBS     r12,r6,#4
        0x0001e50a:    d206        ..      BCS      0x1e51a ; __fpl_dnaninf + 108
        0x0001e50c:    eb0e0c86    ....    ADD      r12,lr,r6,LSL #2
        0x0001e510:    e8bd4070    ..p@    POP      {r4-r6,lr}
        0x0001e514:    f04c0c01    L...    ORR      r12,r12,#1
        0x0001e518:    4760        `G      BX       r12
        0x0001e51a:    e8dff00c    ....    TBB      [pc,r12]
    $d
        0x0001e51e:    0b09        ..      DCW    2825
        0x0001e520:    0202        ..      DCW    514
    $t
        0x0001e522:    f04f4100    O..A    MOV      r1,#0x80000000
        0x0001e526:    f04f0000    O...    MOV      r0,#0
        0x0001e52a:    f5a12100    ...!    SUB      r1,r1,#0x80000
        0x0001e52e:    bd70        p.      POP      {r4-r6,pc}
        0x0001e530:    4619        .F      MOV      r1,r3
        0x0001e532:    4610        .F      MOV      r0,r2
        0x0001e534:    2801        .(      CMP      r0,#1
        0x0001e536:    eb510401    Q...    ADCS     r4,r1,r1
        0x0001e53a:    bf18        ..      IT       NE
        0x0001e53c:    f5d41400    ....    RSBSNE   r4,r4,#0x200000
        0x0001e540:    bf84        ..      ITT      HI
        0x0001e542:    2000        .       MOVHI    r0,#0
        0x0001e544:    f0014100    ...A    ANDHI    r1,r1,#0x80000000
        0x0001e548:    bd70        p.      POP      {r4-r6,pc}
    x$fpl$fpinit
    $v0
    _fp_init
        0x0001e54a:    f04f7040    O.@p    MOV      r0,#0x3000000
        0x0001e54e:    eee10a10    ....    VMSR     FPSCR,r0
    __fplib_config_fpu_vfp
    __fplib_config_pureend_doubles
        0x0001e552:    4770        pG      BX       lr
    x$fpl$fretinf
    $v0
    __fpl_fretinf
        0x0001e554:    21ff        .!      MOVS     r1,#0xff
        0x0001e556:    ea4150d0    A..P    ORR      r0,r1,r0,LSR #23
        0x0001e55a:    05c0        ..      LSLS     r0,r0,#23
        0x0001e55c:    4770        pG      BX       lr
    x$fpl$usenofp
    __I$use$fp
        0x0001e55e:    0000        ..      MOVS     r0,r0
    $d.realdata
    .constdata
    __tagsym$$used
    ui32MCUAllowed
        0x0001e560:    00000021    !...    DCD    33
        0x0001e564:    00000000    ....    DCD    0
        0x0001e568:    00000000    ....    DCD    0
        0x0001e56c:    00000000    ....    DCD    0
        0x0001e570:    00000000    ....    DCD    0
    __tagsym$$used
    ui32DSP0Allowed
        0x0001e574:    00000001    ....    DCD    1
        0x0001e578:    00000000    ....    DCD    0
        0x0001e57c:    00010000    ....    DCD    65536
        0x0001e580:    00000000    ....    DCD    0
        0x0001e584:    00000000    ....    DCD    0
    __tagsym$$used
    ui32DSP1Allowed
        0x0001e588:    00000000    ....    DCD    0
        0x0001e58c:    00000000    ....    DCD    0
        0x0001e590:    00020000    ....    DCD    131072
        0x0001e594:    00000000    ....    DCD    0
        0x0001e598:    00000000    ....    DCD    0
    __tagsym$$used
    ui32SharedAccess
        0x0001e59c:    00000001    ....    DCD    1
        0x0001e5a0:    00000000    ....    DCD    0
        0x0001e5a4:    00000000    ....    DCD    0
        0x0001e5a8:    00000000    ....    DCD    0
        0x0001e5ac:    00000000    ....    DCD    0
    __tagsym$$used
    sGlobalAccess
        0x0001e5b0:    0001e59c    ....    DCD    124316
        0x0001e5b4:    0001e560    `...    DCD    124256
        0x0001e5b8:    0001e574    t...    DCD    124276
        0x0001e5bc:    0001e588    ....    DCD    124296
        0x0001e5c0:    10060004    ....    DCD    268828676
        0x0001e5c4:    10060018    ....    DCD    268828696
        0x0001e5c8:    1006002c    ,...    DCD    268828716
    .constdata
    MSPI_Flash_Config
        0x0001e5cc:    00000404    ....    DCD    1028
        0x0001e5d0:    100002dc    ....    DCD    268436188
        0x0001e5d4:    00000a00    ....    DCD    2560
        0x0001e5d8:    00000000    ....    DCD    0
        0x0001e5dc:    00000000    ....    DCD    0
    mspi_interrupts
        0x0001e5e0:    00161514    ....    DCD    1447188
    .constdata
    g_am_hal_bootrom_helper
        0x0001e5e4:    0800004d    M...    DCD    134217805
        0x0001e5e8:    08000051    Q...    DCD    134217809
        0x0001e5ec:    08000055    U...    DCD    134217813
        0x0001e5f0:    08000059    Y...    DCD    134217817
        0x0001e5f4:    0800006d    m...    DCD    134217837
        0x0001e5f8:    08000075    u...    DCD    134217845
        0x0001e5fc:    08000079    y...    DCD    134217849
        0x0001e600:    08000081    ....    DCD    134217857
        0x0001e604:    08000099    ....    DCD    134217881
        0x0001e608:    0800009d    ....    DCD    134217885
    .constdata
    gAmHalCmdQReg
        0x0001e60c:    40050228    (..@    DCD    1074070056
        0x0001e610:    4005022c    ,..@    DCD    1074070060
        0x0001e614:    40050240    @..@    DCD    1074070080
        0x0001e618:    40050244    D..@    DCD    1074070084
        0x0001e61c:    4005023c    <..@    DCD    1074070076
        0x0001e620:    00008000    ....    DCD    32768
        0x0001e624:    40050230    0..@    DCD    1074070064
        0x0001e628:    00000001    ....    DCD    1
        0x0001e62c:    00000004    ....    DCD    4
        0x0001e630:    00000002    ....    DCD    2
        0x0001e634:    40051228    (..@    DCD    1074074152
        0x0001e638:    4005122c    ,..@    DCD    1074074156
        0x0001e63c:    40051240    @..@    DCD    1074074176
        0x0001e640:    40051244    D..@    DCD    1074074180
        0x0001e644:    4005123c    <..@    DCD    1074074172
        0x0001e648:    00008000    ....    DCD    32768
        0x0001e64c:    40051230    0..@    DCD    1074074160
        0x0001e650:    00000001    ....    DCD    1
        0x0001e654:    00000004    ....    DCD    4
        0x0001e658:    00000002    ....    DCD    2
        0x0001e65c:    40052228    (".@    DCD    1074078248
        0x0001e660:    4005222c    ,".@    DCD    1074078252
        0x0001e664:    40052240    @".@    DCD    1074078272
        0x0001e668:    40052244    D".@    DCD    1074078276
        0x0001e66c:    4005223c    <".@    DCD    1074078268
        0x0001e670:    00008000    ....    DCD    32768
        0x0001e674:    40052230    0".@    DCD    1074078256
        0x0001e678:    00000001    ....    DCD    1
        0x0001e67c:    00000004    ....    DCD    4
        0x0001e680:    00000002    ....    DCD    2
        0x0001e684:    40053228    (2.@    DCD    1074082344
        0x0001e688:    4005322c    ,2.@    DCD    1074082348
        0x0001e68c:    40053240    @2.@    DCD    1074082368
        0x0001e690:    40053244    D2.@    DCD    1074082372
        0x0001e694:    4005323c    <2.@    DCD    1074082364
        0x0001e698:    00008000    ....    DCD    32768
        0x0001e69c:    40053230    02.@    DCD    1074082352
        0x0001e6a0:    00000001    ....    DCD    1
        0x0001e6a4:    00000004    ....    DCD    4
        0x0001e6a8:    00000002    ....    DCD    2
        0x0001e6ac:    40054228    (B.@    DCD    1074086440
        0x0001e6b0:    4005422c    ,B.@    DCD    1074086444
        0x0001e6b4:    40054240    @B.@    DCD    1074086464
        0x0001e6b8:    40054244    DB.@    DCD    1074086468
        0x0001e6bc:    4005423c    <B.@    DCD    1074086460
        0x0001e6c0:    00008000    ....    DCD    32768
        0x0001e6c4:    40054230    0B.@    DCD    1074086448
        0x0001e6c8:    00000001    ....    DCD    1
        0x0001e6cc:    00000004    ....    DCD    4
        0x0001e6d0:    00000002    ....    DCD    2
        0x0001e6d4:    40055228    (R.@    DCD    1074090536
        0x0001e6d8:    4005522c    ,R.@    DCD    1074090540
        0x0001e6dc:    40055240    @R.@    DCD    1074090560
        0x0001e6e0:    40055244    DR.@    DCD    1074090564
        0x0001e6e4:    4005523c    <R.@    DCD    1074090556
        0x0001e6e8:    00008000    ....    DCD    32768
        0x0001e6ec:    40055230    0R.@    DCD    1074090544
        0x0001e6f0:    00000001    ....    DCD    1
        0x0001e6f4:    00000004    ....    DCD    4
        0x0001e6f8:    00000002    ....    DCD    2
        0x0001e6fc:    40056228    (b.@    DCD    1074094632
        0x0001e700:    4005622c    ,b.@    DCD    1074094636
        0x0001e704:    40056240    @b.@    DCD    1074094656
        0x0001e708:    40056244    Db.@    DCD    1074094660
        0x0001e70c:    4005623c    <b.@    DCD    1074094652
        0x0001e710:    00008000    ....    DCD    32768
        0x0001e714:    40056230    0b.@    DCD    1074094640
        0x0001e718:    00000001    ....    DCD    1
        0x0001e71c:    00000004    ....    DCD    4
        0x0001e720:    00000002    ....    DCD    2
        0x0001e724:    40057228    (r.@    DCD    1074098728
        0x0001e728:    4005722c    ,r.@    DCD    1074098732
        0x0001e72c:    40057240    @r.@    DCD    1074098752
        0x0001e730:    40057244    Dr.@    DCD    1074098756
        0x0001e734:    4005723c    <r.@    DCD    1074098748
        0x0001e738:    00008000    ....    DCD    32768
        0x0001e73c:    40057230    0r.@    DCD    1074098736
        0x0001e740:    00000001    ....    DCD    1
        0x0001e744:    00000004    ....    DCD    4
        0x0001e748:    00000002    ....    DCD    2
        0x0001e74c:    400602a0    ...@    DCD    1074135712
        0x0001e750:    400602a8    ...@    DCD    1074135720
        0x0001e754:    400602c0    ...@    DCD    1074135744
        0x0001e758:    400602c4    ...@    DCD    1074135748
        0x0001e75c:    400602b8    ...@    DCD    1074135736
        0x0001e760:    00004000    .@..    DCD    16384
        0x0001e764:    400602ac    ...@    DCD    1074135724
        0x0001e768:    00000001    ....    DCD    1
        0x0001e76c:    00000004    ....    DCD    4
        0x0001e770:    00000008    ....    DCD    8
        0x0001e774:    400612a0    ...@    DCD    1074139808
        0x0001e778:    400612a8    ...@    DCD    1074139816
        0x0001e77c:    400612c0    ...@    DCD    1074139840
        0x0001e780:    400612c4    ...@    DCD    1074139844
        0x0001e784:    400612b8    ...@    DCD    1074139832
        0x0001e788:    00004000    .@..    DCD    16384
        0x0001e78c:    400612ac    ...@    DCD    1074139820
        0x0001e790:    00000001    ....    DCD    1
        0x0001e794:    00000004    ....    DCD    4
        0x0001e798:    00000008    ....    DCD    8
        0x0001e79c:    400622a0    .".@    DCD    1074143904
        0x0001e7a0:    400622a8    .".@    DCD    1074143912
        0x0001e7a4:    400622c0    .".@    DCD    1074143936
        0x0001e7a8:    400622c4    .".@    DCD    1074143940
        0x0001e7ac:    400622b8    .".@    DCD    1074143928
        0x0001e7b0:    00004000    .@..    DCD    16384
        0x0001e7b4:    400622ac    .".@    DCD    1074143916
        0x0001e7b8:    00000001    ....    DCD    1
        0x0001e7bc:    00000004    ....    DCD    4
        0x0001e7c0:    00000008    ....    DCD    8
    .constdata
    g_ui32DSpintbl
        0x0001e7c4:    8fc007e0    ....    DCD    2411726816
        0x0001e7c8:    e3fbffff    ....    DCD    3824943103
        0x0001e7cc:    01ffffff    ....    DCD    33554431
        0x0001e7d0:    00000000    ....    DCD    0
    .constdata
    g_DefaultSRAMCfg
        0x0001e7d4:    03000003    ....    DCD    50331651
    g_DefaultMcuMemCfg
        0x0001e7d8:    07070102    ....    DCD    117899522
        0x0001e7dc:    00000001    ....    DCD    1
    am_hal_pwrctrl_peripheral_control
        0x0001e7e0:    40021004    ...@    DCD    1073876996
        0x0001e7e4:    00000001    ....    DCD    1
        0x0001e7e8:    40021008    ...@    DCD    1073877000
        0x0001e7ec:    00000001    ....    DCD    1
        0x0001e7f0:    40021004    ...@    DCD    1073876996
        0x0001e7f4:    00000002    ....    DCD    2
        0x0001e7f8:    40021008    ...@    DCD    1073877000
        0x0001e7fc:    00000002    ....    DCD    2
        0x0001e800:    40021004    ...@    DCD    1073876996
        0x0001e804:    00000004    ....    DCD    4
        0x0001e808:    40021008    ...@    DCD    1073877000
        0x0001e80c:    00000004    ....    DCD    4
        0x0001e810:    40021004    ...@    DCD    1073876996
        0x0001e814:    00000008    ....    DCD    8
        0x0001e818:    40021008    ...@    DCD    1073877000
        0x0001e81c:    00000008    ....    DCD    8
        0x0001e820:    40021004    ...@    DCD    1073876996
        0x0001e824:    00000010    ....    DCD    16
        0x0001e828:    40021008    ...@    DCD    1073877000
        0x0001e82c:    00000010    ....    DCD    16
        0x0001e830:    40021004    ...@    DCD    1073876996
        0x0001e834:    00000020     ...    DCD    32
        0x0001e838:    40021008    ...@    DCD    1073877000
        0x0001e83c:    00000020     ...    DCD    32
        0x0001e840:    40021004    ...@    DCD    1073876996
        0x0001e844:    00000040    @...    DCD    64
        0x0001e848:    40021008    ...@    DCD    1073877000
        0x0001e84c:    00000040    @...    DCD    64
        0x0001e850:    40021004    ...@    DCD    1073876996
        0x0001e854:    00000080    ....    DCD    128
        0x0001e858:    40021008    ...@    DCD    1073877000
        0x0001e85c:    00000080    ....    DCD    128
        0x0001e860:    40021004    ...@    DCD    1073876996
        0x0001e864:    00000100    ....    DCD    256
        0x0001e868:    40021008    ...@    DCD    1073877000
        0x0001e86c:    00000100    ....    DCD    256
        0x0001e870:    40021004    ...@    DCD    1073876996
        0x0001e874:    00000200    ....    DCD    512
        0x0001e878:    40021008    ...@    DCD    1073877000
        0x0001e87c:    00000200    ....    DCD    512
        0x0001e880:    40021004    ...@    DCD    1073876996
        0x0001e884:    00000400    ....    DCD    1024
        0x0001e888:    40021008    ...@    DCD    1073877000
        0x0001e88c:    00000400    ....    DCD    1024
        0x0001e890:    40021004    ...@    DCD    1073876996
        0x0001e894:    00000800    ....    DCD    2048
        0x0001e898:    40021008    ...@    DCD    1073877000
        0x0001e89c:    00000800    ....    DCD    2048
        0x0001e8a0:    40021004    ...@    DCD    1073876996
        0x0001e8a4:    00001000    ....    DCD    4096
        0x0001e8a8:    40021008    ...@    DCD    1073877000
        0x0001e8ac:    00001000    ....    DCD    4096
        0x0001e8b0:    40021004    ...@    DCD    1073876996
        0x0001e8b4:    00002000    . ..    DCD    8192
        0x0001e8b8:    40021008    ...@    DCD    1073877000
        0x0001e8bc:    00002000    . ..    DCD    8192
        0x0001e8c0:    40021004    ...@    DCD    1073876996
        0x0001e8c4:    00004000    .@..    DCD    16384
        0x0001e8c8:    40021008    ...@    DCD    1073877000
        0x0001e8cc:    00004000    .@..    DCD    16384
        0x0001e8d0:    40021004    ...@    DCD    1073876996
        0x0001e8d4:    00008000    ....    DCD    32768
        0x0001e8d8:    40021008    ...@    DCD    1073877000
        0x0001e8dc:    00008000    ....    DCD    32768
        0x0001e8e0:    40021004    ...@    DCD    1073876996
        0x0001e8e4:    00010000    ....    DCD    65536
        0x0001e8e8:    40021008    ...@    DCD    1073877000
        0x0001e8ec:    00010000    ....    DCD    65536
        0x0001e8f0:    40021004    ...@    DCD    1073876996
        0x0001e8f4:    00020000    ....    DCD    131072
        0x0001e8f8:    40021008    ...@    DCD    1073877000
        0x0001e8fc:    00020000    ....    DCD    131072
        0x0001e900:    40021004    ...@    DCD    1073876996
        0x0001e904:    00040000    ....    DCD    262144
        0x0001e908:    40021008    ...@    DCD    1073877000
        0x0001e90c:    00040000    ....    DCD    262144
        0x0001e910:    40021004    ...@    DCD    1073876996
        0x0001e914:    00080000    ....    DCD    524288
        0x0001e918:    40021008    ...@    DCD    1073877000
        0x0001e91c:    00080000    ....    DCD    524288
        0x0001e920:    40021004    ...@    DCD    1073876996
        0x0001e924:    00100000    ....    DCD    1048576
        0x0001e928:    40021008    ...@    DCD    1073877000
        0x0001e92c:    00100000    ....    DCD    1048576
        0x0001e930:    40021004    ...@    DCD    1073876996
        0x0001e934:    00200000    .. .    DCD    2097152
        0x0001e938:    40021008    ...@    DCD    1073877000
        0x0001e93c:    00200000    .. .    DCD    2097152
        0x0001e940:    40021004    ...@    DCD    1073876996
        0x0001e944:    00400000    ..@.    DCD    4194304
        0x0001e948:    40021008    ...@    DCD    1073877000
        0x0001e94c:    00400000    ..@.    DCD    4194304
        0x0001e950:    40021004    ...@    DCD    1073876996
        0x0001e954:    00800000    ....    DCD    8388608
        0x0001e958:    40021008    ...@    DCD    1073877000
        0x0001e95c:    00800000    ....    DCD    8388608
        0x0001e960:    40021004    ...@    DCD    1073876996
        0x0001e964:    01000000    ....    DCD    16777216
        0x0001e968:    40021008    ...@    DCD    1073877000
        0x0001e96c:    01000000    ....    DCD    16777216
        0x0001e970:    4002100c    ...@    DCD    1073877004
        0x0001e974:    00000001    ....    DCD    1
        0x0001e978:    40021010    ...@    DCD    1073877008
        0x0001e97c:    00000001    ....    DCD    1
        0x0001e980:    4002100c    ...@    DCD    1073877004
        0x0001e984:    00000002    ....    DCD    2
        0x0001e988:    40021010    ...@    DCD    1073877008
        0x0001e98c:    00000002    ....    DCD    2
        0x0001e990:    4002100c    ...@    DCD    1073877004
        0x0001e994:    00000004    ....    DCD    4
        0x0001e998:    40021010    ...@    DCD    1073877008
        0x0001e99c:    00000004    ....    DCD    4
        0x0001e9a0:    4002100c    ...@    DCD    1073877004
        0x0001e9a4:    00000008    ....    DCD    8
        0x0001e9a8:    40021010    ...@    DCD    1073877008
        0x0001e9ac:    00000008    ....    DCD    8
        0x0001e9b0:    4002100c    ...@    DCD    1073877004
        0x0001e9b4:    00000010    ....    DCD    16
        0x0001e9b8:    40021010    ...@    DCD    1073877008
        0x0001e9bc:    00000010    ....    DCD    16
        0x0001e9c0:    4002100c    ...@    DCD    1073877004
        0x0001e9c4:    00000020     ...    DCD    32
        0x0001e9c8:    40021010    ...@    DCD    1073877008
        0x0001e9cc:    00000020     ...    DCD    32
        0x0001e9d0:    4002100c    ...@    DCD    1073877004
        0x0001e9d4:    00000040    @...    DCD    64
        0x0001e9d8:    40021010    ...@    DCD    1073877008
        0x0001e9dc:    00000040    @...    DCD    64
        0x0001e9e0:    4002100c    ...@    DCD    1073877004
        0x0001e9e4:    00000080    ....    DCD    128
        0x0001e9e8:    40021010    ...@    DCD    1073877008
        0x0001e9ec:    00000080    ....    DCD    128
        0x0001e9f0:    4002100c    ...@    DCD    1073877004
        0x0001e9f4:    00000400    ....    DCD    1024
        0x0001e9f8:    40021010    ...@    DCD    1073877008
        0x0001e9fc:    00000400    ....    DCD    1024
        0x0001ea00:    4002100c    ...@    DCD    1073877004
        0x0001ea04:    00000800    ....    DCD    2048
        0x0001ea08:    4002100c    ...@    DCD    1073877004
        0x0001ea0c:    00000800    ....    DCD    2048
    .constdata
    am_hal_daxi_defaults
        0x0001ea10:    00010304    ....    DCD    66308
    Region$$Table$$Base
        0x0001ea14:    0001ea44    D...    DCD    125508
        0x0001ea18:    10000000    ....    DCD    268435456
        0x0001ea1c:    000002dc    ....    DCD    732
        0x0001ea20:    00018274    t...    DCD    98932
        0x0001ea24:    0001ebc4    ....    DCD    125892
        0x0001ea28:    10060000    ....    DCD    268828672
        0x0001ea2c:    00000040    @...    DCD    64
        0x0001ea30:    000182d0    ....    DCD    99024
        0x0001ea34:    0001ebc4    ....    DCD    125892
        0x0001ea38:    100002dc    ....    DCD    268436188
        0x0001ea3c:    000081dc    ....    DCD    33244
        0x0001ea40:    000182ec    ....    DCD    99052
    Region$$Table$$Limit

** Section #2 'MCU_TCM' (SHT_PROGBITS) [SHF_ALLOC + SHF_WRITE]
    Size   : 384 bytes (alignment 16)
    Address: 0x10000000

    Data section was compressed (Original size: 732 bytes)

    0x10000000:   00 20 06 40 00 00 00 00 00 00 00 00 4d 53 50 49    . .@........MSPI
    0x10000010:   20 46 4c 41 53 48 20 41 54 58 50 30 33 32 00 00     FLASH ATXP032..
    0x10000020:   dd 91 01 00 d9 8f 01 00 95 91 01 00 c5 98 01 00    ................
    0x10000030:   31 96 01 00 81 95 01 00 75 97 01 00 45 91 01 00    1.......u...E...
    0x10000040:   cd 90 01 00 1d 91 01 00 7d 90 01 00 00 00 00 00    ........}.......
    0x10000050:   00 00 00 00 00 00 00 00 00 00 00 00 00 00 00 14    ................
    0x10000060:   00 0a 00 00 00 00 00 00 00 00 00 00 00 00 00 18    ................
    0x10000070:   00 0a 00 00 00 00 00 00 00 00 00 00 00 00 00 1c    ................
    0x10000080:   00 0a 00 00 08 03 00 00 0b 00 02 00 00 00 00 06    ................
    0x10000090:   00 01 01 01 00 00 00 00 00 00 08 03 00 00 0b 00    ................
    0x100000a0:   02 00 01 00 00 04 00 01 01 01 00 00 00 00 00 00    ................
    0x100000b0:   08 03 00 00 0b 00 02 00 04 00 00 04 00 01 01 01    ................
    0x100000c0:   00 00 00 00 00 00 08 03 00 00 0b 00 02 00 05 00    ................
    0x100000d0:   00 04 00 01 01 01 00 00 00 00 00 00 08 03 00 00    ................
    0x100000e0:   0b 00 02 00 06 00 00 04 00 01 01 01 00 00 00 00    ................
    0x100000f0:   00 00 08 03 00 00 0b 00 02 00 07 00 00 04 00 01    ................
    0x10000100:   01 01 00 00 00 00 00 00 00 00 00 00 84 00 00 10    ................
    0x10000110:   01 00 00 00 9a 00 00 10 04 00 00 00 b0 00 00 10    ................
    0x10000120:   05 00 00 00 c6 00 00 10 06 00 00 00 dc 00 00 10    ................
    0x10000130:   07 00 00 00 f2 00 00 10 00 00 00 00 00 00 00 00    ................
    0x10000140:   00 00 00 00 00 00 00 00 00 00 00 00 08 1e 0c 40    ...............@
    0x10000150:   18 1e 0c 40 00 00 00 00 6d db 02 40 d1 02 00 00    ...@....m..@....
    0x10000160:   92 24 01 80 20 01 00 00 01 00 00 00 ff ff ff ff    .$.. ...........
    0x10000170:   ff ff ff ff ff ff ff ff ff ff ff ff 00 00 00 00    ................
    0x10000180:   91 01 00 10 00 00 00 00 00 00 00 00 00 00 00 00    ................
    0x10000190:   08 60 bf f3 4f 8f 30 bf bf f3 6f 8f 70 47 00 bf    .`..O.0...o.pG..
    0x100001a0:   00 00 00 00 00 00 00 00 00 00 00 00 00 00 00 00    ................
    0x100001b0:   87 05 20 00 87 05 21 00 87 05 20 00 87 05 21 00    .. ...!... ...!.
    0x100001c0:   80 04 00 00 80 04 00 00 80 04 00 00 80 04 00 00    ................
    0x100001d0:   80 04 00 00 80 04 00 00 80 04 00 00 80 04 00 00    ................
    0x100001e0:   80 04 00 00 80 04 00 00 87 0d 24 00 87 0d 25 00    ..........$...%.
    0x100001f0:   87 0d 24 00 87 0d 25 00 80 0c 00 00 80 0c 00 00    ..$...%.........
    0x10000200:   80 0c 00 00 80 0c 00 00 80 0c 00 00 80 0c 00 00    ................
    0x10000210:   80 0c 00 00 80 0c 00 00 80 0c 00 00 80 0c 00 00    ................
    0x10000220:   00 00 00 00 44 f2 04 01 c4 f2 01 01 c3 22 4a 60    ....D........"J`
    0x10000230:   05 22 cb 6c 43 f0 10 03 cb 64 0a 65 01 23 cb 60    .".lC....d.e.#.`
    0x10000240:   00 22 0a 61 4a 61 8a 61 00 f0 0f 00 0b 68 43 f0    .".aJa.a.....hC.
    0x10000250:   08 03 0b 60 0a 68 22 f0 08 02 0a 60 09 22 0b 6d    ...`.h"....`.".m
    0x10000260:   62 f3 95 23 0b 65 06 22 0b 6d 62 f3 04 03 0b 65    b..#.e.".mb....e
    0x10000270:   0a 68 42 f0 08 02 0a 60 ca 6d 0b 68 23 f0 08 03    .hB....`.m.h#...
    0x10000280:   12 09 0b 60 40 ea 02 10 c8 60 05 20 0a 6d 60 f3    ...`@....`. .m`.
    0x10000290:   04 02 0a 65 08 68 40 f0 08 00 08 60 0a 68 22 f0    ...e.h@....`.h".
    0x100002a0:   08 02 0a 60 00 22 08 6d 6f f3 95 20 08 65 ca 60    ...`.".mo.. .e.`
    0x100002b0:   05 20 0a 6d 60 f3 04 02 0a 65 08 68 40 f0 08 00    . .m`....e.h@...
    0x100002c0:   08 60 0a 68 22 f0 08 02 0a 60 00 22 c8 6c 20 f0    .`.h"....`.".l .
    0x100002d0:   10 00 c8 64 4a 60 70 47 25 02 00 10                ...dJ`pG%...


** Section #3 'MCU_TCM' (SHT_NOBITS) [SHF_ALLOC + SHF_WRITE]
    Size   : 33244 bytes (alignment 8)
    Address: 0x100002dc


** Section #4 'SHARED_SRAM' (SHT_PROGBITS) [SHF_ALLOC + SHF_WRITE]
    Size   : 64 bytes (alignment 4)
    Address: 0x10060000

    0x10060000:   b0 e5 01 00 00 00 00 00 00 00 00 00 00 00 00 00    ................
    0x10060010:   00 00 00 00 00 00 00 00 00 00 00 00 00 00 00 00    ................
    0x10060020:   00 00 00 00 00 00 00 00 00 00 00 00 00 00 00 00    ................
    0x10060030:   00 00 00 00 00 00 00 00 00 00 00 00 00 00 00 00    ................


** Section #5 '.debug_abbrev' (SHT_PROGBITS)
    Size   : 1476 bytes


** Section #6 '.debug_frame' (SHT_PROGBITS)
    Size   : 5084 bytes


** Section #7 '.debug_info' (SHT_PROGBITS)
    Size   : 1080916 bytes


** Section #8 '.debug_line' (SHT_PROGBITS)
    Size   : 10764 bytes


** Section #9 '.debug_loc' (SHT_PROGBITS)
    Size   : 5612 bytes


** Section #10 '.debug_macinfo' (SHT_PROGBITS)
    Size   : 769020 bytes


** Section #11 '.debug_pubnames' (SHT_PROGBITS)
    Size   : 1820 bytes


** Section #12 '.symtab' (SHT_SYMTAB)
    Size   : 15120 bytes (alignment 4)
    String table #13 '.strtab'
    Last local symbol no. 601

    Symbol table .symtab (944 symbols, 601 local)

      #  Symbol Name                Value      Bind  Sec  Type  Vis  Size
    ========================================================================

      1  $d                         0x00018000   Lc    1   --   De 
      2  $t                         0x00018200   Lc    1   --   De 
      3  $d                         0x00018232   Lc    1   --   De 
      4  $t                         0x00018238   Lc    1   --   De 
      5  $d                         0x0001826c   Lc    1   --   De 
      6  $t                         0x00018274   Lc    1   --   De 
      7  $d                         0x000183be   Lc    1   --   De 
      8  $t                         0x000183cc   Lc    1   --   De 
      9  $d                         0x000185bc   Lc    1   --   De 
     10  $t                         0x000185c0   Lc    1   --   De 
     11  $d                         0x000185c8   Lc    1   --   De 
     12  $t                         0x000185cc   Lc    1   --   De 
     13  $d                         0x00018630   Lc    1   --   De 
     14  $t                         0x00018648   Lc    1   --   De 
     15  $d                         0x00018676   Lc    1   --   De 
     16  $t                         0x00018688   Lc    1   --   De 
     17  $d                         0x00018692   Lc    1   --   De 
     18  $t                         0x000186a4   Lc    1   --   De 
     19  $d                         0x00018aa0   Lc    1   --   De 
     20  $t                         0x00018af4   Lc    1   --   De 
     21  $d                         0x00018d24   Lc    1   --   De 
     22  $t                         0x00018d5c   Lc    1   --   De 
     23  $d                         0x00018d94   Lc    1   --   De 
     24  $t                         0x00018d9c   Lc    1   --   De 
     25  $d                         0x00018e44   Lc    1   --   De 
     26  $t                         0x00018e4c   Lc    1   --   De 
     27  $d                         0x00018f38   Lc    1   --   De 
     28  $t                         0x00018f3c   Lc    1   --   De 
     29  $d                         0x00018fd2   Lc    1   --   De 
     30  $t                         0x00018fd8   Lc    1   --   De 
     31  $d                         0x00019056   Lc    1   --   De 
     32  $t                         0x0001907c   Lc    1   --   De 
     33  $d                         0x000190c6   Lc    1   --   De 
     34  $t                         0x000190cc   Lc    1   --   De 
     35  $d                         0x00019116   Lc    1   --   De 
     36  $t                         0x0001911c   Lc    1   --   De 
     37  $d                         0x0001913e   Lc    1   --   De 
     38  $t                         0x00019144   Lc    1   --   De 
     39  $d                         0x0001918e   Lc    1   --   De 
     40  $t                         0x00019194   Lc    1   --   De 
     41  $d                         0x000191d8   Lc    1   --   De 
     42  $t                         0x000191dc   Lc    1   --   De 
     43  $d                         0x00019254   Lc    1   --   De 
     44  $t                         0x0001925c   Lc    1   --   De 
     45  $d                         0x000194b2   Lc    1   --   De 
     46  $t                         0x00019580   Lc    1   --   De 
     47  $d                         0x0001962a   Lc    1   --   De 
     48  $t                         0x00019630   Lc    1   --   De 
     49  $d                         0x000196fc   Lc    1   --   De 
     50  $t                         0x0001970c   Lc    1   --   De 
     51  $d                         0x00019810   Lc    1   --   De 
     52  $t                         0x00019818   Lc    1   --   De 
     53  $d                         0x000198c0   Lc    1   --   De 
     54  $t                         0x000198c4   Lc    1   --   De 
     55  $d                         0x00019990   Lc    1   --   De 
     56  $t                         0x00019998   Lc    1   --   De 
     57  $d                         0x00019a4a   Lc    1   --   De 
     58  $t                         0x00019a54   Lc    1   --   De 
     59  $d                         0x00019b1c   Lc    1   --   De 
     60  $t                         0x00019b20   Lc    1   --   De 
     61  $d                         0x00019b5c   Lc    1   --   De 
     62  $t                         0x00019b60   Lc    1   --   De 
     63  $d                         0x00019b9c   Lc    1   --   De 
     64  $t                         0x00019ba0   Lc    1   --   De 
     65  $d                         0x00019c10   Lc    1   --   De 
     66  $t                         0x00019c14   Lc    1   --   De 
     67  $d                         0x00019cb2   Lc    1   --   De 
     68  $t                         0x00019cb8   Lc    1   --   De 
     69  $d                         0x00019d9a   Lc    1   --   De 
     70  $t                         0x00019da8   Lc    1   --   De 
     71  $d                         0x00019df0   Lc    1   --   De 
     72  $t                         0x00019df4   Lc    1   --   De 
     73  $d                         0x00019e4a   Lc    1   --   De 
     74  $t                         0x00019e50   Lc    1   --   De 
     75  $d                         0x00019e82   Lc    1   --   De 
     76  $t                         0x00019e88   Lc    1   --   De 
     77  $d                         0x00019ee6   Lc    1   --   De 
     78  $t                         0x00019eec   Lc    1   --   De 
     79  $d                         0x00019f70   Lc    1   --   De 
     80  $t                         0x00019f74   Lc    1   --   De 
     81  $d                         0x0001a048   Lc    1   --   De 
     82  $t                         0x0001a054   Lc    1   --   De 
     83  $d                         0x0001a12a   Lc    1   --   De 
     84  $t                         0x0001a138   Lc    1   --   De 
     85  $d                         0x0001a15a   Lc    1   --   De 
     86  $t                         0x0001a164   Lc    1   --   De 
     87  $d                         0x0001a1b4   Lc    1   --   De 
     88  $t                         0x0001a1bc   Lc    1   --   De 
     89  $d                         0x0001a218   Lc    1   --   De 
     90  $t                         0x0001a220   Lc    1   --   De 
     91  $d                         0x0001a2bc   Lc    1   --   De 
     92  $t                         0x0001a2c4   Lc    1   --   De 
     93  $d                         0x0001a2f0   Lc    1   --   De 
     94  $t                         0x0001a30c   Lc    1   --   De 
     95  $d                         0x0001a342   Lc    1   --   De 
     96  $t                         0x0001a348   Lc    1   --   De 
     97  $d                         0x0001a3d4   Lc    1   --   De 
     98  $t                         0x0001a3dc   Lc    1   --   De 
     99  $d                         0x0001a600   Lc    1   --   De 
    100  $t                         0x0001a610   Lc    1   --   De 
    101  $d                         0x0001a67e   Lc    1   --   De 
    102  $t                         0x0001a688   Lc    1   --   De 
    103  $d                         0x0001a6ca   Lc    1   --   De 
    104  $t                         0x0001a6e4   Lc    1   --   De 
    105  $d                         0x0001a9e6   Lc    1   --   De 
    106  $t                         0x0001a9ee   Lc    1   --   De 
    107  $d                         0x0001aa64   Lc    1   --   De 
    108  $t                         0x0001aa6c   Lc    1   --   De 
    109  $d                         0x0001aa80   Lc    1   --   De 
    110  $t                         0x0001aa8c   Lc    1   --   De 
    111  $d                         0x0001aee8   Lc    1   --   De 
    112  $t                         0x0001af04   Lc    1   --   De 
    113  $d                         0x0001b064   Lc    1   --   De 
    114  $t                         0x0001b06c   Lc    1   --   De 
    115  $d                         0x0001b0e4   Lc    1   --   De 
    116  $t                         0x0001b0ec   Lc    1   --   De 
    117  $d                         0x0001b16e   Lc    1   --   De 
    118  $t                         0x0001b176   Lc    1   --   De 
    119  $d                         0x0001b25c   Lc    1   --   De 
    120  $t                         0x0001b264   Lc    1   --   De 
    121  $d                         0x0001b322   Lc    1   --   De 
    122  $t                         0x0001b334   Lc    1   --   De 
    123  $d                         0x0001b398   Lc    1   --   De 
    124  $t                         0x0001b3a0   Lc    1   --   De 
    125  $d                         0x0001b448   Lc    1   --   De 
    126  $t                         0x0001b454   Lc    1   --   De 
    127  $d                         0x0001b4a0   Lc    1   --   De 
    128  $t                         0x0001b4a8   Lc    1   --   De 
    129  $d                         0x0001b4d6   Lc    1   --   De 
    130  $t                         0x0001b4dc   Lc    1   --   De 
    131  $d                         0x0001b512   Lc    1   --   De 
    132  $t                         0x0001b518   Lc    1   --   De 
    133  $d                         0x0001b54c   Lc    1   --   De 
    134  $t                         0x0001b550   Lc    1   --   De 
    135  $d                         0x0001b7ea   Lc    1   --   De 
    136  $t                         0x0001b7f4   Lc    1   --   De 
    137  $d                         0x0001b836   Lc    1   --   De 
    138  $t                         0x0001b83c   Lc    1   --   De 
    139  $d                         0x0001b9ac   Lc    1   --   De 
    140  $t                         0x0001b9b4   Lc    1   --   De 
    141  $d                         0x0001bd6e   Lc    1   --   De 
    142  $t                         0x0001bd74   Lc    1   --   De 
    143  $d                         0x0001bed0   Lc    1   --   De 
    144  $t                         0x0001bef0   Lc    1   --   De 
    145  $d                         0x0001c07a   Lc    1   --   De 
    146  $t                         0x0001c098   Lc    1   --   De 
    147  $d                         0x0001c1ac   Lc    1   --   De 
    148  $t                         0x0001c1b4   Lc    1   --   De 
    149  $d                         0x0001c208   Lc    1   --   De 
    150  $t                         0x0001c210   Lc    1   --   De 
    151  $d                         0x0001c266   Lc    1   --   De 
    152  $t                         0x0001c270   Lc    1   --   De 
    153  $d                         0x0001c27e   Lc    1   --   De 
    154  $t                         0x0001c284   Lc    1   --   De 
    155  $d                         0x0001c34e   Lc    1   --   De 
    156  $t                         0x0001c364   Lc    1   --   De 
    157  $d                         0x0001c3be   Lc    1   --   De 
    158  $t                         0x0001c3c4   Lc    1   --   De 
    159  $d                         0x0001c3e8   Lc    1   --   De 
    160  $t                         0x0001c3ec   Lc    1   --   De 
    161  $d                         0x0001c440   Lc    1   --   De 
    162  $t                         0x0001c44c   Lc    1   --   De 
    163  $d                         0x0001c45e   Lc    1   --   De 
    164  $t                         0x0001c464   Lc    1   --   De 
    165  $d                         0x0001c49e   Lc    1   --   De 
    166  $t                         0x0001c4a4   Lc    1   --   De 
    167  $d                         0x0001c4e0   Lc    1   --   De 
    168  $t                         0x0001c4ec   Lc    1   --   De 
    169  $d                         0x0001c60a   Lc    1   --   De 
    170  $t                         0x0001c628   Lc    1   --   De 
    171  $d                         0x0001c64c   Lc    1   --   De 
    172  $t                         0x0001c650   Lc    1   --   De 
    173  $d                         0x0001c844   Lc    1   --   De 
    174  $t                         0x0001cb50   Lc    1   --   De 
    175  $d                         0x0001cb82   Lc    1   --   De 
    176  $t                         0x0001cb8c   Lc    1   --   De 
    177  $d                         0x0001cb92   Lc    1   --   De 
    178  $t                         0x0001cb98   Lc    1   --   De 
    179  $d                         0x0001cba2   Lc    1   --   De 
    180  $t                         0x0001cbb8   Lc    1   --   De 
    181  $d                         0x0001cf5c   Lc    1   --   De 
    182  $t                         0x0001cf6c   Lc    1   --   De 
    183  $d                         0x0001d0f4   Lc    1   --   De 
    184  $t                         0x0001d118   Lc    1   --   De 
    185  $d                         0x0001d3c2   Lc    1   --   De 
    186  $t                         0x0001d3c8   Lc    1   --   De 
    187  $d                         0x0001d4a4   Lc    1   --   De 
    188  $t                         0x0001d4a8   Lc    1   --   De 
    189  $d                         0x0001d732   Lc    1   --   De 
    190  $t                         0x0001db10   Lc    1   --   De 
    191  $d                         0x0001db1e   Lc    1   --   De 
    192  $t                         0x0001db32   Lc    1   --   De 
    193  $d                         0x0001e192   Lc    1   --   De 
    194  $t                         0x0001e19c   Lc    1   --   De 
    195  $d                         0x0001e1da   Lc    1   --   De 
    196  $t                         0x0001e1ea   Lc    1   --   De 
    197  $d                         0x0001e346   Lc    1   --   De 
    198  $t                         0x0001e350   Lc    1   --   De 
    199  $d                         0x0001e49c   Lc    1   --   De 
    200  $t                         0x0001e4a0   Lc    1   --   De 
    201  $d                         0x0001e51e   Lc    1   --   De 
    202  $t                         0x0001e522   Lc    1   --   De 
    203  $d.realdata                0x0001e560   Lc    1   --   De 
    204  $d.realdata                0x10000000   Lc    2   --   De 
    205  $d.realdata                0x10060000   Lc    4   --   De 
    206  ..\src\am_resources.c      0x00000000   Lc  Abs  File  De 
    207  ../src/am_resources.c      0x00000000   Lc  Abs  File  De 
    208  .constdata                 0x0001e560   Lc    1  Sect  De   0x6c
    209  __tagsym$$used             0x0001e560   Lc    1   --   De 
    210  __tagsym$$used             0x0001e574   Lc    1   --   De 
    211  __tagsym$$used             0x0001e588   Lc    1   --   De 
    212  __tagsym$$used             0x0001e59c   Lc    1   --   De 
    213  __tagsym$$used             0x0001e5b0   Lc    1   --   De 
    214  RESOURCE_TABLE             0x10060000   Lc    4  Sect  De   0x4
    215  __tagsym$$used             0x10060000   Lc    4   --   De 
    216  SHARED_RW                  0x10060004   Lc    4  Sect  De   0x3c
    217  __tagsym$$used             0x10060004   Lc    4   --   De 
    218  __tagsym$$used             0x10060018   Lc    4   --   De 
    219  __tagsym$$used             0x1006002c   Lc    4   --   De 
    220  ..\src\mspi_quad_example.c 0x00000000   Lc  Abs  File  De 
    221  .emb_text                  0x00018334   Lc    1  Sect  De   0x42
    222  $v0                        0x00018334   Lc    1   --   De 
    223  ../src/mspi_quad_example.c 0x00000000   Lc  Abs  File  De 
    224  i.am_mspi2_isr             0x0001c628   Lc    1  Sect  De 
    225  i.main                     0x0001d4a8   Lc    1  Sect  De 
    226  .bss                       0x100002dc   Lc    3  Sect  De   0x5400
    227  .constdata                 0x0001e5cc   Lc    1  Sect  De   0x17
    228  mspi_interrupts            0x0001e5e0   Lc    1  Data  De   0x3
    229  .data                      0x10000000   Lc    2  Sect  De   0x4c
    230  ..\..\..\..\..\..\utils\am_util_delay.c
                                    0x00000000   Lc  Abs  File  De 
    231  ../../../../../../utils/am_util_delay.c
                                    0x00000000   Lc  Abs  File  De 
    232  i.am_util_delay_ms         0x0001c650   Lc    1  Sect  De 
    233  i.am_util_delay_us         0x0001c662   Lc    1  Sect  De 
    234  ..\..\..\..\..\..\utils\am_util_faultisr.c
                                    0x00000000   Lc  Abs  File  De 
    235  .emb_text                  0x00018378   Lc    1  Sect  De   0x22
    236  $v0                        0x00018378   Lc    1   --   De 
    237  ../../../../../../utils/am_util_faultisr.c
                                    0x00000000   Lc  Abs  File  De 
    238  i.am_util_faultisr_collect_data
                                    0x0001c670   Lc    1  Sect  De 
    239  ../../../../../../utils/am_util_stdio.c
                                    0x00000000   Lc  Abs  File  De 
    240  i.am_util_stdio_printf     0x0001cb50   Lc    1  Sect  De 
    241  i.am_util_stdio_printf_init
                                    0x0001cb8c   Lc    1  Sect  De 
    242  i.am_util_stdio_terminal_clear
                                    0x0001cb98   Lc    1  Sect  De 
    243  i.am_util_stdio_vsprintf   0x0001cbb8   Lc    1  Sect  De 
    244  i.decstr_to_int            0x0001d140   Lc    1  Sect  De 
    245  decstr_to_int              0x0001d141   Lc    1  Code  De   0x42
    246  i.divu64_10                0x0001d182   Lc    1  Sect  De 
    247  divu64_10                  0x0001d183   Lc    1  Code  De   0xcc
    248  i.ftoa                     0x0001d250   Lc    1  Sect  De 
    249  ftoa                       0x0001d251   Lc    1  Code  De   0x172
    250  i.ndigits_in_hex           0x0001dfa2   Lc    1  Sect  De 
    251  ndigits_in_hex             0x0001dfa3   Lc    1  Code  De   0x34
    252  i.ndigits_in_i64           0x0001dfd6   Lc    1  Sect  De 
    253  ndigits_in_i64             0x0001dfd7   Lc    1  Code  De   0x24
    254  i.ndigits_in_u64           0x0001dffa   Lc    1  Sect  De 
    255  ndigits_in_u64             0x0001dffb   Lc    1  Code  De   0x3a
    256  i.padbuffer                0x0001e034   Lc    1  Sect  De 
    257  padbuffer                  0x0001e035   Lc    1  Code  De   0x22
    258  i.simple_strlen            0x0001e19c   Lc    1  Sect  De 
    259  simple_strlen              0x0001e19d   Lc    1  Code  De   0x18
    260  i.uint64_to_hexstr         0x0001e350   Lc    1  Sect  De 
    261  uint64_to_hexstr           0x0001e351   Lc    1  Code  De   0x8a
    262  i.uint64_to_str            0x0001e3da   Lc    1  Sect  De 
    263  uint64_to_str              0x0001e3db   Lc    1  Code  De   0x70
    264  .bss                       0x100056dc   Lc    3  Sect  De   0x100
    265  g_prfbuf                   0x100056dc   Lc    3  Data  De   0x100
    266  .data                      0x1000004c   Lc    2  Sect  De   0x5
    267  g_bTxtXlate                0x10000050   Lc    2  Data  De   0x1
    268  ..\..\..\..\..\..\devices\am_devices_mspi_atxp032.c
                                    0x00000000   Lc  Abs  File  De 
    269  ../../../../../../devices/am_devices_mspi_atxp032.c
                                    0x00000000   Lc  Abs  File  De 
    270  i.am_device_deinit_flash   0x00018d5c   Lc    1  Sect  De 
    271  am_device_deinit_flash     0x00018d5d   Lc    1  Code  De   0x8e
    272  i.am_device_init_flash     0x00018dea   Lc    1  Sect  De 
    273  am_device_init_flash       0x00018deb   Lc    1  Code  De   0xb6
    274  i.am_devices_mspi_atxp032_command_read
                                    0x00018ea0   Lc    1  Sect  De 
    275  am_devices_mspi_atxp032_command_read
                                    0x00018ea1   Lc    1  Code  De   0x98
    276  i.am_devices_mspi_atxp032_command_write
                                    0x00018f3c   Lc    1  Sect  De 
    277  am_devices_mspi_atxp032_command_write
                                    0x00018f3d   Lc    1  Code  De   0x96
    278  i.am_devices_mspi_atxp032_deinit
                                    0x00018fd8   Lc    1  Sect  De 
    279  i.am_devices_mspi_atxp032_disable_scrambling
                                    0x0001907c   Lc    1  Sect  De 
    280  i.am_devices_mspi_atxp032_disable_xip
                                    0x000190cc   Lc    1  Sect  De 
    281  i.am_devices_mspi_atxp032_enable_scrambling
                                    0x0001911c   Lc    1  Sect  De 
    282  i.am_devices_mspi_atxp032_enable_xip
                                    0x00019144   Lc    1  Sect  De 
    283  i.am_devices_mspi_atxp032_id
                                    0x00019194   Lc    1  Sect  De 
    284  i.am_devices_mspi_atxp032_init
                                    0x000191dc   Lc    1  Sect  De 
    285  i.am_devices_mspi_atxp032_mass_erase
                                    0x00019580   Lc    1  Sect  De 
    286  i.am_devices_mspi_atxp032_read
                                    0x00019630   Lc    1  Sect  De 
    287  i.am_devices_mspi_atxp032_reset
                                    0x0001970c   Lc    1  Sect  De 
    288  i.am_devices_mspi_atxp032_sector_erase
                                    0x00019774   Lc    1  Sect  De 
    289  i.am_devices_mspi_atxp032_write
                                    0x000198c4   Lc    1  Sect  De 
    290  i.pfnMSPI_ATXP032_Callback 0x0001e056   Lc    1  Sect  De 
    291  pfnMSPI_ATXP032_Callback   0x0001e057   Lc    1  Code  De   0x4
    292  .bss                       0x100057dc   Lc    3  Sect  De   0x2c
    293  .data                      0x10000054   Lc    2  Sect  De   0xe4
    294  ../keil/startup_keil.s     0x00000000   Lc  Abs  File  De 
    295  STACK                      0x100074b8   Lc    3  Sect  De   0x1000
    296  StackMem                   0x100074b8   Lc    3  Data  De 
    297  HEAP                       0x100074b8   Lc    3  Sect  De 
    298  HeapMem                    0x100074b8   Lc    3  Data  De 
    299  RESET                      0x00018000   Lc    1  Sect  De   0x238
    300  $v0                        0x00018200   Lc    1   --   De 
    301  am_cryptosec_isr           0x00018231   Lc    1  Code  De 
    302  am_default_isr             0x00018231   Lc    1  Code  De   0x2
    303  .text                      0x000183b4   Lc    1  Sect  De   0x18
    304  $v0                        0x000183b4   Lc    1   --   De 
    305  ..\..\..\..\..\mcu\apollo4b\hal\am_hal_global.c
                                    0x00000000   Lc  Abs  File  De 
    306  ../../../../../mcu/apollo4b/hal/am_hal_global.c
                                    0x00000000   Lc  Abs  File  De 
    307  .data                      0x10000138   Lc    2  Sect  De   0x4
    308  ..\..\..\..\..\mcu\apollo4b\hal\mcu\am_hal_fault.c
                                    0x00000000   Lc  Abs  File  De 
    309  ../../../../../mcu/apollo4b/hal/mcu/am_hal_fault.c
                                    0x00000000   Lc  Abs  File  De 
    310  i.am_hal_fault_capture_enable
                                    0x0001a220   Lc    1  Sect  De 
    311  i.am_hal_fault_status_get  0x0001a232   Lc    1  Sect  De 
    312  ..\..\..\..\..\mcu\apollo4b\hal\mcu\am_hal_interrupt.c
                                    0x00000000   Lc  Abs  File  De 
    313  .emb_text                  0x0001839c   Lc    1  Sect  De   0x16
    314  $v0                        0x0001839c   Lc    1   --   De 
    315  ../../../../../mcu/apollo4b/hal/mcu/am_hal_interrupt.c
                                    0x00000000   Lc  Abs  File  De 
    316  ..\..\..\..\..\mcu\apollo4b\hal\mcu\am_hal_mspi.c
                                    0x00000000   Lc  Abs  File  De 
    317  ../../../../../mcu/apollo4b/hal/mcu/am_hal_mspi.c
                                    0x00000000   Lc  Abs  File  De 
    318  i.am_hal_mspi_blocking_transfer
                                    0x0001a3dc   Lc    1  Sect  De 
    319  i.am_hal_mspi_configure    0x0001a610   Lc    1  Sect  De 
    320  i.am_hal_mspi_control      0x0001a688   Lc    1  Sect  De 
    321  i.am_hal_mspi_deinitialize 0x0001b06c   Lc    1  Sect  De 
    322  i.am_hal_mspi_device_configure
                                    0x0001b0ec   Lc    1  Sect  De 
    323  i.am_hal_mspi_disable      0x0001b334   Lc    1  Sect  De 
    324  i.am_hal_mspi_enable       0x0001b3a0   Lc    1  Sect  De 
    325  i.am_hal_mspi_initialize   0x0001b454   Lc    1  Sect  De 
    326  i.am_hal_mspi_interrupt_clear
                                    0x0001b4a8   Lc    1  Sect  De 
    327  i.am_hal_mspi_interrupt_disable
                                    0x0001b4dc   Lc    1  Sect  De 
    328  i.am_hal_mspi_interrupt_enable
                                    0x0001b518   Lc    1  Sect  De 
    329  i.am_hal_mspi_interrupt_service
                                    0x0001b550   Lc    1  Sect  De 
    330  i.am_hal_mspi_interrupt_status_get
                                    0x0001b7f4   Lc    1  Sect  De 
    331  i.am_hal_mspi_nonblocking_transfer
                                    0x0001b83c   Lc    1  Sect  De 
    332  i.am_hal_mspi_power_control
                                    0x0001b9b4   Lc    1  Sect  De 
    333  i.build_dma_cmdlist        0x0001cf6c   Lc    1  Sect  De 
    334  i.mspi_device_configure    0x0001db10   Lc    1  Sect  De 
    335  mspi_device_configure      0x0001db11   Lc    1  Code  De   0x46a
    336  i.mspi_dummy_callback      0x0001df7a   Lc    1  Sect  De 
    337  mspi_dummy_callback        0x0001df7b   Lc    1  Code  De   0x2
    338  i.mspi_seq_loopback        0x0001df7c   Lc    1  Sect  De 
    339  mspi_seq_loopback          0x0001df7d   Lc    1  Code  De   0x26
    340  i.sched_hiprio             0x0001e05c   Lc    1  Sect  De 
    341  sched_hiprio               0x0001e05d   Lc    1  Code  De   0x136
    342  .bss                       0x10005808   Lc    3  Sect  De   0x1a28
    343  ..\..\..\..\..\mcu\apollo4b\hal\mcu\am_hal_sysctrl.c
                                    0x00000000   Lc  Abs  File  De 
    344  ../../../../../mcu/apollo4b/hal/mcu/am_hal_sysctrl.c
                                    0x00000000   Lc  Abs  File  De 
    345  i.am_hal_sysctrl_sleep     0x0001c284   Lc    1  Sect  De 
    346  ..\..\..\..\..\mcu\apollo4b\hal\mcu\am_hal_utils.c
                                    0x00000000   Lc  Abs  File  De 
    347  ../../../../../mcu/apollo4b/hal/mcu/am_hal_utils.c
                                    0x00000000   Lc  Abs  File  De 
    348  i.am_hal_delay_us          0x0001a138   Lc    1  Sect  De 
    349  i.am_hal_delay_us_status_change
                                    0x0001a164   Lc    1  Sect  De 
    350  i.am_hal_delay_us_status_check
                                    0x0001a1bc   Lc    1  Sect  De 
    351  i.am_hal_load_ui32         0x0001a33c   Lc    1  Sect  De 
    352  ..\am_bsp.c                0x00000000   Lc  Abs  File  De 
    353  ../am_bsp.c                0x00000000   Lc  Abs  File  De 
    354  i.am_bsp_itm_printf_enable 0x000185d0   Lc    1  Sect  De 
    355  i.am_bsp_low_power_init    0x00018648   Lc    1  Sect  De 
    356  i.am_bsp_mspi_pins_enable  0x00018660   Lc    1  Sect  De 
    357  .data                      0x1000013c   Lc    2  Sect  De   0x8
    358  g_ePrintInterface          0x1000013c   Lc    2  Data  De   0x1
    359  g_sCOMUART                 0x10000140   Lc    2  Data  De   0x4
    360  ..\..\..\..\..\mcu\apollo4b\hal\mcu\am_hal_bootrom_helper.c
                                    0x00000000   Lc  Abs  File  De 
    361  ../../../../../mcu/apollo4b/hal/mcu/am_hal_bootrom_helper.c
                                    0x00000000   Lc  Abs  File  De 
    362  .constdata                 0x0001e5e4   Lc    1  Sect  De   0x28
    363  ..\..\..\..\..\mcu\apollo4b\hal\mcu\am_hal_cmdq.c
                                    0x00000000   Lc  Abs  File  De 
    364  ../../../../../mcu/apollo4b/hal/mcu/am_hal_cmdq.c
                                    0x00000000   Lc  Abs  File  De 
    365  i.am_hal_cmdq_alloc_block  0x00019a54   Lc    1  Sect  De 
    366  i.am_hal_cmdq_disable      0x00019b20   Lc    1  Sect  De 
    367  i.am_hal_cmdq_enable       0x00019b60   Lc    1  Sect  De 
    368  i.am_hal_cmdq_error_resume 0x00019ba0   Lc    1  Sect  De 
    369  i.am_hal_cmdq_get_status   0x00019c14   Lc    1  Sect  De 
    370  i.am_hal_cmdq_init         0x00019cb8   Lc    1  Sect  De 
    371  i.am_hal_cmdq_post_block   0x00019da8   Lc    1  Sect  De 
    372  i.am_hal_cmdq_post_loop_block
                                    0x00019df4   Lc    1  Sect  De 
    373  i.am_hal_cmdq_release_block
                                    0x00019e50   Lc    1  Sect  De 
    374  i.am_hal_cmdq_reset        0x00019e88   Lc    1  Sect  De 
    375  i.am_hal_cmdq_term         0x00019eec   Lc    1  Sect  De 
    376  .bss                       0x10007230   Lc    3  Sect  De   0x1e4
    377  gAmHalCmdq                 0x10007230   Lc    3  Data  De   0x1e4
    378  .constdata                 0x0001e60c   Lc    1  Sect  De   0x1b8
    379  gAmHalCmdQReg              0x0001e60c   Lc    1  Data  De   0x1b8
    380  ..\..\..\..\..\mcu\apollo4b\hal\mcu\am_hal_itm.c
                                    0x00000000   Lc  Abs  File  De 
    381  ../../../../../mcu/apollo4b/hal/mcu/am_hal_itm.c
                                    0x00000000   Lc  Abs  File  De 
    382  i.am_hal_itm_enable        0x0001a2c4   Lc    1  Sect  De 
    383  i.am_hal_itm_print         0x0001a30c   Lc    1  Sect  De 
    384  ..\..\..\..\..\mcu\apollo4b\hal\mcu\am_hal_rtc.c
                                    0x00000000   Lc  Abs  File  De 
    385  ../../../../../mcu/apollo4b/hal/mcu/am_hal_rtc.c
                                    0x00000000   Lc  Abs  File  De 
    386  i.am_hal_rtc_osc_disable   0x0001c270   Lc    1  Sect  De 
    387  ..\..\..\..\..\mcu\apollo4b\hal\mcu\am_hal_tpiu.c
                                    0x00000000   Lc  Abs  File  De 
    388  ../../../../../mcu/apollo4b/hal/mcu/am_hal_tpiu.c
                                    0x00000000   Lc  Abs  File  De 
    389  i.am_hal_tpiu_enable       0x0001c4a4   Lc    1  Sect  De 
    390  ..\..\..\..\..\mcu\apollo4b\hal\mcu\am_hal_uart.c
                                    0x00000000   Lc  Abs  File  De 
    391  ../../../../../mcu/apollo4b/hal/mcu/am_hal_uart.c
                                    0x00000000   Lc  Abs  File  De 
    392  ..\..\..\..\..\mcu\apollo4b\hal\am_hal_dcu.c
                                    0x00000000   Lc  Abs  File  De 
    393  ../../../../../mcu/apollo4b/hal/am_hal_dcu.c
                                    0x00000000   Lc  Abs  File  De 
    394  i.am_hal_dcu_get           0x00019fc4   Lc    1  Sect  De 
    395  i.am_hal_dcu_update        0x0001a054   Lc    1  Sect  De 
    396  i.copy_words               0x0001d118   Lc    1  Sect  De 
    397  copy_words                 0x0001d119   Lc    1  Code  De   0x28
    398  .data                      0x10000148   Lc    2  Sect  De   0x20
    399  ..\..\..\..\..\mcu\apollo4b\hal\am_hal_gpio.c
                                    0x00000000   Lc  Abs  File  De 
    400  ../../../../../mcu/apollo4b/hal/am_hal_gpio.c
                                    0x00000000   Lc  Abs  File  De 
    401  i.am_hal_gpio_pinconfig    0x0001a270   Lc    1  Sect  De 
    402  .constdata                 0x0001e7c4   Lc    1  Sect  De   0x10
    403  g_ui32DSpintbl             0x0001e7c4   Lc    1  Data  De   0x10
    404  ..\..\..\..\..\mcu\apollo4b\hal\am_hal_pwrctrl.c
                                    0x00000000   Lc  Abs  File  De 
    405  ../../../../../mcu/apollo4b/hal/am_hal_pwrctrl.c
                                    0x00000000   Lc  Abs  File  De 
    406  i.am_hal_pwrctrl_control   0x0001bd74   Lc    1  Sect  De 
    407  i.am_hal_pwrctrl_low_power_init
                                    0x0001bef0   Lc    1  Sect  De 
    408  i.am_hal_pwrctrl_mcu_memory_config
                                    0x0001c098   Lc    1  Sect  De 
    409  i.am_hal_pwrctrl_periph_disable
                                    0x0001c1b4   Lc    1  Sect  De 
    410  i.am_hal_pwrctrl_periph_enable
                                    0x0001c210   Lc    1  Sect  De 
    411  i.am_hal_util_write_and_wait
                                    0x0001c4ec   Lc    1  Sect  De 
    412  .constdata                 0x0001e7d4   Lc    1  Sect  De   0x23c
    413  .data                      0x10000168   Lc    2  Sect  De   0x1c
    414  g_WaitTimerDuration        0x1000017c   Lc    2  Data  De   0x4
    415  .data                      0x10000190   Lc    2  Sect  De   0x20
    416  storeAndWFIRAM             0x10000190   Lc    2  Data  De   0x20
    417  ..\am_bsp_pins.c           0x00000000   Lc  Abs  File  De 
    418  ../am_bsp_pins.c           0x00000000   Lc  Abs  File  De 
    419  .data                      0x100001b0   Lc    2  Sect  De   0x4
    420  .data                      0x100001b4   Lc    2  Sect  De   0x4
    421  .data                      0x100001b8   Lc    2  Sect  De   0x4
    422  .data                      0x100001bc   Lc    2  Sect  De   0x4
    423  .data                      0x100001c0   Lc    2  Sect  De   0x4
    424  .data                      0x100001c4   Lc    2  Sect  De   0x4
    425  .data                      0x100001c8   Lc    2  Sect  De   0x4
    426  .data                      0x100001cc   Lc    2  Sect  De   0x4
    427  .data                      0x100001d0   Lc    2  Sect  De   0x4
    428  .data                      0x100001d4   Lc    2  Sect  De   0x4
    429  .data                      0x100001d8   Lc    2  Sect  De   0x4
    430  .data                      0x100001dc   Lc    2  Sect  De   0x4
    431  .data                      0x100001e0   Lc    2  Sect  De   0x4
    432  .data                      0x100001e4   Lc    2  Sect  De   0x4
    433  .data                      0x100001e8   Lc    2  Sect  De   0x4
    434  .data                      0x100001ec   Lc    2  Sect  De   0x4
    435  .data                      0x100001f0   Lc    2  Sect  De   0x4
    436  .data                      0x100001f4   Lc    2  Sect  De   0x4
    437  .data                      0x100001f8   Lc    2  Sect  De   0x4
    438  .data                      0x100001fc   Lc    2  Sect  De   0x4
    439  .data                      0x10000200   Lc    2  Sect  De   0x4
    440  .data                      0x10000204   Lc    2  Sect  De   0x4
    441  .data                      0x10000208   Lc    2  Sect  De   0x4
    442  .data                      0x1000020c   Lc    2  Sect  De   0x4
    443  .data                      0x10000210   Lc    2  Sect  De   0x4
    444  .data                      0x10000214   Lc    2  Sect  De   0x4
    445  .data                      0x10000218   Lc    2  Sect  De   0x4
    446  .data                      0x1000021c   Lc    2  Sect  De   0x4
    447  .data                      0x10000220   Lc    2  Sect  De   0x4
    448  ..\..\..\..\..\mcu\apollo4b\hal\mcu\am_hal_cachectrl.c
                                    0x00000000   Lc  Abs  File  De 
    449  ../../../../../mcu/apollo4b/hal/mcu/am_hal_cachectrl.c
                                    0x00000000   Lc  Abs  File  De 
    450  i.am_hal_daxi_config       0x00019f74   Lc    1  Sect  De 
    451  i.am_hal_daxi_control      0x00019f9e   Lc    1  Sect  De 
    452  .constdata                 0x0001ea10   Lc    1  Sect  De   0x3
    453  ..\..\..\..\..\mcu\apollo4b\hal\mcu\am_hal_mram.c
                                    0x00000000   Lc  Abs  File  De 
    454  ../../../../../mcu/apollo4b/hal/mcu/am_hal_mram.c
                                    0x00000000   Lc  Abs  File  De 
    455  i.am_hal_mram_info_read    0x0001a348   Lc    1  Sect  De 
    456  .data                      0x10000224   Lc    2  Sect  De   0xb4
    457  g_program_mram_tmc_tcycrd  0x10000224   Lc    2  Data  De   0xb4
    458  .data                      0x100002d8   Lc    2  Sect  De   0x4
    459  ..\..\..\..\..\mcu\apollo4b\hal\am_hal_pin.c
                                    0x00000000   Lc  Abs  File  De 
    460  ../../../../../mcu/apollo4b/hal/am_hal_pin.c
                                    0x00000000   Lc  Abs  File  De 
    461  ..\..\..\..\..\mcu\apollo4b\hal\am_hal_queue.c
                                    0x00000000   Lc  Abs  File  De 
    462  ../../../../../mcu/apollo4b/hal/am_hal_queue.c
                                    0x00000000   Lc  Abs  File  De 
    463  ..\..\..\..\..\mcu\apollo4b\hal\am_hal_timer.c
                                    0x00000000   Lc  Abs  File  De 
    464  ../../../../../mcu/apollo4b/hal/am_hal_timer.c
                                    0x00000000   Lc  Abs  File  De 
    465  i.am_hal_timer_clear       0x0001c364   Lc    1  Sect  De 
    466  i.am_hal_timer_default_config_set
                                    0x0001c3c4   Lc    1  Sect  De 
    467  i.am_hal_timer_interrupt_clear
                                    0x0001c3e0   Lc    1  Sect  De 
    468  i.am_hal_timer_interrupt_enable
                                    0x0001c3ec   Lc    1  Sect  De 
    469  i.am_hal_timer_interrupt_status_get
                                    0x0001c44c   Lc    1  Sect  De 
    470  i.am_hal_timer_stop        0x0001c464   Lc    1  Sect  De 
    471  i.internal_timer_config    0x0001d3c8   Lc    1  Sect  De 
    472  i.timer_config_b1          0x0001e1b4   Lc    1  Sect  De 
    473  .bss                       0x10007414   Lc    3  Sect  De   0x40
    474  TimerFlags                 0x10007414   Lc    3  Data  De   0x40
    475  dc.s                       0x00000000   Lc  Abs  File  De 
    476  ../clib/longlong.s         0x00000000   Lc  Abs  File  De 
    477  .text                      0x000183cc   Lc    1  Sect  De   0x26
    478  ../clib/longlong.s         0x00000000   Lc  Abs  File  De 
    479  .text                      0x000183f2   Lc    1  Sect  De   0x26
    480  ../clib/memcpset.s         0x00000000   Lc  Abs  File  De 
    481  .text                      0x00018418   Lc    1  Sect  De   0x8a
    482  ../clib/memcpset.s         0x00000000   Lc  Abs  File  De 
    483  .text                      0x000184a2   Lc    1  Sect  De   0x4e
    484  ../clib/heapaux.c          0x00000000   Lc  Abs  File  De 
    485  .text                      0x000184f0   Lc    1  Sect  De 
    486  ../clib/angel/startup.s    0x00000000   Lc  Abs  File  De 
    487  !!!main                    0x00018238   Lc    1  Sect  De   0x8
    488  ../clib/angel/handlers.s   0x00000000   Lc  Abs  File  De 
    489  !!handler_copy             0x000182d0   Lc    1  Sect  De   0x1a
    490  ../fplib/d2f.s             0x00000000   Lc  Abs  File  De 
    491  x$fpl$d2f                  0x0001e44c   Lc    1  Sect  De   0x62
    492  $v0                        0x0001e44c   Lc    1   --   De 
    493  ../clib/angel/kernel.s     0x00000000   Lc  Abs  File  De 
    494  .ARM.Collect$$rtentry$$00000000
                                    0x00018314   Lc    1  Sect  De 
    495  ../clib/memcpset.s         0x00000000   Lc  Abs  File  De 
    496  .text                      0x000184f6   Lc    1  Sect  De   0x64
    497  ../fplib/dnaninf.s         0x00000000   Lc  Abs  File  De 
    498  x$fpl$dnaninf              0x0001e4ae   Lc    1  Sect  De   0x9c
    499  $v0                        0x0001e4ae   Lc    1   --   De 
    500  ../fplib/fretinf.s         0x00000000   Lc  Abs  File  De 
    501  x$fpl$fretinf              0x0001e554   Lc    1  Sect  De   0xa
    502  $v0                        0x0001e554   Lc    1   --   De 
    503  ../fplib/usenofp.s         0x00000000   Lc  Abs  File  De 
    504  x$fpl$usenofp              0x0001e55e   Lc    1  Sect  De 
    505  ../clib/angel/kernel.s     0x00000000   Lc  Abs  File  De 
    506  .ARM.Collect$$rtentry$$00000002
                                    0x00018314   Lc    1  Sect  De 
    507  .ARM.Collect$$rtentry$$00000009
                                    0x0001831a   Lc    1  Sect  De 
    508  .ARM.Collect$$rtentry$$0000000A
                                    0x0001831a   Lc    1  Sect  De   0x4
    509  .ARM.Collect$$rtentry$$0000000C
                                    0x0001831e   Lc    1  Sect  De 
    510  .ARM.Collect$$rtentry$$0000000D
                                    0x0001831e   Lc    1  Sect  De   0x8
    511  ../clib/angel/kernel.s     0x00000000   Lc  Abs  File  De 
    512  .ARM.Collect$$rtentry$$00000004
                                    0x00018314   Lc    1  Sect  De   0x6
    513  ../clib/angel/sys.s        0x00000000   Lc  Abs  File  De 
    514  .text                      0x0001855a   Lc    1  Sect  De   0x4a
    515  ../clib/stdlib.c           0x00000000   Lc  Abs  File  De 
    516  .text                      0x000185a4   Lc    1  Sect  De 
    517  ../clib/angel/boardlib.s   0x00000000   Lc  Abs  File  De 
    518  ../clib/angel/boardlib.s   0x00000000   Lc  Abs  File  De 
    519  ../clib/angel/boardlib.s   0x00000000   Lc  Abs  File  De 
    520  ../clib/libinit.s          0x00000000   Lc  Abs  File  De 
    521  .ARM.Collect$$libinit$$00000000
                                    0x00018308   Lc    1  Sect  De   0x2
    522  ../clib/angel/sys.s        0x00000000   Lc  Abs  File  De 
    523  .text                      0x000185b8   Lc    1  Sect  De   0x8
    524  .bss                       0x10007454   Lc    3  Sect  De   0x60
    525  ../clib/angel/kernel.s     0x00000000   Lc  Abs  File  De 
    526  .ARM.Collect$$rtexit$$00000000
                                    0x00018326   Lc    1  Sect  De   0x2
    527  ../clib/libinit.s          0x00000000   Lc  Abs  File  De 
    528  .ARM.Collect$$libinit$$00000001
                                    0x0001830a   Lc    1  Sect  De   0x4
    529  .ARM.Collect$$libinit$$00000004
                                    0x0001830e   Lc    1  Sect  De 
    530  .ARM.Collect$$libinit$$0000000A
                                    0x0001830e   Lc    1  Sect  De 
    531  .ARM.Collect$$libinit$$0000000C
                                    0x0001830e   Lc    1  Sect  De 
    532  .ARM.Collect$$libinit$$0000000E
                                    0x0001830e   Lc    1  Sect  De 
    533  .ARM.Collect$$libinit$$00000011
                                    0x0001830e   Lc    1  Sect  De 
    534  .ARM.Collect$$libinit$$00000013
                                    0x0001830e   Lc    1  Sect  De 
    535  .ARM.Collect$$libinit$$00000015
                                    0x0001830e   Lc    1  Sect  De 
    536  .ARM.Collect$$libinit$$00000017
                                    0x0001830e   Lc    1  Sect  De 
    537  .ARM.Collect$$libinit$$00000019
                                    0x0001830e   Lc    1  Sect  De 
    538  .ARM.Collect$$libinit$$0000001B
                                    0x0001830e   Lc    1  Sect  De 
    539  .ARM.Collect$$libinit$$0000001D
                                    0x0001830e   Lc    1  Sect  De 
    540  .ARM.Collect$$libinit$$0000001F
                                    0x0001830e   Lc    1  Sect  De 
    541  .ARM.Collect$$libinit$$00000021
                                    0x0001830e   Lc    1  Sect  De 
    542  .ARM.Collect$$libinit$$00000023
                                    0x0001830e   Lc    1  Sect  De 
    543  .ARM.Collect$$libinit$$00000025
                                    0x0001830e   Lc    1  Sect  De 
    544  .ARM.Collect$$libinit$$0000002C
                                    0x0001830e   Lc    1  Sect  De 
    545  .ARM.Collect$$libinit$$0000002E
                                    0x0001830e   Lc    1  Sect  De 
    546  .ARM.Collect$$libinit$$00000030
                                    0x0001830e   Lc    1  Sect  De 
    547  .ARM.Collect$$libinit$$00000032
                                    0x0001830e   Lc    1  Sect  De 
    548  .ARM.Collect$$libinit$$00000033
                                    0x0001830e   Lc    1  Sect  De   0x2
    549  ../clib/angel/kernel.s     0x00000000   Lc  Abs  File  De 
    550  .ARM.Collect$$rtexit$$00000002
                                    0x00018328   Lc    1  Sect  De 
    551  .ARM.Collect$$rtexit$$00000003
                                    0x00018328   Lc    1  Sect  De   0x4
    552  .ARM.Collect$$rtexit$$00000004
                                    0x0001832c   Lc    1  Sect  De   0x6
    553  ../clib/armsys.c           0x00000000   Lc  Abs  File  De 
    554  ../clib/armsys.c           0x00000000   Lc  Abs  File  De 
    555  ../fplib/fpinit.s          0x00000000   Lc  Abs  File  De 
    556  x$fpl$fpinit               0x0001e54a   Lc    1  Sect  De   0xa
    557  $v0                        0x0001e54a   Lc    1   --   De 
    558  ../clib/angel/sysapp.c     0x00000000   Lc  Abs  File  De 
    559  .text                      0x000185c0   Lc    1  Sect  De 
    560  ../clib/angel/boardlib.s   0x00000000   Lc  Abs  File  De 
    561  ../clib/armsys.c           0x00000000   Lc  Abs  File  De 
    562  ../clib/armsys.c           0x00000000   Lc  Abs  File  De 
    563  ../clib/libinit.s          0x00000000   Lc  Abs  File  De 
    564  .ARM.Collect$$libshutdown$$00000000
                                    0x00018310   Lc    1  Sect  De   0x2
    565  ../clib/angel/sysapp.c     0x00000000   Lc  Abs  File  De 
    566  ../clib/angel/sys.s        0x00000000   Lc  Abs  File  De 
    567  .text                      0x000185cc   Lc    1  Sect  De   0x2
    568  ../clib/angel/sys.s        0x00000000   Lc  Abs  File  De 
    569  .text                      0x000185ce   Lc    1  Sect  De 
    570  ../clib/heapalloc.c        0x00000000   Lc  Abs  File  De 
    571  ../clib/signal.c           0x00000000   Lc  Abs  File  De 
    572  ../clib/signal.c           0x00000000   Lc  Abs  File  De 
    573  ../clib/libinit.s          0x00000000   Lc  Abs  File  De 
    574  .ARM.Collect$$libshutdown$$00000002
                                    0x00018312   Lc    1  Sect  De 
    575  .ARM.Collect$$libshutdown$$00000004
                                    0x00018312   Lc    1  Sect  De 
    576  .ARM.Collect$$libshutdown$$00000007
                                    0x00018312   Lc    1  Sect  De 
    577  .ARM.Collect$$libshutdown$$0000000A
                                    0x00018312   Lc    1  Sect  De 
    578  .ARM.Collect$$libshutdown$$0000000C
                                    0x00018312   Lc    1  Sect  De 
    579  .ARM.Collect$$libshutdown$$0000000F
                                    0x00018312   Lc    1  Sect  De 
    580  .ARM.Collect$$libshutdown$$00000010
                                    0x00018312   Lc    1  Sect  De   0x2
    581  ../clib/angel/rt.s         0x00000000   Lc  Abs  File  De 
    582  ../clib/signal.c           0x00000000   Lc  Abs  File  De 
    583  ../clib/signal.c           0x00000000   Lc  Abs  File  De 
    584  ../clib/signal.c           0x00000000   Lc  Abs  File  De 
    585  ../clib/signal.c           0x00000000   Lc  Abs  File  De 
    586  ../clib/angel/sysapp.c     0x00000000   Lc  Abs  File  De 
    587  ../clib/signal.s           0x00000000   Lc  Abs  File  De 
    588  ../clib/signal.c           0x00000000   Lc  Abs  File  De 
    589  ../clib/signal.c           0x00000000   Lc  Abs  File  De 
    590  ../clib/signal.c           0x00000000   Lc  Abs  File  De 
    591  ../clib/signal.c           0x00000000   Lc  Abs  File  De 
    592  ../clib/signal.c           0x00000000   Lc  Abs  File  De 
    593  ../clib/signal.c           0x00000000   Lc  Abs  File  De 
    594  ../clib/signal.c           0x00000000   Lc  Abs  File  De 
    595  ../clib/signal.c           0x00000000   Lc  Abs  File  De 
    596  ../clib/angel/dczerorl2.s  0x00000000   Lc  Abs  File  De 
    597  !!dczerorl2                0x00018274   Lc    1  Sect  De   0x5a
    598  ../clib/angel/scatter.s    0x00000000   Lc  Abs  File  De 
    599  !!!scatter                 0x00018240   Lc    1  Sect  De   0x34
    600  ../clib/angel/handlers.s   0x00000000   Lc  Abs  File  De 
    601  !!handler_zi               0x000182ec   Lc    1  Sect  De   0x1c
    602  BuildAttributes$$THM_ISAv4$E$P$D$K$B$S$7EM$VFPi3$EXTD16$VFPS$VFMA$PE$A:L22UL41UL21$X:L11$S22US41US21$IEEE1$IW$USESV6$~STKCKD$USESV7$~SHL$OTIME$ROPI$EBA8$UX$STANDARDLIB$REQ8$PRES8$EABIv2
                                    0x00000000   Gb  Abs   --   Hi 
    603  __ARM_use_no_argv          0x00000000   Gb  Abs   --   Hi 
    604  __Vectors                  0x00018000   Gb    1  Data  Hi 
    605  __Patchable                0x00018190   Gb    1  Data  Hi 
    606  Reset_Handler              0x00018201   Wk    1  Code  Hi   0x1c
    607  NMI_Handler                0x0001821f   Wk    1  Code  Hi   0x2
    608  MemManage_Handler          0x00018221   Wk    1  Code  Hi   0x2
    609  BusFault_Handler           0x00018223   Wk    1  Code  Hi   0x2
    610  UsageFault_Handler         0x00018225   Wk    1  Code  Hi   0x2
    611  SecureFault_Handler        0x00018227   Wk    1  Code  Hi   0x2
    612  SVC_Handler                0x00018229   Wk    1  Code  Hi   0x2
    613  DebugMon_Handler           0x0001822b   Wk    1  Code  Hi   0x2
    614  PendSV_Handler             0x0001822d   Wk    1  Code  Hi   0x2
    615  SysTick_Handler            0x0001822f   Wk    1  Code  Hi   0x2
    616  am_adc_isr                 0x00018231   Wk    1  Code  Hi 
    617  am_audadc0_isr             0x00018231   Wk    1  Code  Hi 
    618  am_brownout_isr            0x00018231   Wk    1  Code  Hi 
    619  am_cachecpu_isr            0x00018231   Wk    1  Code  Hi 
    620  am_clkgen_isr              0x00018231   Wk    1  Code  Hi 
    621  am_ctimer_isr              0x00018231   Wk    1  Code  Hi 
    622  am_disp_isr                0x00018231   Wk    1  Code  Hi 
    623  am_dsi_isr                 0x00018231   Wk    1  Code  Hi 
    624  am_dspi2s0_isr             0x00018231   Wk    1  Code  Hi 
    625  am_dspi2s1_isr             0x00018231   Wk    1  Code  Hi 
    626  am_dspi2s2_isr             0x00018231   Wk    1  Code  Hi 
    627  am_dspi2s3_isr             0x00018231   Wk    1  Code  Hi 
    628  am_gpio0_001f_isr          0x00018231   Wk    1  Code  Hi 
    629  am_gpio0_203f_isr          0x00018231   Wk    1  Code  Hi 
    630  am_gpio0_405f_isr          0x00018231   Wk    1  Code  Hi 
    631  am_gpio0_607f_isr          0x00018231   Wk    1  Code  Hi 
    632  am_gpio1_001f_isr          0x00018231   Wk    1  Code  Hi 
    633  am_gpio1_203f_isr          0x00018231   Wk    1  Code  Hi 
    634  am_gpio1_405f_isr          0x00018231   Wk    1  Code  Hi 
    635  am_gpio1_607f_isr          0x00018231   Wk    1  Code  Hi 
    636  am_gpu_isr                 0x00018231   Wk    1  Code  Hi 
    637  am_iomaster0_isr           0x00018231   Wk    1  Code  Hi 
    638  am_iomaster1_isr           0x00018231   Wk    1  Code  Hi 
    639  am_iomaster2_isr           0x00018231   Wk    1  Code  Hi 
    640  am_iomaster3_isr           0x00018231   Wk    1  Code  Hi 
    641  am_iomaster4_isr           0x00018231   Wk    1  Code  Hi 
    642  am_iomaster5_isr           0x00018231   Wk    1  Code  Hi 
    643  am_iomaster6_isr           0x00018231   Wk    1  Code  Hi 
    644  am_iomaster7_isr           0x00018231   Wk    1  Code  Hi 
    645  am_ioslave_acc_isr         0x00018231   Wk    1  Code  Hi 
    646  am_ioslave_ios_isr         0x00018231   Wk    1  Code  Hi 
    647  am_mspi0_isr               0x00018231   Wk    1  Code  Hi 
    648  am_mspi1_isr               0x00018231   Wk    1  Code  Hi 
    649  am_pdm0_isr                0x00018231   Wk    1  Code  Hi 
    650  am_pdm1_isr                0x00018231   Wk    1  Code  Hi 
    651  am_pdm2_isr                0x00018231   Wk    1  Code  Hi 
    652  am_pdm3_isr                0x00018231   Wk    1  Code  Hi 
    653  am_rtc_isr                 0x00018231   Wk    1  Code  Hi 
    654  am_sdio_isr                0x00018231   Wk    1  Code  Hi 
    655  am_stimer_cmpr0_isr        0x00018231   Wk    1  Code  Hi 
    656  am_stimer_cmpr1_isr        0x00018231   Wk    1  Code  Hi 
    657  am_stimer_cmpr2_isr        0x00018231   Wk    1  Code  Hi 
    658  am_stimer_cmpr3_isr        0x00018231   Wk    1  Code  Hi 
    659  am_stimer_cmpr4_isr        0x00018231   Wk    1  Code  Hi 
    660  am_stimer_cmpr5_isr        0x00018231   Wk    1  Code  Hi 
    661  am_stimer_cmpr6_isr        0x00018231   Wk    1  Code  Hi 
    662  am_stimer_cmpr7_isr        0x00018231   Wk    1  Code  Hi 
    663  am_stimerof_isr            0x00018231   Wk    1  Code  Hi 
    664  am_timer00_isr             0x00018231   Wk    1  Code  Hi 
    665  am_timer01_isr             0x00018231   Wk    1  Code  Hi 
    666  am_timer02_isr             0x00018231   Wk    1  Code  Hi 
    667  am_timer03_isr             0x00018231   Wk    1  Code  Hi 
    668  am_timer04_isr             0x00018231   Wk    1  Code  Hi 
    669  am_timer05_isr             0x00018231   Wk    1  Code  Hi 
    670  am_timer06_isr             0x00018231   Wk    1  Code  Hi 
    671  am_timer07_isr             0x00018231   Wk    1  Code  Hi 
    672  am_timer08_isr             0x00018231   Wk    1  Code  Hi 
    673  am_timer09_isr             0x00018231   Wk    1  Code  Hi 
    674  am_timer10_isr             0x00018231   Wk    1  Code  Hi 
    675  am_timer11_isr             0x00018231   Wk    1  Code  Hi 
    676  am_timer12_isr             0x00018231   Wk    1  Code  Hi 
    677  am_timer13_isr             0x00018231   Wk    1  Code  Hi 
    678  am_timer14_isr             0x00018231   Wk    1  Code  Hi 
    679  am_timer15_isr             0x00018231   Wk    1  Code  Hi 
    680  am_uart1_isr               0x00018231   Wk    1  Code  Hi 
    681  am_uart2_isr               0x00018231   Wk    1  Code  Hi 
    682  am_uart3_isr               0x00018231   Wk    1  Code  Hi 
    683  am_uart_isr                0x00018231   Wk    1  Code  Hi 
    684  am_usb_isr                 0x00018231   Wk    1  Code  Hi 
    685  am_vcomp_isr               0x00018231   Wk    1  Code  Hi 
    686  am_watchdog_isr            0x00018231   Wk    1  Code  Hi 
    687  __main                     0x00018239   Gb    1  Code  Hi   0x8
    688  __scatterload              0x00018241   Gb    1  Code  Hi 
    689  __scatterload_rt2          0x00018241   Gb    1  Code  Hi   0x2c
    690  __scatterload_rt2_thumb_only
                                    0x00018241   Gb    1  Code  Hi 
    691  __scatterload_null         0x0001824f   Gb    1  Code  Hi 
    692  __decompress               0x00018275   Gb    1  Code  Hi   0x5a
    693  __decompress1              0x00018275   Gb    1  Code  Hi 
    694  __scatterload_copy         0x000182d1   Gb    1  Code  Hi   0x1a
    695  __scatterload_zeroinit     0x000182ed   Gb    1  Code  Hi   0x1c
    696  __rt_lib_init              0x00018309   Gb    1  Code  De 
    697  __rt_lib_init_fp_1         0x0001830b   Gb    1  Code  Hi 
    698  __rt_lib_init_alloca_1     0x0001830f   Gb    1  Code  Hi 
    699  __rt_lib_init_argv_1       0x0001830f   Gb    1  Code  Hi 
    700  __rt_lib_init_atexit_1     0x0001830f   Gb    1  Code  Hi 
    701  __rt_lib_init_clock_1      0x0001830f   Gb    1  Code  Hi 
    702  __rt_lib_init_cpp_1        0x0001830f   Gb    1  Code  Hi 
    703  __rt_lib_init_exceptions_1 0x0001830f   Gb    1  Code  Hi 
    704  __rt_lib_init_fp_trap_1    0x0001830f   Gb    1  Code  Hi 
    705  __rt_lib_init_getenv_1     0x0001830f   Gb    1  Code  Hi 
    706  __rt_lib_init_heap_1       0x0001830f   Gb    1  Code  Hi 
    707  __rt_lib_init_lc_collate_1 0x0001830f   Gb    1  Code  Hi 
    708  __rt_lib_init_lc_ctype_1   0x0001830f   Gb    1  Code  Hi 
    709  __rt_lib_init_lc_monetary_1
                                    0x0001830f   Gb    1  Code  Hi 
    710  __rt_lib_init_lc_numeric_1 0x0001830f   Gb    1  Code  Hi 
    711  __rt_lib_init_lc_time_1    0x0001830f   Gb    1  Code  Hi 
    712  __rt_lib_init_preinit_1    0x0001830f   Gb    1  Code  Hi 
    713  __rt_lib_init_rand_1       0x0001830f   Gb    1  Code  Hi 
    714  __rt_lib_init_return       0x0001830f   Gb    1  Code  Hi 
    715  __rt_lib_init_signal_1     0x0001830f   Gb    1  Code  Hi 
    716  __rt_lib_init_stdio_1      0x0001830f   Gb    1  Code  Hi 
    717  __rt_lib_init_user_alloc_1 0x0001830f   Gb    1  Code  Hi 
    718  __rt_lib_shutdown          0x00018311   Gb    1  Code  De 
    719  __rt_lib_shutdown_cpp_1    0x00018313   Gb    1  Code  Hi 
    720  __rt_lib_shutdown_fp_trap_1
                                    0x00018313   Gb    1  Code  Hi 
    721  __rt_lib_shutdown_heap_1   0x00018313   Gb    1  Code  Hi 
    722  __rt_lib_shutdown_return   0x00018313   Gb    1  Code  Hi 
    723  __rt_lib_shutdown_signal_1 0x00018313   Gb    1  Code  Hi 
    724  __rt_lib_shutdown_stdio_1  0x00018313   Gb    1  Code  Hi 
    725  __rt_lib_shutdown_user_alloc_1
                                    0x00018313   Gb    1  Code  Hi 
    726  __rt_entry                 0x00018315   Gb    1  Code  Hi 
    727  __rt_entry_presh_1         0x00018315   Gb    1  Code  Hi 
    728  __rt_entry_sh              0x00018315   Gb    1  Code  Hi 
    729  __rt_entry_li              0x0001831b   Gb    1  Code  Hi 
    730  __rt_entry_postsh_1        0x0001831b   Gb    1  Code  Hi 
    731  __rt_entry_main            0x0001831f   Gb    1  Code  Hi 
    732  __rt_entry_postli_1        0x0001831f   Gb    1  Code  Hi 
    733  __rt_exit                  0x00018327   Gb    1  Code  De 
    734  __rt_exit_ls               0x00018329   Gb    1  Code  Hi 
    735  __rt_exit_prels_1          0x00018329   Gb    1  Code  Hi 
    736  __rt_exit_exit             0x0001832d   Gb    1  Code  Hi 
    737  __asm___19_mspi_quad_example_c_ba1d92ee__xip_test_function
                                    0x00018335   Gb    1  Code  Hi   0x42
    738  HardFault_Handler          0x00018379   Gb    1  Code  Hi   0x1a
    739  getStackedReg              0x00018393   Gb    1  Code  Hi   0x8
    740  am_hal_interrupt_master_enable
                                    0x0001839d   Gb    1  Code  Hi   0x8
    741  am_hal_interrupt_master_disable
                                    0x000183a5   Gb    1  Code  Hi   0x8
    742  am_hal_interrupt_master_set
                                    0x000183ad   Gb    1  Code  Hi   0x6
    743  __user_initial_stackheap   0x000183b5   Gb    1  Code  Hi   0xa
    744  __aeabi_llsl               0x000183cd   Gb    1  Code  Hi 
    745  _ll_shift_l                0x000183cd   Gb    1  Code  De   0x26
    746  __aeabi_llsr               0x000183f3   Gb    1  Code  Hi 
    747  _ll_ushift_r               0x000183f3   Gb    1  Code  De   0x26
    748  __aeabi_memcpy             0x00018419   Gb    1  Code  Hi 
    749  __rt_memcpy                0x00018419   Gb    1  Code  De   0x8a
    750  _memcpy_lastbytes          0x0001847f   Gb    1  Code  De 
    751  __aeabi_memclr4            0x000184a3   Gb    1  Code  Hi 
    752  __aeabi_memclr8            0x000184a3   Gb    1  Code  De 
    753  __rt_memclr_w              0x000184a3   Gb    1  Code  De   0x4e
    754  _memset_w                  0x000184a7   Gb    1  Code  De 
    755  __use_two_region_memory    0x000184f1   Gb    1  Code  Hi   0x2
    756  __rt_heap_escrow$2region   0x000184f3   Gb    1  Code  De   0x2
    757  __rt_heap_expand$2region   0x000184f5   Gb    1  Code  De   0x2
    758  __aeabi_memcpy4            0x000184f7   Gb    1  Code  De 
    759  __aeabi_memcpy8            0x000184f7   Gb    1  Code  De 
    760  __rt_memcpy_w              0x000184f7   Gb    1  Code  De   0x64
    761  _memcpy_lastbytes_aligned  0x0001853f   Gb    1  Code  De 
    762  __user_setup_stackheap     0x0001855b   Gb    1  Code  De   0x4a
    763  exit                       0x000185a5   Gb    1  Code  De   0x12
    764  __user_libspace            0x000185b9   Wk    1  Code  De   0x8
    765  __user_perproc_libspace    0x000185b9   Wk    1  Code  De 
    766  __user_perthread_libspace  0x000185b9   Wk    1  Code  De 
    767  _sys_exit                  0x000185c1   Gb    1  Code  De   0x8
    768  __I$use$semihosting        0x000185cd   Gb    1  Code  Hi 
    769  __use_no_semihosting_swi   0x000185cd   Gb    1  Code  Hi   0x2
    770  __semihosting_library_function
                                    0x000185cf   Gb    1  Code  Hi 
    771  am_bsp_itm_printf_enable   0x000185d1   Gb    1  Code  Hi   0x60
    772  am_bsp_low_power_init      0x00018649   Gb    1  Code  Hi   0x16
    773  am_bsp_mspi_pins_enable    0x00018661   Gb    1  Code  Hi   0x6c4
    774  am_devices_mspi_atxp032_deinit
                                    0x00018fd9   Gb    1  Code  Hi   0x7e
    775  am_devices_mspi_atxp032_disable_scrambling
                                    0x0001907d   Gb    1  Code  Hi   0x4a
    776  am_devices_mspi_atxp032_disable_xip
                                    0x000190cd   Gb    1  Code  Hi   0x4a
    777  am_devices_mspi_atxp032_enable_scrambling
                                    0x0001911d   Gb    1  Code  Hi   0x22
    778  am_devices_mspi_atxp032_enable_xip
                                    0x00019145   Gb    1  Code  Hi   0x4a
    779  am_devices_mspi_atxp032_id 0x00019195   Gb    1  Code  Hi   0x44
    780  am_devices_mspi_atxp032_init
                                    0x000191dd   Gb    1  Code  Hi   0x2d6
    781  am_devices_mspi_atxp032_mass_erase
                                    0x00019581   Gb    1  Code  Hi   0xaa
    782  am_devices_mspi_atxp032_read
                                    0x00019631   Gb    1  Code  Hi   0xcc
    783  am_devices_mspi_atxp032_reset
                                    0x0001970d   Gb    1  Code  Hi   0x68
    784  am_devices_mspi_atxp032_sector_erase
                                    0x00019775   Gb    1  Code  Hi   0x14c
    785  am_devices_mspi_atxp032_write
                                    0x000198c5   Gb    1  Code  Hi   0x186
    786  am_hal_cmdq_alloc_block    0x00019a55   Gb    1  Code  Hi   0xc8
    787  am_hal_cmdq_disable        0x00019b21   Gb    1  Code  Hi   0x3c
    788  am_hal_cmdq_enable         0x00019b61   Gb    1  Code  Hi   0x3c
    789  am_hal_cmdq_error_resume   0x00019ba1   Gb    1  Code  Hi   0x70
    790  am_hal_cmdq_get_status     0x00019c15   Gb    1  Code  Hi   0x9e
    791  am_hal_cmdq_init           0x00019cb9   Gb    1  Code  Hi   0xe2
    792  am_hal_cmdq_post_block     0x00019da9   Gb    1  Code  Hi   0x48
    793  am_hal_cmdq_post_loop_block
                                    0x00019df5   Gb    1  Code  Hi   0x56
    794  am_hal_cmdq_release_block  0x00019e51   Gb    1  Code  Hi   0x32
    795  am_hal_cmdq_reset          0x00019e89   Gb    1  Code  Hi   0x5e
    796  am_hal_cmdq_term           0x00019eed   Gb    1  Code  Hi   0x84
    797  am_hal_daxi_config         0x00019f75   Gb    1  Code  Hi   0x2a
    798  am_hal_daxi_control        0x00019f9f   Gb    1  Code  Hi   0x24
    799  am_hal_dcu_get             0x00019fc5   Gb    1  Code  Hi   0x84
    800  am_hal_dcu_update          0x0001a055   Gb    1  Code  Hi   0xd6
    801  am_hal_delay_us            0x0001a139   Gb    1  Code  Hi   0x22
    802  am_hal_delay_us_status_change
                                    0x0001a165   Gb    1  Code  Hi   0x50
    803  am_hal_delay_us_status_check
                                    0x0001a1bd   Gb    1  Code  Hi   0x5c
    804  am_hal_fault_capture_enable
                                    0x0001a221   Gb    1  Code  Hi   0x12
    805  am_hal_fault_status_get    0x0001a233   Gb    1  Code  Hi   0x3e
    806  am_hal_gpio_pinconfig      0x0001a271   Gb    1  Code  Hi   0x4c
    807  am_hal_itm_enable          0x0001a2c5   Gb    1  Code  Hi   0x2c
    808  am_hal_itm_print           0x0001a30d   Gb    1  Code  Hi   0x30
    809  am_hal_load_ui32           0x0001a33d   Gb    1  Code  Hi   0x6
    810  am_hal_mram_info_read      0x0001a349   Gb    1  Code  Hi   0x8c
    811  am_hal_mspi_blocking_transfer
                                    0x0001a3dd   Gb    1  Code  Hi   0x224
    812  am_hal_mspi_configure      0x0001a611   Gb    1  Code  Hi   0x6e
    813  am_hal_mspi_control        0x0001a689   Gb    1  Code  Hi   0x9dc
    814  am_hal_mspi_deinitialize   0x0001b06d   Gb    1  Code  Hi   0x78
    815  am_hal_mspi_device_configure
                                    0x0001b0ed   Gb    1  Code  Hi   0x236
    816  am_hal_mspi_disable        0x0001b335   Gb    1  Code  Hi   0x64
    817  am_hal_mspi_enable         0x0001b3a1   Gb    1  Code  Hi   0xa8
    818  am_hal_mspi_initialize     0x0001b455   Gb    1  Code  Hi   0x4c
    819  am_hal_mspi_interrupt_clear
                                    0x0001b4a9   Gb    1  Code  Hi   0x2e
    820  am_hal_mspi_interrupt_disable
                                    0x0001b4dd   Gb    1  Code  Hi   0x36
    821  am_hal_mspi_interrupt_enable
                                    0x0001b519   Gb    1  Code  Hi   0x34
    822  am_hal_mspi_interrupt_service
                                    0x0001b551   Gb    1  Code  Hi   0x29a
    823  am_hal_mspi_interrupt_status_get
                                    0x0001b7f5   Gb    1  Code  Hi   0x42
    824  am_hal_mspi_nonblocking_transfer
                                    0x0001b83d   Gb    1  Code  Hi   0x170
    825  am_hal_mspi_power_control  0x0001b9b5   Gb    1  Code  Hi   0x3ba
    826  am_hal_pwrctrl_control     0x0001bd75   Gb    1  Code  Hi   0x15c
    827  am_hal_pwrctrl_low_power_init
                                    0x0001bef1   Gb    1  Code  Hi   0x18a
    828  am_hal_pwrctrl_mcu_memory_config
                                    0x0001c099   Gb    1  Code  Hi   0x114
    829  am_hal_pwrctrl_periph_disable
                                    0x0001c1b5   Gb    1  Code  Hi   0x54
    830  am_hal_pwrctrl_periph_enable
                                    0x0001c211   Gb    1  Code  Hi   0x56
    831  am_hal_rtc_osc_disable     0x0001c271   Gb    1  Code  Hi   0xe
    832  am_hal_sysctrl_sleep       0x0001c285   Gb    1  Code  Hi   0xca
    833  am_hal_timer_clear         0x0001c365   Gb    1  Code  Hi   0x5a
    834  am_hal_timer_default_config_set
                                    0x0001c3c5   Gb    1  Code  Hi   0x1c
    835  am_hal_timer_interrupt_clear
                                    0x0001c3e1   Gb    1  Code  Hi   0x8
    836  am_hal_timer_interrupt_enable
                                    0x0001c3ed   Gb    1  Code  Hi   0x54
    837  am_hal_timer_interrupt_status_get
                                    0x0001c44d   Gb    1  Code  Hi   0x12
    838  am_hal_timer_stop          0x0001c465   Gb    1  Code  Hi   0x3a
    839  am_hal_tpiu_enable         0x0001c4a5   Gb    1  Code  Hi   0x3c
    840  am_hal_util_write_and_wait 0x0001c4ed   Gb    1  Code  Hi   0x11e
    841  am_mspi2_isr               0x0001c629   Gb    1  Code  Hi   0x24
    842  am_util_delay_ms           0x0001c651   Gb    1  Code  Hi   0x12
    843  am_util_delay_us           0x0001c663   Gb    1  Code  Hi   0xc
    844  am_util_faultisr_collect_data
                                    0x0001c671   Gb    1  Code  Hi   0x1d4
    845  am_util_stdio_printf       0x0001cb51   Gb    1  Code  Hi   0x32
    846  am_util_stdio_printf_init  0x0001cb8d   Gb    1  Code  Hi   0x6
    847  am_util_stdio_terminal_clear
                                    0x0001cb99   Gb    1  Code  Hi   0xa
    848  am_util_stdio_vsprintf     0x0001cbb9   Gb    1  Code  Hi   0x3a4
    849  build_dma_cmdlist          0x0001cf6d   Gb    1  Code  Hi   0x188
    850  internal_timer_config      0x0001d3c9   Gb    1  Code  Hi   0xdc
    851  main                       0x0001d4a9   Gb    1  Code  Hi   0x28a
    852  timer_config_b1            0x0001e1b5   Gb    1  Code  Hi   0x192
    853  __aeabi_d2f                0x0001e44d   Gb    1  Code  Hi 
    854  _d2f                       0x0001e44d   Gb    1  Code  De   0x62
    855  __fpl_dnaninf              0x0001e4af   Gb    1  Code  De   0x9c
    856  _fp_init                   0x0001e54b   Gb    1  Code  De   0xa
    857  __fplib_config_fpu_vfp     0x0001e553   Gb    1  Code  De 
    858  __fplib_config_pureend_doubles
                                    0x0001e553   Gb    1  Code  De 
    859  __fpl_fretinf              0x0001e555   Gb    1  Code  De   0xa
    860  __I$use$fp                 0x0001e55e   Gb    1   --   De 
    861  ui32MCUAllowed             0x0001e560   Gb    1  Data  Hi   0x14
    862  ui32DSP0Allowed            0x0001e574   Gb    1  Data  Hi   0x14
    863  ui32DSP1Allowed            0x0001e588   Gb    1  Data  Hi   0x14
    864  ui32SharedAccess           0x0001e59c   Gb    1  Data  Hi   0x14
    865  sGlobalAccess              0x0001e5b0   Gb    1  Data  Hi   0x1c
    866  MSPI_Flash_Config          0x0001e5cc   Gb    1  Data  Hi   0x14
    867  g_am_hal_bootrom_helper    0x0001e5e4   Gb    1  Data  Hi   0x28
    868  g_DefaultSRAMCfg           0x0001e7d4   Gb    1  Data  Hi   0x4
    869  g_DefaultMcuMemCfg         0x0001e7d8   Gb    1  Data  Hi   0x6
    870  am_hal_pwrctrl_peripheral_control
                                    0x0001e7e0   Gb    1  Data  Hi   0x230
    871  am_hal_daxi_defaults       0x0001ea10   Gb    1  Data  Hi   0x3
    872  Region$$Table$$Base        0x0001ea14   Gb    1   --   Hi 
    873  Region$$Table$$Limit       0x0001ea44   Gb    1   --   Hi 
    874  mspi2_debug                0x10000000   Gb    2  Data  Hi   0x4
    875  g_FlashHdl                 0x10000004   Gb    2  Data  Hi   0x4
    876  g_MSPIHdl                  0x10000008   Gb    2  Data  Hi   0x4
    877  device_func                0x1000000c   Gb    2  Data  Hi   0x40
    878  g_pfnCharPrint             0x1000004c   Gb    2  Data  Hi   0x4
    879  gXipConfig                 0x10000054   Gb    2  Data  Hi   0x30
    880  MSPI_ATXP032_Serial_CE0_MSPIConfig
                                    0x10000084   Gb    2  Data  Hi   0x16
    881  MSPI_ATXP032_Serial_CE1_MSPIConfig
                                    0x1000009a   Gb    2  Data  Hi   0x16
    882  MSPI_ATXP032_Quad_CE0_MSPIConfig
                                    0x100000b0   Gb    2  Data  Hi   0x16
    883  MSPI_ATXP032_Quad_CE1_MSPIConfig
                                    0x100000c6   Gb    2  Data  Hi   0x16
    884  MSPI_ATXP032_Octal_CE0_MSPIConfig
                                    0x100000dc   Gb    2  Data  Hi   0x16
    885  MSPI_ATXP032_Octal_CE1_MSPIConfig
                                    0x100000f2   Gb    2  Data  Hi   0x16
    886  g_ATXP032_DevConfig        0x10000108   Gb    2  Data  Hi   0x30
    887  g_ui32HALflags             0x10000138   Gb    2  Data  Hi   0x4
    888  gStartOff                  0x10000148   Gb    2  Data  Hi   0x4
    889  gpDcuEnable                0x1000014c   Gb    2  Data  Hi   0x4
    890  gpDcuLock                  0x10000150   Gb    2  Data  Hi   0x4
    891  gDcuEnable                 0x10000158   Gb    2  Data  Hi   0x8
    892  gDcuDisable                0x10000160   Gb    2  Data  Hi   0x8
    893  g_eCurrPwrMode             0x10000168   Gb    2  Data  Hi   0x1
    894  g_bVDDCbuckboosted         0x10000169   Gb    2  Data  Hi   0x1
    895  g_bVDDCLDOboosted          0x1000016a   Gb    2  Data  Hi   0x1
    896  g_ui32TrimVer              0x1000016c   Gb    2  Data  Hi   0x4
    897  g_ui32origSimobuckVDDFtrim 0x10000170   Gb    2  Data  Hi   0x4
    898  g_ui32origSimobuckVDDCtrim 0x10000174   Gb    2  Data  Hi   0x4
    899  g_ui32origLDOVDDCtrim      0x10000178   Gb    2  Data  Hi   0x4
    900  storeAndWFIfuncRAM         0x10000180   Gb    2  Data  Hi   0x4
    901  g_AM_BSP_GPIO_MSPI0_DDR_CE0
                                    0x100001b0   Gb    2  Data  Hi   0x4
    902  g_AM_BSP_GPIO_MSPI0_DDR_CE1
                                    0x100001b4   Gb    2  Data  Hi   0x4
    903  g_AM_BSP_GPIO_MSPI0_CE0    0x100001b8   Gb    2  Data  Hi   0x4
    904  g_AM_BSP_GPIO_MSPI0_CE1    0x100001bc   Gb    2  Data  Hi   0x4
    905  g_AM_BSP_GPIO_MSPI0_D0     0x100001c0   Gb    2  Data  Hi   0x4
    906  g_AM_BSP_GPIO_MSPI0_D1     0x100001c4   Gb    2  Data  Hi   0x4
    907  g_AM_BSP_GPIO_MSPI0_D2     0x100001c8   Gb    2  Data  Hi   0x4
    908  g_AM_BSP_GPIO_MSPI0_D3     0x100001cc   Gb    2  Data  Hi   0x4
    909  g_AM_BSP_GPIO_MSPI0_D4     0x100001d0   Gb    2  Data  Hi   0x4
    910  g_AM_BSP_GPIO_MSPI0_D5     0x100001d4   Gb    2  Data  Hi   0x4
    911  g_AM_BSP_GPIO_MSPI0_D6     0x100001d8   Gb    2  Data  Hi   0x4
    912  g_AM_BSP_GPIO_MSPI0_D7     0x100001dc   Gb    2  Data  Hi   0x4
    913  g_AM_BSP_GPIO_MSPI0_SCK    0x100001e0   Gb    2  Data  Hi   0x4
    914  g_AM_BSP_GPIO_MSPI0_DQSDM  0x100001e4   Gb    2  Data  Hi   0x4
    915  g_AM_BSP_GPIO_MSPI2_DDR_CE0
                                    0x100001e8   Gb    2  Data  Hi   0x4
    916  g_AM_BSP_GPIO_MSPI2_DDR_CE1
                                    0x100001ec   Gb    2  Data  Hi   0x4
    917  g_AM_BSP_GPIO_MSPI2_CE0    0x100001f0   Gb    2  Data  Hi   0x4
    918  g_AM_BSP_GPIO_MSPI2_CE1    0x100001f4   Gb    2  Data  Hi   0x4
    919  g_AM_BSP_GPIO_MSPI2_D0     0x100001f8   Gb    2  Data  Hi   0x4
    920  g_AM_BSP_GPIO_MSPI2_D1     0x100001fc   Gb    2  Data  Hi   0x4
    921  g_AM_BSP_GPIO_MSPI2_D2     0x10000200   Gb    2  Data  Hi   0x4
    922  g_AM_BSP_GPIO_MSPI2_D3     0x10000204   Gb    2  Data  Hi   0x4
    923  g_AM_BSP_GPIO_MSPI2_D4     0x10000208   Gb    2  Data  Hi   0x4
    924  g_AM_BSP_GPIO_MSPI2_D5     0x1000020c   Gb    2  Data  Hi   0x4
    925  g_AM_BSP_GPIO_MSPI2_D6     0x10000210   Gb    2  Data  Hi   0x4
    926  g_AM_BSP_GPIO_MSPI2_D7     0x10000214   Gb    2  Data  Hi   0x4
    927  g_AM_BSP_GPIO_MSPI2_SCK    0x10000218   Gb    2  Data  Hi   0x4
    928  g_AM_BSP_GPIO_MSPI2_DQSDM  0x1000021c   Gb    2  Data  Hi   0x4
    929  g_AM_BSP_GPIO_ITM_SWO      0x10000220   Gb    2  Data  Hi   0x4
    930  program_mram_tmc_tcycrd    0x100002d8   Gb    2  Data  Hi   0x4
    931  DMATCBBuffer               0x100002dc   Gb    3  Data  Hi   0x2800
    932  TestBuffer                 0x10002adc   Gb    3  Data  Hi   0x800
    933  DummyBuffer                0x100032dc   Gb    3  Data  Hi   0x400
    934  g_SectorTXBuffer           0x100036dc   Gb    3  Data  Hi   0x1000
    935  g_SectorRXBuffer           0x100046dc   Gb    3  Data  Hi   0x1000
    936  gMspiCfg                   0x100057dc   Gb    3  Data  Hi   0xc
    937  gAmAtxp032                 0x100057e8   Gb    3  Data  Hi   0x20
    938  g_MSPIState                0x10005808   Gb    3  Data  Hi   0x1a28
    939  __libspace_start           0x10007454   Gb    3  Data  De   0x60
    940  __temporary_stack_top$libspace
                                    0x100074b4   Gb    3  Data  De 
    941  psGlobalAccessPtr          0x10060000   Gb    4  Data  Hi   0x4
    942  ui32MCUClaimed             0x10060004   Gb    4  Data  Hi   0x14
    943  ui32DSP0Claimed            0x10060018   Gb    4  Data  Hi   0x14
    944  ui32DSP1Claimed            0x1006002c   Gb    4  Data  Hi   0x14


** Section #13 '.strtab' (SHT_STRTAB)
    Size   : 14808 bytes

            #  Offset String
        ====================================

            1      1: $d
            2      4: $t
            3      7: $d.realdata
            4     19: ..\src\am_resources.c
            5     41: ../src/am_resources.c
            6     63: .constdata
            7     74: __tagsym$$used
            8     89: RESOURCE_TABLE
            9    104: SHARED_RW
           10    114: ..\src\mspi_quad_example.c
           11    141: .emb_text
           12    151: $v0
           13    155: ../src/mspi_quad_example.c
           14    182: i.am_mspi2_isr
           15    197: i.main
           16    204: .bss
           17    209: mspi_interrupts
           18    225: .data
           19    231: ..\..\..\..\..\..\utils\am_util_delay.c
           20    271: ../../../../../../utils/am_util_delay.c
           21    311: i.am_util_delay_ms
           22    330: i.am_util_delay_us
           23    349: ..\..\..\..\..\..\utils\am_util_faultisr.c
           24    392: ../../../../../../utils/am_util_faultisr.c
           25    435: i.am_util_faultisr_collect_data
           26    467: ../../../../../../utils/am_util_stdio.c
           27    507: i.am_util_stdio_printf
           28    530: i.am_util_stdio_printf_init
           29    558: i.am_util_stdio_terminal_clear
           30    589: i.am_util_stdio_vsprintf
           31    614: i.decstr_to_int
           32    630: decstr_to_int
           33    644: i.divu64_10
           34    656: divu64_10
           35    666: i.ftoa
           36    673: ftoa
           37    678: i.ndigits_in_hex
           38    695: ndigits_in_hex
           39    710: i.ndigits_in_i64
           40    727: ndigits_in_i64
           41    742: i.ndigits_in_u64
           42    759: ndigits_in_u64
           43    774: i.padbuffer
           44    786: padbuffer
           45    796: i.simple_strlen
           46    812: simple_strlen
           47    826: i.uint64_to_hexstr
           48    845: uint64_to_hexstr
           49    862: i.uint64_to_str
           50    878: uint64_to_str
           51    892: g_prfbuf
           52    901: g_bTxtXlate
           53    913: ..\..\..\..\..\..\devices\am_devices_mspi_atxp032.c
           54    965: ../../../../../../devices/am_devices_mspi_atxp032.c
           55   1017: i.am_device_deinit_flash
           56   1042: am_device_deinit_flash
           57   1065: i.am_device_init_flash
           58   1088: am_device_init_flash
           59   1109: i.am_devices_mspi_atxp032_command_read
           60   1148: am_devices_mspi_atxp032_command_read
           61   1185: i.am_devices_mspi_atxp032_command_write
           62   1225: am_devices_mspi_atxp032_command_write
           63   1263: i.am_devices_mspi_atxp032_deinit
           64   1296: i.am_devices_mspi_atxp032_disable_scrambling
           65   1341: i.am_devices_mspi_atxp032_disable_xip
           66   1379: i.am_devices_mspi_atxp032_enable_scrambling
           67   1423: i.am_devices_mspi_atxp032_enable_xip
           68   1460: i.am_devices_mspi_atxp032_id
           69   1489: i.am_devices_mspi_atxp032_init
           70   1520: i.am_devices_mspi_atxp032_mass_erase
           71   1557: i.am_devices_mspi_atxp032_read
           72   1588: i.am_devices_mspi_atxp032_reset
           73   1620: i.am_devices_mspi_atxp032_sector_erase
           74   1659: i.am_devices_mspi_atxp032_write
           75   1691: i.pfnMSPI_ATXP032_Callback
           76   1718: pfnMSPI_ATXP032_Callback
           77   1743: ../keil/startup_keil.s
           78   1766: STACK
           79   1772: StackMem
           80   1781: HEAP
           81   1786: HeapMem
           82   1794: RESET
           83   1800: am_cryptosec_isr
           84   1817: am_default_isr
           85   1832: .text
           86   1838: ..\..\..\..\..\mcu\apollo4b\hal\am_hal_global.c
           87   1886: ../../../../../mcu/apollo4b/hal/am_hal_global.c
           88   1934: ..\..\..\..\..\mcu\apollo4b\hal\mcu\am_hal_fault.c
           89   1985: ../../../../../mcu/apollo4b/hal/mcu/am_hal_fault.c
           90   2036: i.am_hal_fault_capture_enable
           91   2066: i.am_hal_fault_status_get
           92   2092: ..\..\..\..\..\mcu\apollo4b\hal\mcu\am_hal_interrupt.c
           93   2147: ../../../../../mcu/apollo4b/hal/mcu/am_hal_interrupt.c
           94   2202: ..\..\..\..\..\mcu\apollo4b\hal\mcu\am_hal_mspi.c
           95   2252: ../../../../../mcu/apollo4b/hal/mcu/am_hal_mspi.c
           96   2302: i.am_hal_mspi_blocking_transfer
           97   2334: i.am_hal_mspi_configure
           98   2358: i.am_hal_mspi_control
           99   2380: i.am_hal_mspi_deinitialize
          100   2407: i.am_hal_mspi_device_configure
          101   2438: i.am_hal_mspi_disable
          102   2460: i.am_hal_mspi_enable
          103   2481: i.am_hal_mspi_initialize
          104   2506: i.am_hal_mspi_interrupt_clear
          105   2536: i.am_hal_mspi_interrupt_disable
          106   2568: i.am_hal_mspi_interrupt_enable
          107   2599: i.am_hal_mspi_interrupt_service
          108   2631: i.am_hal_mspi_interrupt_status_get
          109   2666: i.am_hal_mspi_nonblocking_transfer
          110   2701: i.am_hal_mspi_power_control
          111   2729: i.build_dma_cmdlist
          112   2749: i.mspi_device_configure
          113   2773: mspi_device_configure
          114   2795: i.mspi_dummy_callback
          115   2817: mspi_dummy_callback
          116   2837: i.mspi_seq_loopback
          117   2857: mspi_seq_loopback
          118   2875: i.sched_hiprio
          119   2890: sched_hiprio
          120   2903: ..\..\..\..\..\mcu\apollo4b\hal\mcu\am_hal_sysctrl.c
          121   2956: ../../../../../mcu/apollo4b/hal/mcu/am_hal_sysctrl.c
          122   3009: i.am_hal_sysctrl_sleep
          123   3032: ..\..\..\..\..\mcu\apollo4b\hal\mcu\am_hal_utils.c
          124   3083: ../../../../../mcu/apollo4b/hal/mcu/am_hal_utils.c
          125   3134: i.am_hal_delay_us
          126   3152: i.am_hal_delay_us_status_change
          127   3184: i.am_hal_delay_us_status_check
          128   3215: i.am_hal_load_ui32
          129   3234: ..\am_bsp.c
          130   3246: ../am_bsp.c
          131   3258: i.am_bsp_itm_printf_enable
          132   3285: i.am_bsp_low_power_init
          133   3309: i.am_bsp_mspi_pins_enable
          134   3335: g_ePrintInterface
          135   3353: g_sCOMUART
          136   3364: ..\..\..\..\..\mcu\apollo4b\hal\mcu\am_hal_bootrom_helper.c
          137   3424: ../../../../../mcu/apollo4b/hal/mcu/am_hal_bootrom_helper.c
          138   3484: ..\..\..\..\..\mcu\apollo4b\hal\mcu\am_hal_cmdq.c
          139   3534: ../../../../../mcu/apollo4b/hal/mcu/am_hal_cmdq.c
          140   3584: i.am_hal_cmdq_alloc_block
          141   3610: i.am_hal_cmdq_disable
          142   3632: i.am_hal_cmdq_enable
          143   3653: i.am_hal_cmdq_error_resume
          144   3680: i.am_hal_cmdq_get_status
          145   3705: i.am_hal_cmdq_init
          146   3724: i.am_hal_cmdq_post_block
          147   3749: i.am_hal_cmdq_post_loop_block
          148   3779: i.am_hal_cmdq_release_block
          149   3807: i.am_hal_cmdq_reset
          150   3827: i.am_hal_cmdq_term
          151   3846: gAmHalCmdq
          152   3857: gAmHalCmdQReg
          153   3871: ..\..\..\..\..\mcu\apollo4b\hal\mcu\am_hal_itm.c
          154   3920: ../../../../../mcu/apollo4b/hal/mcu/am_hal_itm.c
          155   3969: i.am_hal_itm_enable
          156   3989: i.am_hal_itm_print
          157   4008: ..\..\..\..\..\mcu\apollo4b\hal\mcu\am_hal_rtc.c
          158   4057: ../../../../../mcu/apollo4b/hal/mcu/am_hal_rtc.c
          159   4106: i.am_hal_rtc_osc_disable
          160   4131: ..\..\..\..\..\mcu\apollo4b\hal\mcu\am_hal_tpiu.c
          161   4181: ../../../../../mcu/apollo4b/hal/mcu/am_hal_tpiu.c
          162   4231: i.am_hal_tpiu_enable
          163   4252: ..\..\..\..\..\mcu\apollo4b\hal\mcu\am_hal_uart.c
          164   4302: ../../../../../mcu/apollo4b/hal/mcu/am_hal_uart.c
          165   4352: ..\..\..\..\..\mcu\apollo4b\hal\am_hal_dcu.c
          166   4397: ../../../../../mcu/apollo4b/hal/am_hal_dcu.c
          167   4442: i.am_hal_dcu_get
          168   4459: i.am_hal_dcu_update
          169   4479: i.copy_words
          170   4492: copy_words
          171   4503: ..\..\..\..\..\mcu\apollo4b\hal\am_hal_gpio.c
          172   4549: ../../../../../mcu/apollo4b/hal/am_hal_gpio.c
          173   4595: i.am_hal_gpio_pinconfig
          174   4619: g_ui32DSpintbl
          175   4634: ..\..\..\..\..\mcu\apollo4b\hal\am_hal_pwrctrl.c
          176   4683: ../../../../../mcu/apollo4b/hal/am_hal_pwrctrl.c
          177   4732: i.am_hal_pwrctrl_control
          178   4757: i.am_hal_pwrctrl_low_power_init
          179   4789: i.am_hal_pwrctrl_mcu_memory_config
          180   4824: i.am_hal_pwrctrl_periph_disable
          181   4856: i.am_hal_pwrctrl_periph_enable
          182   4887: i.am_hal_util_write_and_wait
          183   4916: g_WaitTimerDuration
          184   4936: storeAndWFIRAM
          185   4951: ..\am_bsp_pins.c
          186   4968: ../am_bsp_pins.c
          187   4985: ..\..\..\..\..\mcu\apollo4b\hal\mcu\am_hal_cachectrl.c
          188   5040: ../../../../../mcu/apollo4b/hal/mcu/am_hal_cachectrl.c
          189   5095: i.am_hal_daxi_config
          190   5116: i.am_hal_daxi_control
          191   5138: ..\..\..\..\..\mcu\apollo4b\hal\mcu\am_hal_mram.c
          192   5188: ../../../../../mcu/apollo4b/hal/mcu/am_hal_mram.c
          193   5238: i.am_hal_mram_info_read
          194   5262: g_program_mram_tmc_tcycrd
          195   5288: ..\..\..\..\..\mcu\apollo4b\hal\am_hal_pin.c
          196   5333: ../../../../../mcu/apollo4b/hal/am_hal_pin.c
          197   5378: ..\..\..\..\..\mcu\apollo4b\hal\am_hal_queue.c
          198   5425: ../../../../../mcu/apollo4b/hal/am_hal_queue.c
          199   5472: ..\..\..\..\..\mcu\apollo4b\hal\am_hal_timer.c
          200   5519: ../../../../../mcu/apollo4b/hal/am_hal_timer.c
          201   5566: i.am_hal_timer_clear
          202   5587: i.am_hal_timer_default_config_set
          203   5621: i.am_hal_timer_interrupt_clear
          204   5652: i.am_hal_timer_interrupt_enable
          205   5684: i.am_hal_timer_interrupt_status_get
          206   5720: i.am_hal_timer_stop
          207   5740: i.internal_timer_config
          208   5764: i.timer_config_b1
          209   5782: TimerFlags
          210   5793: dc.s
          211   5798: ../clib/longlong.s
          212   5817: ../clib/memcpset.s
          213   5836: ../clib/heapaux.c
          214   5854: ../clib/angel/startup.s
          215   5878: !!!main
          216   5886: ../clib/angel/handlers.s
          217   5911: !!handler_copy
          218   5926: ../fplib/d2f.s
          219   5941: x$fpl$d2f
          220   5951: ../clib/angel/kernel.s
          221   5974: .ARM.Collect$$rtentry$$00000000
          222   6006: ../fplib/dnaninf.s
          223   6025: x$fpl$dnaninf
          224   6039: ../fplib/fretinf.s
          225   6058: x$fpl$fretinf
          226   6072: ../fplib/usenofp.s
          227   6091: x$fpl$usenofp
          228   6105: .ARM.Collect$$rtentry$$00000002
          229   6137: .ARM.Collect$$rtentry$$00000009
          230   6169: .ARM.Collect$$rtentry$$0000000A
          231   6201: .ARM.Collect$$rtentry$$0000000C
          232   6233: .ARM.Collect$$rtentry$$0000000D
          233   6265: .ARM.Collect$$rtentry$$00000004
          234   6297: ../clib/angel/sys.s
          235   6317: ../clib/stdlib.c
          236   6334: ../clib/angel/boardlib.s
          237   6359: ../clib/libinit.s
          238   6377: .ARM.Collect$$libinit$$00000000
          239   6409: .ARM.Collect$$rtexit$$00000000
          240   6440: .ARM.Collect$$libinit$$00000001
          241   6472: .ARM.Collect$$libinit$$00000004
          242   6504: .ARM.Collect$$libinit$$0000000A
          243   6536: .ARM.Collect$$libinit$$0000000C
          244   6568: .ARM.Collect$$libinit$$0000000E
          245   6600: .ARM.Collect$$libinit$$00000011
          246   6632: .ARM.Collect$$libinit$$00000013
          247   6664: .ARM.Collect$$libinit$$00000015
          248   6696: .ARM.Collect$$libinit$$00000017
          249   6728: .ARM.Collect$$libinit$$00000019
          250   6760: .ARM.Collect$$libinit$$0000001B
          251   6792: .ARM.Collect$$libinit$$0000001D
          252   6824: .ARM.Collect$$libinit$$0000001F
          253   6856: .ARM.Collect$$libinit$$00000021
          254   6888: .ARM.Collect$$libinit$$00000023
          255   6920: .ARM.Collect$$libinit$$00000025
          256   6952: .ARM.Collect$$libinit$$0000002C
          257   6984: .ARM.Collect$$libinit$$0000002E
          258   7016: .ARM.Collect$$libinit$$00000030
          259   7048: .ARM.Collect$$libinit$$00000032
          260   7080: .ARM.Collect$$libinit$$00000033
          261   7112: .ARM.Collect$$rtexit$$00000002
          262   7143: .ARM.Collect$$rtexit$$00000003
          263   7174: .ARM.Collect$$rtexit$$00000004
          264   7205: ../clib/armsys.c
          265   7222: ../fplib/fpinit.s
          266   7240: x$fpl$fpinit
          267   7253: ../clib/angel/sysapp.c
          268   7276: .ARM.Collect$$libshutdown$$00000000
          269   7312: ../clib/heapalloc.c
          270   7332: ../clib/signal.c
          271   7349: .ARM.Collect$$libshutdown$$00000002
          272   7385: .ARM.Collect$$libshutdown$$00000004
          273   7421: .ARM.Collect$$libshutdown$$00000007
          274   7457: .ARM.Collect$$libshutdown$$0000000A
          275   7493: .ARM.Collect$$libshutdown$$0000000C
          276   7529: .ARM.Collect$$libshutdown$$0000000F
          277   7565: .ARM.Collect$$libshutdown$$00000010
          278   7601: ../clib/angel/rt.s
          279   7620: ../clib/signal.s
          280   7637: ../clib/angel/dczerorl2.s
          281   7663: !!dczerorl2
          282   7675: ../clib/angel/scatter.s
          283   7699: !!!scatter
          284   7710: !!handler_zi
          285   7723: BuildAttributes$$THM_ISAv4$E$P$D$K$B$S$7EM$VFPi3$EXTD16$VFPS$VFMA$PE$A:L22UL41UL21$X:L11$S22US41US21$IEEE1$IW$USESV6$~STKCKD$USESV7$~SHL$OTIME$ROPI$EBA8$UX$STANDARDLIB$REQ8$PRES8$EABIv2
          286   7909: __ARM_use_no_argv
          287   7927: __Vectors
          288   7937: __Patchable
          289   7949: Reset_Handler
          290   7963: NMI_Handler
          291   7975: MemManage_Handler
          292   7993: BusFault_Handler
          293   8010: UsageFault_Handler
          294   8029: SecureFault_Handler
          295   8049: SVC_Handler
          296   8061: DebugMon_Handler
          297   8078: PendSV_Handler
          298   8093: SysTick_Handler
          299   8109: am_adc_isr
          300   8120: am_audadc0_isr
          301   8135: am_brownout_isr
          302   8151: am_cachecpu_isr
          303   8167: am_clkgen_isr
          304   8181: am_ctimer_isr
          305   8195: am_disp_isr
          306   8207: am_dsi_isr
          307   8218: am_dspi2s0_isr
          308   8233: am_dspi2s1_isr
          309   8248: am_dspi2s2_isr
          310   8263: am_dspi2s3_isr
          311   8278: am_gpio0_001f_isr
          312   8296: am_gpio0_203f_isr
          313   8314: am_gpio0_405f_isr
          314   8332: am_gpio0_607f_isr
          315   8350: am_gpio1_001f_isr
          316   8368: am_gpio1_203f_isr
          317   8386: am_gpio1_405f_isr
          318   8404: am_gpio1_607f_isr
          319   8422: am_gpu_isr
          320   8433: am_iomaster0_isr
          321   8450: am_iomaster1_isr
          322   8467: am_iomaster2_isr
          323   8484: am_iomaster3_isr
          324   8501: am_iomaster4_isr
          325   8518: am_iomaster5_isr
          326   8535: am_iomaster6_isr
          327   8552: am_iomaster7_isr
          328   8569: am_ioslave_acc_isr
          329   8588: am_ioslave_ios_isr
          330   8607: am_mspi0_isr
          331   8620: am_mspi1_isr
          332   8633: am_pdm0_isr
          333   8645: am_pdm1_isr
          334   8657: am_pdm2_isr
          335   8669: am_pdm3_isr
          336   8681: am_rtc_isr
          337   8692: am_sdio_isr
          338   8704: am_stimer_cmpr0_isr
          339   8724: am_stimer_cmpr1_isr
          340   8744: am_stimer_cmpr2_isr
          341   8764: am_stimer_cmpr3_isr
          342   8784: am_stimer_cmpr4_isr
          343   8804: am_stimer_cmpr5_isr
          344   8824: am_stimer_cmpr6_isr
          345   8844: am_stimer_cmpr7_isr
          346   8864: am_stimerof_isr
          347   8880: am_timer00_isr
          348   8895: am_timer01_isr
          349   8910: am_timer02_isr
          350   8925: am_timer03_isr
          351   8940: am_timer04_isr
          352   8955: am_timer05_isr
          353   8970: am_timer06_isr
          354   8985: am_timer07_isr
          355   9000: am_timer08_isr
          356   9015: am_timer09_isr
          357   9030: am_timer10_isr
          358   9045: am_timer11_isr
          359   9060: am_timer12_isr
          360   9075: am_timer13_isr
          361   9090: am_timer14_isr
          362   9105: am_timer15_isr
          363   9120: am_uart1_isr
          364   9133: am_uart2_isr
          365   9146: am_uart3_isr
          366   9159: am_uart_isr
          367   9171: am_usb_isr
          368   9182: am_vcomp_isr
          369   9195: am_watchdog_isr
          370   9211: __main
          371   9218: __scatterload
          372   9232: __scatterload_rt2
          373   9250: __scatterload_rt2_thumb_only
          374   9279: __scatterload_null
          375   9298: __decompress
          376   9311: __decompress1
          377   9325: __scatterload_copy
          378   9344: __scatterload_zeroinit
          379   9367: __rt_lib_init
          380   9381: __rt_lib_init_fp_1
          381   9400: __rt_lib_init_alloca_1
          382   9423: __rt_lib_init_argv_1
          383   9444: __rt_lib_init_atexit_1
          384   9467: __rt_lib_init_clock_1
          385   9489: __rt_lib_init_cpp_1
          386   9509: __rt_lib_init_exceptions_1
          387   9536: __rt_lib_init_fp_trap_1
          388   9560: __rt_lib_init_getenv_1
          389   9583: __rt_lib_init_heap_1
          390   9604: __rt_lib_init_lc_collate_1
          391   9631: __rt_lib_init_lc_ctype_1
          392   9656: __rt_lib_init_lc_monetary_1
          393   9684: __rt_lib_init_lc_numeric_1
          394   9711: __rt_lib_init_lc_time_1
          395   9735: __rt_lib_init_preinit_1
          396   9759: __rt_lib_init_rand_1
          397   9780: __rt_lib_init_return
          398   9801: __rt_lib_init_signal_1
          399   9824: __rt_lib_init_stdio_1
          400   9846: __rt_lib_init_user_alloc_1
          401   9873: __rt_lib_shutdown
          402   9891: __rt_lib_shutdown_cpp_1
          403   9915: __rt_lib_shutdown_fp_trap_1
          404   9943: __rt_lib_shutdown_heap_1
          405   9968: __rt_lib_shutdown_return
          406   9993: __rt_lib_shutdown_signal_1
          407  10020: __rt_lib_shutdown_stdio_1
          408  10046: __rt_lib_shutdown_user_alloc_1
          409  10077: __rt_entry
          410  10088: __rt_entry_presh_1
          411  10107: __rt_entry_sh
          412  10121: __rt_entry_li
          413  10135: __rt_entry_postsh_1
          414  10155: __rt_entry_main
          415  10171: __rt_entry_postli_1
          416  10191: __rt_exit
          417  10201: __rt_exit_ls
          418  10214: __rt_exit_prels_1
          419  10232: __rt_exit_exit
          420  10247: __asm___19_mspi_quad_example_c_ba1d92ee__xip_test_function
          421  10306: HardFault_Handler
          422  10324: getStackedReg
          423  10338: am_hal_interrupt_master_enable
          424  10369: am_hal_interrupt_master_disable
          425  10401: am_hal_interrupt_master_set
          426  10429: __user_initial_stackheap
          427  10454: __aeabi_llsl
          428  10467: _ll_shift_l
          429  10479: __aeabi_llsr
          430  10492: _ll_ushift_r
          431  10505: __aeabi_memcpy
          432  10520: __rt_memcpy
          433  10532: _memcpy_lastbytes
          434  10550: __aeabi_memclr4
          435  10566: __aeabi_memclr8
          436  10582: __rt_memclr_w
          437  10596: _memset_w
          438  10606: __use_two_region_memory
          439  10630: __rt_heap_escrow$2region
          440  10655: __rt_heap_expand$2region
          441  10680: __aeabi_memcpy4
          442  10696: __aeabi_memcpy8
          443  10712: __rt_memcpy_w
          444  10726: _memcpy_lastbytes_aligned
          445  10752: __user_setup_stackheap
          446  10775: exit
          447  10780: __user_libspace
          448  10796: __user_perproc_libspace
          449  10820: __user_perthread_libspace
          450  10846: _sys_exit
          451  10856: __I$use$semihosting
          452  10876: __use_no_semihosting_swi
          453  10901: __semihosting_library_function
          454  10932: am_bsp_itm_printf_enable
          455  10957: am_bsp_low_power_init
          456  10979: am_bsp_mspi_pins_enable
          457  11003: am_devices_mspi_atxp032_deinit
          458  11034: am_devices_mspi_atxp032_disable_scrambling
          459  11077: am_devices_mspi_atxp032_disable_xip
          460  11113: am_devices_mspi_atxp032_enable_scrambling
          461  11155: am_devices_mspi_atxp032_enable_xip
          462  11190: am_devices_mspi_atxp032_id
          463  11217: am_devices_mspi_atxp032_init
          464  11246: am_devices_mspi_atxp032_mass_erase
          465  11281: am_devices_mspi_atxp032_read
          466  11310: am_devices_mspi_atxp032_reset
          467  11340: am_devices_mspi_atxp032_sector_erase
          468  11377: am_devices_mspi_atxp032_write
          469  11407: am_hal_cmdq_alloc_block
          470  11431: am_hal_cmdq_disable
          471  11451: am_hal_cmdq_enable
          472  11470: am_hal_cmdq_error_resume
          473  11495: am_hal_cmdq_get_status
          474  11518: am_hal_cmdq_init
          475  11535: am_hal_cmdq_post_block
          476  11558: am_hal_cmdq_post_loop_block
          477  11586: am_hal_cmdq_release_block
          478  11612: am_hal_cmdq_reset
          479  11630: am_hal_cmdq_term
          480  11647: am_hal_daxi_config
          481  11666: am_hal_daxi_control
          482  11686: am_hal_dcu_get
          483  11701: am_hal_dcu_update
          484  11719: am_hal_delay_us
          485  11735: am_hal_delay_us_status_change
          486  11765: am_hal_delay_us_status_check
          487  11794: am_hal_fault_capture_enable
          488  11822: am_hal_fault_status_get
          489  11846: am_hal_gpio_pinconfig
          490  11868: am_hal_itm_enable
          491  11886: am_hal_itm_print
          492  11903: am_hal_load_ui32
          493  11920: am_hal_mram_info_read
          494  11942: am_hal_mspi_blocking_transfer
          495  11972: am_hal_mspi_configure
          496  11994: am_hal_mspi_control
          497  12014: am_hal_mspi_deinitialize
          498  12039: am_hal_mspi_device_configure
          499  12068: am_hal_mspi_disable
          500  12088: am_hal_mspi_enable
          501  12107: am_hal_mspi_initialize
          502  12130: am_hal_mspi_interrupt_clear
          503  12158: am_hal_mspi_interrupt_disable
          504  12188: am_hal_mspi_interrupt_enable
          505  12217: am_hal_mspi_interrupt_service
          506  12247: am_hal_mspi_interrupt_status_get
          507  12280: am_hal_mspi_nonblocking_transfer
          508  12313: am_hal_mspi_power_control
          509  12339: am_hal_pwrctrl_control
          510  12362: am_hal_pwrctrl_low_power_init
          511  12392: am_hal_pwrctrl_mcu_memory_config
          512  12425: am_hal_pwrctrl_periph_disable
          513  12455: am_hal_pwrctrl_periph_enable
          514  12484: am_hal_rtc_osc_disable
          515  12507: am_hal_sysctrl_sleep
          516  12528: am_hal_timer_clear
          517  12547: am_hal_timer_default_config_set
          518  12579: am_hal_timer_interrupt_clear
          519  12608: am_hal_timer_interrupt_enable
          520  12638: am_hal_timer_interrupt_status_get
          521  12672: am_hal_timer_stop
          522  12690: am_hal_tpiu_enable
          523  12709: am_hal_util_write_and_wait
          524  12736: am_mspi2_isr
          525  12749: am_util_delay_ms
          526  12766: am_util_delay_us
          527  12783: am_util_faultisr_collect_data
          528  12813: am_util_stdio_printf
          529  12834: am_util_stdio_printf_init
          530  12860: am_util_stdio_terminal_clear
          531  12889: am_util_stdio_vsprintf
          532  12912: build_dma_cmdlist
          533  12930: internal_timer_config
          534  12952: main
          535  12957: timer_config_b1
          536  12973: __aeabi_d2f
          537  12985: _d2f
          538  12990: __fpl_dnaninf
          539  13004: _fp_init
          540  13013: __fplib_config_fpu_vfp
          541  13036: __fplib_config_pureend_doubles
          542  13067: __fpl_fretinf
          543  13081: __I$use$fp
          544  13092: ui32MCUAllowed
          545  13107: ui32DSP0Allowed
          546  13123: ui32DSP1Allowed
          547  13139: ui32SharedAccess
          548  13156: sGlobalAccess
          549  13170: MSPI_Flash_Config
          550  13188: g_am_hal_bootrom_helper
          551  13212: g_DefaultSRAMCfg
          552  13229: g_DefaultMcuMemCfg
          553  13248: am_hal_pwrctrl_peripheral_control
          554  13282: am_hal_daxi_defaults
          555  13303: Region$$Table$$Base
          556  13323: Region$$Table$$Limit
          557  13344: mspi2_debug
          558  13356: g_FlashHdl
          559  13367: g_MSPIHdl
          560  13377: device_func
          561  13389: g_pfnCharPrint
          562  13404: gXipConfig
          563  13415: MSPI_ATXP032_Serial_CE0_MSPIConfig
          564  13450: MSPI_ATXP032_Serial_CE1_MSPIConfig
          565  13485: MSPI_ATXP032_Quad_CE0_MSPIConfig
          566  13518: MSPI_ATXP032_Quad_CE1_MSPIConfig
          567  13551: MSPI_ATXP032_Octal_CE0_MSPIConfig
          568  13585: MSPI_ATXP032_Octal_CE1_MSPIConfig
          569  13619: g_ATXP032_DevConfig
          570  13639: g_ui32HALflags
          571  13654: gStartOff
          572  13664: gpDcuEnable
          573  13676: gpDcuLock
          574  13686: gDcuEnable
          575  13697: gDcuDisable
          576  13709: g_eCurrPwrMode
          577  13724: g_bVDDCbuckboosted
          578  13743: g_bVDDCLDOboosted
          579  13761: g_ui32TrimVer
          580  13775: g_ui32origSimobuckVDDFtrim
          581  13802: g_ui32origSimobuckVDDCtrim
          582  13829: g_ui32origLDOVDDCtrim
          583  13851: storeAndWFIfuncRAM
          584  13870: g_AM_BSP_GPIO_MSPI0_DDR_CE0
          585  13898: g_AM_BSP_GPIO_MSPI0_DDR_CE1
          586  13926: g_AM_BSP_GPIO_MSPI0_CE0
          587  13950: g_AM_BSP_GPIO_MSPI0_CE1
          588  13974: g_AM_BSP_GPIO_MSPI0_D0
          589  13997: g_AM_BSP_GPIO_MSPI0_D1
          590  14020: g_AM_BSP_GPIO_MSPI0_D2
          591  14043: g_AM_BSP_GPIO_MSPI0_D3
          592  14066: g_AM_BSP_GPIO_MSPI0_D4
          593  14089: g_AM_BSP_GPIO_MSPI0_D5
          594  14112: g_AM_BSP_GPIO_MSPI0_D6
          595  14135: g_AM_BSP_GPIO_MSPI0_D7
          596  14158: g_AM_BSP_GPIO_MSPI0_SCK
          597  14182: g_AM_BSP_GPIO_MSPI0_DQSDM
          598  14208: g_AM_BSP_GPIO_MSPI2_DDR_CE0
          599  14236: g_AM_BSP_GPIO_MSPI2_DDR_CE1
          600  14264: g_AM_BSP_GPIO_MSPI2_CE0
          601  14288: g_AM_BSP_GPIO_MSPI2_CE1
          602  14312: g_AM_BSP_GPIO_MSPI2_D0
          603  14335: g_AM_BSP_GPIO_MSPI2_D1
          604  14358: g_AM_BSP_GPIO_MSPI2_D2
          605  14381: g_AM_BSP_GPIO_MSPI2_D3
          606  14404: g_AM_BSP_GPIO_MSPI2_D4
          607  14427: g_AM_BSP_GPIO_MSPI2_D5
          608  14450: g_AM_BSP_GPIO_MSPI2_D6
          609  14473: g_AM_BSP_GPIO_MSPI2_D7
          610  14496: g_AM_BSP_GPIO_MSPI2_SCK
          611  14520: g_AM_BSP_GPIO_MSPI2_DQSDM
          612  14546: g_AM_BSP_GPIO_ITM_SWO
          613  14568: program_mram_tmc_tcycrd
          614  14592: DMATCBBuffer
          615  14605: TestBuffer
          616  14616: DummyBuffer
          617  14628: g_SectorTXBuffer
          618  14645: g_SectorRXBuffer
          619  14662: gMspiCfg
          620  14671: gAmAtxp032
          621  14682: g_MSPIState
          622  14694: __libspace_start
          623  14711: __temporary_stack_top$libspace
          624  14742: psGlobalAccessPtr
          625  14760: ui32MCUClaimed
          626  14775: ui32DSP0Claimed
          627  14791: ui32DSP1Claimed
          628  14807: 


** Section #14 '.note' (SHT_NOTE)
    Size   : 32 bytes (alignment 4)


** Section #15 '.comment' (SHT_PROGBITS)
    Size   : 32992 bytes


** Section #16 '.shstrtab' (SHT_STRTAB)
    Size   : 176 bytes

            #  Offset String
        ====================================

            1      1: MCU_MRAM
            2     10: MCU_TCM
            3     18: MCU_SRAM
            4     27: SHARED_SRAM
            5     39: .debug_abbrev
            6     53: .debug_frame
            7     66: .debug_info
            8     78: .debug_line
            9     90: .debug_loc
           10    101: .debug_macinfo
           11    116: .debug_pubnames
           12    132: .symtab
           13    140: .strtab
           14    148: .note
           15    154: .comment
           16    163: .shstrtab
           17    173: 
           18    174: 
           19    175: 


